
asteroids.bin:     file format elf32-m68k


Disassembly of section .text:

00000404 <_start>:
     404:	207c 00df fffe 	moveal #14680062,%a0
     40a:	b1fc 0000 0000 	cmpal #0,%a0
     410:	6702           	beqs 414 <_start+0x10>
     412:	2e48           	moveal %a0,%sp
     414:	4e56 fff8      	linkw %fp,#-8
     418:	223c 0002 2b10 	movel #142096,%d1
     41e:	203c 0002 3ec8 	movel #147144,%d0
     424:	b280           	cmpl %d0,%d1
     426:	6712           	beqs 43a <_start+0x36>
     428:	2041           	moveal %d1,%a0
     42a:	9081           	subl %d1,%d0
     42c:	5380           	subql #1,%d0
     42e:	4218           	clrb %a0@+
     430:	51c8 fffc      	dbf %d0,42e <_start+0x2a>
     434:	4240           	clrw %d0
     436:	5380           	subql #1,%d0
     438:	64f4           	bccs 42e <_start+0x2a>
     43a:	41f9 0000 0000 	lea 0 <__DYNAMIC>,%a0
     440:	b1fc 0000 0000 	cmpal #0,%a0
     446:	6702           	beqs 44a <_start+0x46>
     448:	4e90           	jsr %a0@
     44a:	41f9 0000 0000 	lea 0 <__DYNAMIC>,%a0
     450:	b1fc 0000 0000 	cmpal #0,%a0
     456:	6702           	beqs 45a <_start+0x56>
     458:	4e90           	jsr %a0@
     45a:	2ebc 0002 2438 	movel #140344,%sp@
     460:	4eb9 0001 62e8 	jsr 162e8 <atexit>
     466:	4eb9 0002 2424 	jsr 22424 <__INIT_SECTION__>
     46c:	4878 0000      	pea 0 <__DYNAMIC>
     470:	4879 0002 2448 	pea 22448 <environ>
     476:	486f 0004      	pea %sp@(4)
     47a:	4878 0000      	pea 0 <__DYNAMIC>
     47e:	4eb9 0000 09ac 	jsr 9ac <main>
     484:	2f00           	movel %d0,%sp@-
     486:	4eb9 0001 6210 	jsr 16210 <_exit>
     48c:	203c 8000 25d8 	movel #-2147473960,%d0
     492:	0c80 8000 25d8 	cmpil #-2147473960,%d0
     498:	6716           	beqs 4b0 <_start+0xac>
     49a:	41f9 0000 0000 	lea 0 <__DYNAMIC>,%a0
     4a0:	b0fc 0000      	cmpaw #0,%a0
     4a4:	670a           	beqs 4b0 <_start+0xac>
     4a6:	4879 8000 25d8 	pea 800025d8 <call___do_global_ctors_aux+0x1bb2>
     4ac:	4e90           	jsr %a0@
     4ae:	588f           	addql #4,%sp
     4b0:	4e75           	rts
     4b2:	203c 8000 25d8 	movel #-2147473960,%d0
     4b8:	0480 8000 25d8 	subil #-2147473960,%d0
     4be:	2200           	movel %d0,%d1
     4c0:	e481           	asrl #2,%d1
     4c2:	d080           	addl %d0,%d0
     4c4:	9180           	subxl %d0,%d0
     4c6:	4480           	negl %d0
     4c8:	d081           	addl %d1,%d0
     4ca:	e280           	asrl #1,%d0
     4cc:	6718           	beqs 4e6 <_start+0xe2>
     4ce:	41f9 0000 0000 	lea 0 <__DYNAMIC>,%a0
     4d4:	b0fc 0000      	cmpaw #0,%a0
     4d8:	670c           	beqs 4e6 <_start+0xe2>
     4da:	2f00           	movel %d0,%sp@-
     4dc:	4879 8000 25d8 	pea 800025d8 <call___do_global_ctors_aux+0x1bb2>
     4e2:	4e90           	jsr %a0@
     4e4:	508f           	addql #8,%sp
     4e6:	4e75           	rts
     4e8:	2f0a           	movel %a2,%sp@-
     4ea:	2f02           	movel %d2,%sp@-
     4ec:	4a39 8000 25d8 	tstb 800025d8 <call___do_global_ctors_aux+0x1bb2>
     4f2:	665e           	bnes 552 <_start+0x14e>
     4f4:	243c 8000 25b4 	movel #-2147473996,%d2
     4fa:	0482 8000 25b0 	subil #-2147474000,%d2
     500:	e482           	asrl #2,%d2
     502:	5382           	subql #1,%d2
     504:	45f9 8000 25b0 	lea 800025b0 <call___do_global_ctors_aux+0x1b8a>,%a2
     50a:	2039 8000 25da 	movel 800025da <call___do_global_ctors_aux+0x1bb4>,%d0
     510:	b480           	cmpl %d0,%d2
     512:	631c           	blss 530 <_start+0x12c>
     514:	5280           	addql #1,%d0
     516:	23c0 8000 25da 	movel %d0,800025da <call___do_global_ctors_aux+0x1bb4>
     51c:	d080           	addl %d0,%d0
     51e:	d080           	addl %d0,%d0
     520:	2072 0800      	moveal %a2@(0000000000000000,%d0:l),%a0
     524:	4e90           	jsr %a0@
     526:	2039 8000 25da 	movel 800025da <call___do_global_ctors_aux+0x1bb4>,%d0
     52c:	b480           	cmpl %d0,%d2
     52e:	62e4           	bhis 514 <_start+0x110>
     530:	4eba ff5a      	jsr %pc@(48c <_start+0x88>)
     534:	41f9 0000 0000 	lea 0 <__DYNAMIC>,%a0
     53a:	b0fc 0000      	cmpaw #0,%a0
     53e:	670a           	beqs 54a <_start+0x146>
     540:	4879 8000 05a4 	pea 800005a4 <__do_global_dtors_aux+0x3c>
     546:	4e90           	jsr %a0@
     548:	588f           	addql #4,%sp
     54a:	13fc 0001 8000 	moveb #1,800025d8 <call___do_global_ctors_aux+0x1bb2>
     550:	25d8 
     552:	241f           	movel %sp@+,%d2
     554:	245f           	moveal %sp@+,%a2
     556:	4e75           	rts
     558:	4e75           	rts
     55a:	41f9 0000 0000 	lea 0 <__DYNAMIC>,%a0
     560:	b0fc 0000      	cmpaw #0,%a0
     564:	6710           	beqs 576 <_start+0x172>
     566:	4879 8000 25de 	pea 800025de <call___do_global_ctors_aux+0x1bb8>
     56c:	4879 8000 05a4 	pea 800005a4 <__do_global_dtors_aux+0x3c>
     572:	4e90           	jsr %a0@
     574:	508f           	addql #8,%sp
     576:	6000 ff3a      	braw 4b2 <_start+0xae>
     57a:	4e75           	rts

0000057c <__wrap___extendsfdf2>:
     57c:	202f 0004      	movel %sp@(4),%d0
     580:	2079 8000 25c0 	moveal 800025c0 <call___do_global_ctors_aux+0x1b9a>,%a0
     586:	10bc 000a      	moveb #10,%a0@
     58a:	23c0 8000 25f8 	movel %d0,800025f8 <call___do_global_ctors_aux+0x1bd2>
     590:	7200           	moveq #0,%d1
     592:	2079 8000 25d4 	moveal 800025d4 <call___do_global_ctors_aux+0x1bae>,%a0
     598:	2080           	movel %d0,%a0@
     59a:	2141 0004      	movel %d1,%a0@(4)
     59e:	2079 8000 25d0 	moveal 800025d0 <call___do_global_ctors_aux+0x1baa>,%a0
     5a4:	20bc 0000 0000 	movel #0,%a0@
     5aa:	217c 0000 0000 	movel #0,%a0@(4)
     5b0:	0004 
     5b2:	2079 8000 25c0 	moveal 800025c0 <call___do_global_ctors_aux+0x1b9a>,%a0
     5b8:	1010           	moveb %a0@,%d0
     5ba:	0000 0001      	orib #1,%d0
     5be:	1080           	moveb %d0,%a0@
     5c0:	2079 8000 25c0 	moveal 800025c0 <call___do_global_ctors_aux+0x1b9a>,%a0
     5c6:	1010           	moveb %a0@,%d0
     5c8:	0200 fffe      	andib #-2,%d0
     5cc:	1080           	moveb %d0,%a0@
     5ce:	2079 8000 25bc 	moveal 800025bc <call___do_global_ctors_aux+0x1b96>,%a0
     5d4:	1010           	moveb %a0@,%d0
     5d6:	0800 0001      	btst #1,%d0
     5da:	67f8           	beqs 5d4 <__wrap___extendsfdf2+0x58>
     5dc:	2079 8000 25cc 	moveal 800025cc <call___do_global_ctors_aux+0x1ba6>,%a0
     5e2:	2010           	movel %a0@,%d0
     5e4:	2228 0004      	movel %a0@(4),%d1
     5e8:	23c0 8000 25fc 	movel %d0,800025fc <call___do_global_ctors_aux+0x1bd6>
     5ee:	23c1 8000 2600 	movel %d1,80002600 <call___do_global_ctors_aux+0x1bda>
     5f4:	4e75           	rts

000005f6 <__wrap___truncdfsf2>:
     5f6:	2079 8000 25c0 	moveal 800025c0 <call___do_global_ctors_aux+0x1b9a>,%a0
     5fc:	10bc 000c      	moveb #12,%a0@
     600:	23ef 0004 8000 	movel %sp@(4),8000260c <call___do_global_ctors_aux+0x1be6>
     606:	260c 
     608:	23ef 0008 8000 	movel %sp@(8),80002610 <call___do_global_ctors_aux+0x1bea>
     60e:	2610 
     610:	42b9 8000 2604 	clrl 80002604 <call___do_global_ctors_aux+0x1bde>
     616:	42b9 8000 2608 	clrl 80002608 <call___do_global_ctors_aux+0x1be2>
     61c:	2079 8000 25d4 	moveal 800025d4 <call___do_global_ctors_aux+0x1bae>,%a0
     622:	202f 0004      	movel %sp@(4),%d0
     626:	222f 0008      	movel %sp@(8),%d1
     62a:	2080           	movel %d0,%a0@
     62c:	2141 0004      	movel %d1,%a0@(4)
     630:	2079 8000 25d0 	moveal 800025d0 <call___do_global_ctors_aux+0x1baa>,%a0
     636:	20bc 0000 0000 	movel #0,%a0@
     63c:	217c 0000 0000 	movel #0,%a0@(4)
     642:	0004 
     644:	2079 8000 25c0 	moveal 800025c0 <call___do_global_ctors_aux+0x1b9a>,%a0
     64a:	1010           	moveb %a0@,%d0
     64c:	0000 0001      	orib #1,%d0
     650:	1080           	moveb %d0,%a0@
     652:	2079 8000 25c0 	moveal 800025c0 <call___do_global_ctors_aux+0x1b9a>,%a0
     658:	1010           	moveb %a0@,%d0
     65a:	0200 fffe      	andib #-2,%d0
     65e:	1080           	moveb %d0,%a0@
     660:	2079 8000 25bc 	moveal 800025bc <call___do_global_ctors_aux+0x1b96>,%a0
     666:	1010           	moveb %a0@,%d0
     668:	0800 0001      	btst #1,%d0
     66c:	67f8           	beqs 666 <__wrap___truncdfsf2+0x70>
     66e:	2079 8000 25cc 	moveal 800025cc <call___do_global_ctors_aux+0x1ba6>,%a0
     674:	2010           	movel %a0@,%d0
     676:	2228 0004      	movel %a0@(4),%d1
     67a:	23c1 8000 25f8 	movel %d1,800025f8 <call___do_global_ctors_aux+0x1bd2>
     680:	2001           	movel %d1,%d0
     682:	4e75           	rts

00000684 <__wrap___muldf3>:
     684:	2079 8000 25c0 	moveal 800025c0 <call___do_global_ctors_aux+0x1b9a>,%a0
     68a:	10bc 0004      	moveb #4,%a0@
     68e:	23ef 0004 8000 	movel %sp@(4),8000260c <call___do_global_ctors_aux+0x1be6>
     694:	260c 
     696:	23ef 0008 8000 	movel %sp@(8),80002610 <call___do_global_ctors_aux+0x1bea>
     69c:	2610 
     69e:	23ef 000c 8000 	movel %sp@(12),80002604 <call___do_global_ctors_aux+0x1bde>
     6a4:	2604 
     6a6:	23ef 0010 8000 	movel %sp@(16),80002608 <call___do_global_ctors_aux+0x1be2>
     6ac:	2608 
     6ae:	2079 8000 25d4 	moveal 800025d4 <call___do_global_ctors_aux+0x1bae>,%a0
     6b4:	202f 0004      	movel %sp@(4),%d0
     6b8:	222f 0008      	movel %sp@(8),%d1
     6bc:	2080           	movel %d0,%a0@
     6be:	2141 0004      	movel %d1,%a0@(4)
     6c2:	2079 8000 25d0 	moveal 800025d0 <call___do_global_ctors_aux+0x1baa>,%a0
     6c8:	2039 8000 2604 	movel 80002604 <call___do_global_ctors_aux+0x1bde>,%d0
     6ce:	2239 8000 2608 	movel 80002608 <call___do_global_ctors_aux+0x1be2>,%d1
     6d4:	2080           	movel %d0,%a0@
     6d6:	2141 0004      	movel %d1,%a0@(4)
     6da:	2079 8000 25c0 	moveal 800025c0 <call___do_global_ctors_aux+0x1b9a>,%a0
     6e0:	1010           	moveb %a0@,%d0
     6e2:	0000 0001      	orib #1,%d0
     6e6:	1080           	moveb %d0,%a0@
     6e8:	2079 8000 25c0 	moveal 800025c0 <call___do_global_ctors_aux+0x1b9a>,%a0
     6ee:	1010           	moveb %a0@,%d0
     6f0:	0200 fffe      	andib #-2,%d0
     6f4:	1080           	moveb %d0,%a0@
     6f6:	2079 8000 25bc 	moveal 800025bc <call___do_global_ctors_aux+0x1b96>,%a0
     6fc:	1010           	moveb %a0@,%d0
     6fe:	0800 0001      	btst #1,%d0
     702:	67f8           	beqs 6fc <__wrap___muldf3+0x78>
     704:	2079 8000 25cc 	moveal 800025cc <call___do_global_ctors_aux+0x1ba6>,%a0
     70a:	2010           	movel %a0@,%d0
     70c:	2228 0004      	movel %a0@(4),%d1
     710:	23c0 8000 25fc 	movel %d0,800025fc <call___do_global_ctors_aux+0x1bd6>
     716:	23c1 8000 2600 	movel %d1,80002600 <call___do_global_ctors_aux+0x1bda>
     71c:	4e75           	rts

0000071e <__wrap___adddf3>:
     71e:	2079 8000 25c0 	moveal 800025c0 <call___do_global_ctors_aux+0x1b9a>,%a0
     724:	10bc 0000      	moveb #0,%a0@
     728:	23ef 0004 8000 	movel %sp@(4),8000260c <call___do_global_ctors_aux+0x1be6>
     72e:	260c 
     730:	23ef 0008 8000 	movel %sp@(8),80002610 <call___do_global_ctors_aux+0x1bea>
     736:	2610 
     738:	23ef 000c 8000 	movel %sp@(12),80002604 <call___do_global_ctors_aux+0x1bde>
     73e:	2604 
     740:	23ef 0010 8000 	movel %sp@(16),80002608 <call___do_global_ctors_aux+0x1be2>
     746:	2608 
     748:	2079 8000 25d4 	moveal 800025d4 <call___do_global_ctors_aux+0x1bae>,%a0
     74e:	202f 0004      	movel %sp@(4),%d0
     752:	222f 0008      	movel %sp@(8),%d1
     756:	2080           	movel %d0,%a0@
     758:	2141 0004      	movel %d1,%a0@(4)
     75c:	2079 8000 25d0 	moveal 800025d0 <call___do_global_ctors_aux+0x1baa>,%a0
     762:	2039 8000 2604 	movel 80002604 <call___do_global_ctors_aux+0x1bde>,%d0
     768:	2239 8000 2608 	movel 80002608 <call___do_global_ctors_aux+0x1be2>,%d1
     76e:	2080           	movel %d0,%a0@
     770:	2141 0004      	movel %d1,%a0@(4)
     774:	2079 8000 25c0 	moveal 800025c0 <call___do_global_ctors_aux+0x1b9a>,%a0
     77a:	1010           	moveb %a0@,%d0
     77c:	0000 0001      	orib #1,%d0
     780:	1080           	moveb %d0,%a0@
     782:	2079 8000 25c0 	moveal 800025c0 <call___do_global_ctors_aux+0x1b9a>,%a0
     788:	1010           	moveb %a0@,%d0
     78a:	0200 fffe      	andib #-2,%d0
     78e:	1080           	moveb %d0,%a0@
     790:	2079 8000 25bc 	moveal 800025bc <call___do_global_ctors_aux+0x1b96>,%a0
     796:	1010           	moveb %a0@,%d0
     798:	0800 0001      	btst #1,%d0
     79c:	67f8           	beqs 796 <__wrap___adddf3+0x78>
     79e:	2079 8000 25cc 	moveal 800025cc <call___do_global_ctors_aux+0x1ba6>,%a0
     7a4:	2010           	movel %a0@,%d0
     7a6:	2228 0004      	movel %a0@(4),%d1
     7aa:	23c0 8000 25fc 	movel %d0,800025fc <call___do_global_ctors_aux+0x1bd6>
     7b0:	23c1 8000 2600 	movel %d1,80002600 <call___do_global_ctors_aux+0x1bda>
     7b6:	4e75           	rts

000007b8 <__wrap___subdf3>:
     7b8:	2079 8000 25c0 	moveal 800025c0 <call___do_global_ctors_aux+0x1b9a>,%a0
     7be:	10bc 0002      	moveb #2,%a0@
     7c2:	23ef 0004 8000 	movel %sp@(4),8000260c <call___do_global_ctors_aux+0x1be6>
     7c8:	260c 
     7ca:	23ef 0008 8000 	movel %sp@(8),80002610 <call___do_global_ctors_aux+0x1bea>
     7d0:	2610 
     7d2:	23ef 000c 8000 	movel %sp@(12),80002604 <call___do_global_ctors_aux+0x1bde>
     7d8:	2604 
     7da:	23ef 0010 8000 	movel %sp@(16),80002608 <call___do_global_ctors_aux+0x1be2>
     7e0:	2608 
     7e2:	2079 8000 25d4 	moveal 800025d4 <call___do_global_ctors_aux+0x1bae>,%a0
     7e8:	202f 0004      	movel %sp@(4),%d0
     7ec:	222f 0008      	movel %sp@(8),%d1
     7f0:	2080           	movel %d0,%a0@
     7f2:	2141 0004      	movel %d1,%a0@(4)
     7f6:	2079 8000 25d0 	moveal 800025d0 <call___do_global_ctors_aux+0x1baa>,%a0
     7fc:	2039 8000 2604 	movel 80002604 <call___do_global_ctors_aux+0x1bde>,%d0
     802:	2239 8000 2608 	movel 80002608 <call___do_global_ctors_aux+0x1be2>,%d1
     808:	2080           	movel %d0,%a0@
     80a:	2141 0004      	movel %d1,%a0@(4)
     80e:	2079 8000 25c0 	moveal 800025c0 <call___do_global_ctors_aux+0x1b9a>,%a0
     814:	1010           	moveb %a0@,%d0
     816:	0000 0001      	orib #1,%d0
     81a:	1080           	moveb %d0,%a0@
     81c:	2079 8000 25c0 	moveal 800025c0 <call___do_global_ctors_aux+0x1b9a>,%a0
     822:	1010           	moveb %a0@,%d0
     824:	0200 fffe      	andib #-2,%d0
     828:	1080           	moveb %d0,%a0@
     82a:	2079 8000 25bc 	moveal 800025bc <call___do_global_ctors_aux+0x1b96>,%a0
     830:	1010           	moveb %a0@,%d0
     832:	0800 0001      	btst #1,%d0
     836:	67f8           	beqs 830 <D_MAX_EXP+0x31>
     838:	2079 8000 25cc 	moveal 800025cc <call___do_global_ctors_aux+0x1ba6>,%a0
     83e:	2010           	movel %a0@,%d0
     840:	2228 0004      	movel %a0@(4),%d1
     844:	23c0 8000 25fc 	movel %d0,800025fc <call___do_global_ctors_aux+0x1bd6>
     84a:	23c1 8000 2600 	movel %d1,80002600 <call___do_global_ctors_aux+0x1bda>
     850:	4e75           	rts

00000852 <__wrap___divdf3>:
     852:	2079 8000 25c0 	moveal 800025c0 <call___do_global_ctors_aux+0x1b9a>,%a0
     858:	10bc 0006      	moveb #6,%a0@
     85c:	23ef 0004 8000 	movel %sp@(4),8000260c <call___do_global_ctors_aux+0x1be6>
     862:	260c 
     864:	23ef 0008 8000 	movel %sp@(8),80002610 <call___do_global_ctors_aux+0x1bea>
     86a:	2610 
     86c:	23ef 000c 8000 	movel %sp@(12),80002604 <call___do_global_ctors_aux+0x1bde>
     872:	2604 
     874:	23ef 0010 8000 	movel %sp@(16),80002608 <call___do_global_ctors_aux+0x1be2>
     87a:	2608 
     87c:	2079 8000 25d4 	moveal 800025d4 <call___do_global_ctors_aux+0x1bae>,%a0
     882:	202f 0004      	movel %sp@(4),%d0
     886:	222f 0008      	movel %sp@(8),%d1
     88a:	2080           	movel %d0,%a0@
     88c:	2141 0004      	movel %d1,%a0@(4)
     890:	2079 8000 25d0 	moveal 800025d0 <call___do_global_ctors_aux+0x1baa>,%a0
     896:	2039 8000 2604 	movel 80002604 <call___do_global_ctors_aux+0x1bde>,%d0
     89c:	2239 8000 2608 	movel 80002608 <call___do_global_ctors_aux+0x1be2>,%d1
     8a2:	2080           	movel %d0,%a0@
     8a4:	2141 0004      	movel %d1,%a0@(4)
     8a8:	2079 8000 25c0 	moveal 800025c0 <call___do_global_ctors_aux+0x1b9a>,%a0
     8ae:	1010           	moveb %a0@,%d0
     8b0:	0000 0001      	orib #1,%d0
     8b4:	1080           	moveb %d0,%a0@
     8b6:	2079 8000 25c0 	moveal 800025c0 <call___do_global_ctors_aux+0x1b9a>,%a0
     8bc:	1010           	moveb %a0@,%d0
     8be:	0200 fffe      	andib #-2,%d0
     8c2:	1080           	moveb %d0,%a0@
     8c4:	2079 8000 25bc 	moveal 800025bc <call___do_global_ctors_aux+0x1b96>,%a0
     8ca:	1010           	moveb %a0@,%d0
     8cc:	0800 0001      	btst #1,%d0
     8d0:	67f8           	beqs 8ca <__wrap___divdf3+0x78>
     8d2:	2079 8000 25cc 	moveal 800025cc <call___do_global_ctors_aux+0x1ba6>,%a0
     8d8:	2010           	movel %a0@,%d0
     8da:	2228 0004      	movel %a0@(4),%d1
     8de:	23c0 8000 25fc 	movel %d0,800025fc <call___do_global_ctors_aux+0x1bd6>
     8e4:	23c1 8000 2600 	movel %d1,80002600 <call___do_global_ctors_aux+0x1bda>
     8ea:	4e75           	rts

000008ec <__wrap_sqrt>:
     8ec:	2079 8000 25c0 	moveal 800025c0 <call___do_global_ctors_aux+0x1b9a>,%a0
     8f2:	10bc 0008      	moveb #8,%a0@
     8f6:	23ef 0004 8000 	movel %sp@(4),8000260c <call___do_global_ctors_aux+0x1be6>
     8fc:	260c 
     8fe:	23ef 0008 8000 	movel %sp@(8),80002610 <call___do_global_ctors_aux+0x1bea>
     904:	2610 
     906:	42b9 8000 2604 	clrl 80002604 <call___do_global_ctors_aux+0x1bde>
     90c:	42b9 8000 2608 	clrl 80002608 <call___do_global_ctors_aux+0x1be2>
     912:	2079 8000 25d4 	moveal 800025d4 <call___do_global_ctors_aux+0x1bae>,%a0
     918:	202f 0004      	movel %sp@(4),%d0
     91c:	222f 0008      	movel %sp@(8),%d1
     920:	2080           	movel %d0,%a0@
     922:	2141 0004      	movel %d1,%a0@(4)
     926:	2079 8000 25d0 	moveal 800025d0 <call___do_global_ctors_aux+0x1baa>,%a0
     92c:	2039 8000 2604 	movel 80002604 <call___do_global_ctors_aux+0x1bde>,%d0
     932:	2239 8000 2608 	movel 80002608 <call___do_global_ctors_aux+0x1be2>,%d1
     938:	2080           	movel %d0,%a0@
     93a:	2141 0004      	movel %d1,%a0@(4)
     93e:	2079 8000 25c0 	moveal 800025c0 <call___do_global_ctors_aux+0x1b9a>,%a0
     944:	1010           	moveb %a0@,%d0
     946:	0000 0001      	orib #1,%d0
     94a:	1080           	moveb %d0,%a0@
     94c:	2079 8000 25c0 	moveal 800025c0 <call___do_global_ctors_aux+0x1b9a>,%a0
     952:	1010           	moveb %a0@,%d0
     954:	0200 fffe      	andib #-2,%d0
     958:	1080           	moveb %d0,%a0@
     95a:	2079 8000 25bc 	moveal 800025bc <call___do_global_ctors_aux+0x1b96>,%a0
     960:	1010           	moveb %a0@,%d0
     962:	0800 0001      	btst #1,%d0
     966:	67f8           	beqs 960 <__wrap_sqrt+0x74>
     968:	2079 8000 25cc 	moveal 800025cc <call___do_global_ctors_aux+0x1ba6>,%a0
     96e:	2010           	movel %a0@,%d0
     970:	2228 0004      	movel %a0@(4),%d1
     974:	23c0 8000 25fc 	movel %d0,800025fc <call___do_global_ctors_aux+0x1bd6>
     97a:	23c1 8000 2600 	movel %d1,80002600 <call___do_global_ctors_aux+0x1bda>
     980:	4e75           	rts
     982:	4e71           	nop
     984:	2f0a           	movel %a2,%sp@-
     986:	2079 8000 25a8 	moveal 800025a8 <call___do_global_ctors_aux+0x1b82>,%a0
     98c:	70ff           	moveq #-1,%d0
     98e:	b088           	cmpl %a0,%d0
     990:	6710           	beqs 9a2 <__wrap_sqrt+0xb6>
     992:	45f9 8000 25a8 	lea 800025a8 <call___do_global_ctors_aux+0x1b82>,%a2
     998:	4e90           	jsr %a0@
     99a:	2062           	moveal %a2@-,%a0
     99c:	70ff           	moveq #-1,%d0
     99e:	b088           	cmpl %a0,%d0
     9a0:	66f6           	bnes 998 <__wrap_sqrt+0xac>
     9a2:	245f           	moveal %sp@+,%a2
     9a4:	4e75           	rts
     9a6:	4e75           	rts

000009a8 <points>:
     9a8:	0000 0000      	orib #0,%d0

000009ac <main>:
     9ac:	487a 0066      	pea %pc@(a14 <welcome>)
     9b0:	4eb9 0001 658c 	jsr 1658c <printf>
     9b6:	588f           	addql #4,%sp
     9b8:	4eb9 0001 1382 	jsr 11382 <initDrive>
     9be:	4eb9 0000 0ac4 	jsr ac4 <gd_begin>

000009c4 <ast_start>:
     9c4:	9683           	subl %d3,%d3
     9c6:	363c 0064      	movew #100,%d3
     9ca:	4843           	swap %d3
     9cc:	363c 0064      	movew #100,%d3
     9d0:	23c3 0000 09a8 	movel %d3,9a8 <points>
     9d6:	487a ffd0      	pea %pc@(9a8 <points>)
     9da:	4eb9 0000 10fa 	jsr 10fa <beginLine>
     9e0:	588f           	addql #4,%sp
     9e2:	47fa 0042      	lea %pc@(a26 <rock1>),%a3
     9e6:	740c           	moveq #12,%d2

000009e8 <draw_asteroid>:
     9e8:	363c 0400      	movew #1024,%d3
     9ec:	161b           	moveb %a3@+,%d3
     9ee:	4843           	swap %d3
     9f0:	361b           	movew %a3@+,%d3
     9f2:	23c3 0000 09a8 	movel %d3,9a8 <points>
     9f8:	487a ffae      	pea %pc@(9a8 <points>)
     9fc:	4eb9 0000 1166 	jsr 1166 <addPoint>
     a02:	588f           	addql #4,%sp
     a04:	51ca ffe2      	dbf %d2,9e8 <draw_asteroid>
     a08:	4eb9 0000 0be0 	jsr be0 <gd_swap>

00000a0e <end>:
     a0e:	4ef9 00e0 0bc0 	jmp e00bc0 <__stack+0xbc2>

00000a14 <welcome>:
     a14:	0d0a 4173      	movepw %a2@(16755),%d6
     a18:	7465           	moveq #101,%d2
     a1a:	726f           	moveq #111,%d1
     a1c:	6964           	bvss a82 <rock3+0xe>
     a1e:	2044           	moveal %d4,%a0
     a20:	656d           	bcss a8f <rock3+0x1b>
     a22:	6f0d           	bles a31 <rock1+0xb>
     a24:	Address 0x0000000000000a26 is out of bounds.


00000a26 <rock1>:
     a26:	0000 0407      	orib #7,%d0
     a2a:	0404 0704      	subib #4,%d4
     a2e:	fc07           	.short 0xfc07
     a30:	fefc           	.short 0xfefc
     a32:	0702           	btst %d3,%d2
     a34:	fc08           	.short 0xfc08
     a36:	fafc           	.short 0xfafc
     a38:	08fa           	.short 0x08fa
     a3a:	0007 fc04      	orib #4,%d7
     a3e:	0700           	btst %d3,%d0
     a40:	0807 0404      	btst #4,%d7
     a44:	0704           	btst %d3,%d4
     a46:	fc00           	.short 0xfc00
     a48:	0000 0000      	orib #0,%d0
	...

00000a4d <rock2>:
     a4d:	0004 0207      	orib #7,%d4
     a51:	0402 07fc      	subib #-4,%d2
     a55:	0407 fcfe      	subib #-2,%d7
     a59:	07fc           	.short 0x07fc
     a5b:	0207 fcfc      	andib #-4,%d7
     a5f:	0702           	btst %d3,%d2
     a61:	fc07           	.short 0xfc07
     a63:	fefc           	.short 0xfefc
     a65:	0704           	btst %d3,%d4
     a67:	fc07           	.short 0xfc07
     a69:	0202 0806      	andib #6,%d2
     a6d:	fe08           	.short 0xfe08
     a6f:	0406 07fc      	subib #-4,%d6
     a73:	Address 0x0000000000000a73 is out of bounds.


00000a74 <rock3>:
     a74:	00fc           	.short 0x00fc
     a76:	0007 fcfe      	orib #-2,%d7
     a7a:	0704           	btst %d3,%d4
     a7c:	fa07           	.short 0xfa07
     a7e:	0406 0700      	subib #0,%d6
     a82:	fa07           	.short 0xfa07
     a84:	0400 0704      	subib #4,%d0
     a88:	0607 0004      	addib #4,%d7
     a8c:	07fc           	.short 0x07fc
     a8e:	0607 fa00      	addib #0,%d7
     a92:	07fa           	.short 0x07fa
     a94:	fa07           	.short 0xfa07
     a96:	04fe           	.short 0x04fe
     a98:	Address 0x0000000000000a9a is out of bounds.


00000a9b <rock4>:
     a9b:	0002 0007      	orib #7,%d2
     a9f:	0602 0600      	addib #0,%d2
     aa3:	0207 fa04      	andib #4,%d7
     aa7:	07fa           	.short 0x07fa
     aa9:	0006 02fc      	orib #-4,%d6
     aad:	07fa           	.short 0x07fa
     aaf:	0007 00fa      	orib #-6,%d7
     ab3:	0704           	btst %d3,%d4
     ab5:	fa07           	.short 0xfa07
     ab7:	0602 0602      	addib #2,%d2
     abb:	fe06           	.short 0xfe06
     abd:	0404 07fa      	subib #-6,%d4
     ac1:	Address 0x0000000000000ac3 is out of bounds.


00000ac4 <gd_begin>:
     ac4:	2f0b           	movel %a3,%sp@-
     ac6:	2f0a           	movel %a2,%sp@-
     ac8:	4879 0002 1858 	pea 21858 <__DTOR_END__>
     ace:	45f9 0001 67ca 	lea 167ca <puts>,%a2
     ad4:	4e92           	jsr %a2@
     ad6:	42a7           	clrl %sp@-
     ad8:	42a7           	clrl %sp@-
     ada:	42a7           	clrl %sp@-
     adc:	4879 0002 2b5c 	pea 22b5c <GD>
     ae2:	4eb9 0000 40f6 	jsr 40f6 <_ZN7GDClass5beginEhii>
     ae8:	4fef 0014      	lea %sp@(20),%sp
     aec:	203c 0030 2000 	movel #3153920,%d0
     af2:	4a39 0002 2bb6 	tstb 22bb6 <ft8xx_model>
     af8:	6606           	bnes b00 <gd_begin+0x3c>
     afa:	203c 0010 2400 	movel #1057792,%d0
     b00:	2f00           	movel %d0,%sp@-
     b02:	4879 0002 2b5c 	pea 22b5c <GD>
     b08:	4eb9 0000 cb72 	jsr cb72 <_ZN7GDClass2rdEm>
     b0e:	508f           	addql #8,%sp
     b10:	0c00 007c      	cmpib #124,%d0
     b14:	6678           	bnes b8e <gd_begin+0xca>
     b16:	4878 007c      	pea 7c <DBL_MANT_DIG+0x47>
     b1a:	4879 0002 1872 	pea 21872 <__DTOR_END__+0x1a>
     b20:	47f9 0001 658c 	lea 1658c <printf>,%a3
     b26:	4e93           	jsr %a3@
     b28:	508f           	addql #8,%sp
     b2a:	203c 0030 20f8 	movel #3154168,%d0
     b30:	4a39 0002 2bb6 	tstb 22bb6 <ft8xx_model>
     b36:	674e           	beqs b86 <gd_begin+0xc2>
     b38:	2f00           	movel %d0,%sp@-
     b3a:	4879 0002 2b5c 	pea 22b5c <GD>
     b40:	4eb9 0000 cd24 	jsr cd24 <_ZN7GDClass4rd16Em>
     b46:	508f           	addql #8,%sp
     b48:	0c40 0fff      	cmpiw #4095,%d0
     b4c:	674a           	beqs b98 <gd_begin+0xd4>
     b4e:	42a7           	clrl %sp@-
     b50:	4879 0002 2b5c 	pea 22b5c <GD>
     b56:	4eb9 0000 6bde 	jsr 6bde <_ZN7GDClass13ClearColorRGBEm>
     b5c:	4879 0002 2b5c 	pea 22b5c <GD>
     b62:	4eb9 0000 6d6c 	jsr 6d6c <_ZN7GDClass5ClearEv>
     b68:	4879 0002 2b5c 	pea 22b5c <GD>
     b6e:	4eb9 0000 2a62 	jsr 2a62 <_ZN7GDClass4swapEv>
     b74:	4879 0002 18a4 	pea 218a4 <__DTOR_END__+0x4c>
     b7a:	4e92           	jsr %a2@
     b7c:	4fef 0014      	lea %sp@(20),%sp
     b80:	245f           	moveal %sp@+,%a2
     b82:	265f           	moveal %sp@+,%a3
     b84:	4e75           	rts
     b86:	203c 0010 24e4 	movel #1058020,%d0
     b8c:	60aa           	bras b38 <gd_begin+0x74>
     b8e:	4878 0001      	pea 1 <ADD>
     b92:	4eb9 0001 6330 	jsr 16330 <exit>
     b98:	4878 0fff      	pea fff <gd_draw_bitmap+0xb3>
     b9c:	4879 0002 1896 	pea 21896 <__DTOR_END__+0x3e>
     ba2:	4e93           	jsr %a3@
     ba4:	4879 0002 2b5c 	pea 22b5c <GD>
     baa:	4eb9 0000 3cb6 	jsr 3cb6 <_ZN7GDClass5alertEv>
     bb0:	4878 0001      	pea 1 <ADD>
     bb4:	4eb9 0001 6330 	jsr 16330 <exit>

00000bba <gd_clear>:
     bba:	4879 0002 2b5c 	pea 22b5c <GD>
     bc0:	4eb9 0000 6d6c 	jsr 6d6c <_ZN7GDClass5ClearEv>
     bc6:	588f           	addql #4,%sp
     bc8:	4e75           	rts

00000bca <gd_clearColor>:
     bca:	206f 0004      	moveal %sp@(4),%a0
     bce:	2f10           	movel %a0@,%sp@-
     bd0:	4879 0002 2b5c 	pea 22b5c <GD>
     bd6:	4eb9 0000 6bde 	jsr 6bde <_ZN7GDClass13ClearColorRGBEm>
     bdc:	508f           	addql #8,%sp
     bde:	4e75           	rts

00000be0 <gd_swap>:
     be0:	4879 0002 2b5c 	pea 22b5c <GD>
     be6:	4eb9 0000 2a62 	jsr 2a62 <_ZN7GDClass4swapEv>
     bec:	588f           	addql #4,%sp
     bee:	4e75           	rts

00000bf0 <gd_rand>:
     bf0:	206f 0004      	moveal %sp@(4),%a0
     bf4:	2f10           	movel %a0@,%sp@-
     bf6:	4879 0002 2b5c 	pea 22b5c <GD>
     bfc:	4eb9 0000 2f70 	jsr 2f70 <_ZN7GDClass6randomEm>
     c02:	508f           	addql #8,%sp
     c04:	4e75           	rts

00000c06 <gd_line>:
     c06:	48e7 203e      	moveml %d2/%a2-%fp,%sp@-
     c0a:	286f 001c      	moveal %sp@(28),%a4
     c0e:	2a6f 0020      	moveal %sp@(32),%a5
     c12:	246f 0024      	moveal %sp@(36),%a2
     c16:	266f 0028      	moveal %sp@(40),%a3
     c1a:	2c6f 0030      	moveal %sp@(48),%fp
     c1e:	206f 0034      	moveal %sp@(52),%a0
     c22:	226f 002c      	moveal %sp@(44),%a1
     c26:	2411           	movel %a1@,%d2
     c28:	e98a           	lsll #4,%d2
     c2a:	7001           	moveq #1,%d0
     c2c:	b090           	cmpl %a0@,%d0
     c2e:	676e           	beqs c9e <gd_line+0x98>
     c30:	0282 0000 fff0 	andil #65520,%d2
     c36:	2f02           	movel %d2,%sp@-
     c38:	4879 0002 2b5c 	pea 22b5c <GD>
     c3e:	4eb9 0000 7442 	jsr 7442 <_ZN7GDClass9LineWidthEt>
     c44:	2f16           	movel %fp@,%sp@-
     c46:	4879 0002 2b5c 	pea 22b5c <GD>
     c4c:	4eb9 0000 717e 	jsr 717e <_ZN7GDClass8ColorRGBEm>
     c52:	42a7           	clrl %sp@-
     c54:	4879 0002 2b5c 	pea 22b5c <GD>
     c5a:	4eb9 0000 7e72 	jsr 7e72 <_ZN7GDClass12VertexFormatEh>
     c60:	2015           	movel %a5@,%d0
     c62:	3040           	moveaw %d0,%a0
     c64:	2f08           	movel %a0,%sp@-
     c66:	2014           	movel %a4@,%d0
     c68:	3040           	moveaw %d0,%a0
     c6a:	2f08           	movel %a0,%sp@-
     c6c:	4879 0002 2b5c 	pea 22b5c <GD>
     c72:	4eb9 0000 7c76 	jsr 7c76 <_ZN7GDClass8Vertex2fEss>
     c78:	4fef 0024      	lea %sp@(36),%sp
     c7c:	2013           	movel %a3@,%d0
     c7e:	3040           	moveaw %d0,%a0
     c80:	2f48 0024      	movel %a0,%sp@(36)
     c84:	2012           	movel %a2@,%d0
     c86:	3040           	moveaw %d0,%a0
     c88:	2f48 0020      	movel %a0,%sp@(32)
     c8c:	2f7c 0002 2b5c 	movel #142172,%sp@(28)
     c92:	001c 
     c94:	4cdf 7c04      	moveml %sp@+,%d2/%a2-%fp
     c98:	4ef9 0000 7c76 	jmp 7c76 <_ZN7GDClass8Vertex2fEss>
     c9e:	4878 0003      	pea 3 <DIVIDE>
     ca2:	4879 0002 2b5c 	pea 22b5c <GD>
     ca8:	4eb9 0000 5096 	jsr 5096 <_ZN7GDClass5BeginE9Primitive>
     cae:	508f           	addql #8,%sp
     cb0:	0282 0000 fff0 	andil #65520,%d2
     cb6:	2f02           	movel %d2,%sp@-
     cb8:	4879 0002 2b5c 	pea 22b5c <GD>
     cbe:	4eb9 0000 7442 	jsr 7442 <_ZN7GDClass9LineWidthEt>
     cc4:	2f16           	movel %fp@,%sp@-
     cc6:	4879 0002 2b5c 	pea 22b5c <GD>
     ccc:	4eb9 0000 717e 	jsr 717e <_ZN7GDClass8ColorRGBEm>
     cd2:	42a7           	clrl %sp@-
     cd4:	4879 0002 2b5c 	pea 22b5c <GD>
     cda:	4eb9 0000 7e72 	jsr 7e72 <_ZN7GDClass12VertexFormatEh>
     ce0:	2015           	movel %a5@,%d0
     ce2:	3040           	moveaw %d0,%a0
     ce4:	2f08           	movel %a0,%sp@-
     ce6:	2014           	movel %a4@,%d0
     ce8:	3040           	moveaw %d0,%a0
     cea:	2f08           	movel %a0,%sp@-
     cec:	4879 0002 2b5c 	pea 22b5c <GD>
     cf2:	4eb9 0000 7c76 	jsr 7c76 <_ZN7GDClass8Vertex2fEss>
     cf8:	4fef 0024      	lea %sp@(36),%sp
     cfc:	2013           	movel %a3@,%d0
     cfe:	3040           	moveaw %d0,%a0
     d00:	2f48 0024      	movel %a0,%sp@(36)
     d04:	2012           	movel %a2@,%d0
     d06:	3040           	moveaw %d0,%a0
     d08:	2f48 0020      	movel %a0,%sp@(32)
     d0c:	2f7c 0002 2b5c 	movel #142172,%sp@(28)
     d12:	001c 
     d14:	4cdf 7c04      	moveml %sp@+,%d2/%a2-%fp
     d18:	4ef9 0000 7c76 	jmp 7c76 <_ZN7GDClass8Vertex2fEss>

00000d1e <gd_text>:
     d1e:	4e56 ff00      	linkw %fp,#-256
     d22:	48e7 3020      	moveml %d2-%d3/%a2,%sp@-
     d26:	246e 0010      	moveal %fp@(16),%a2
     d2a:	42ae ff00      	clrl %fp@(-256)
     d2e:	4878 00fc      	pea fc <FIXDADD>
     d32:	42a7           	clrl %sp@-
     d34:	486e ff04      	pea %fp@(-252)
     d38:	4eb9 0001 64d8 	jsr 164d8 <memset>
     d3e:	206e 0018      	moveal %fp@(24),%a0
     d42:	2410           	movel %a0@,%d2
     d44:	206e 001c      	moveal %fp@(28),%a0
     d48:	7200           	moveq #0,%d1
     d4a:	1228 0001      	moveb %a0@(1),%d1
     d4e:	4fef 000c      	lea %sp@(12),%sp
     d52:	260e           	movel %fp,%d3
     d54:	0683 ffff ff00 	addil #-256,%d3
     d5a:	4a81           	tstl %d1
     d5c:	6712           	beqs d70 <gd_text+0x52>
     d5e:	d283           	addl %d3,%d1
     d60:	2043           	moveal %d3,%a0
     d62:	9483           	subl %d3,%d2
     d64:	43f0 2800      	lea %a0@(0000000000000000,%d2:l),%a1
     d68:	1011           	moveb %a1@,%d0
     d6a:	10c0           	moveb %d0,%a0@+
     d6c:	b1c1           	cmpal %d1,%a0
     d6e:	66f4           	bnes d64 <gd_text+0x46>
     d70:	42a7           	clrl %sp@-
     d72:	4879 0002 2b5c 	pea 22b5c <GD>
     d78:	4eb9 0000 7e72 	jsr 7e72 <_ZN7GDClass12VertexFormatEh>
     d7e:	206e 0014      	moveal %fp@(20),%a0
     d82:	2f10           	movel %a0@,%sp@-
     d84:	4879 0002 2b5c 	pea 22b5c <GD>
     d8a:	4eb9 0000 717e 	jsr 717e <_ZN7GDClass8ColorRGBEm>
     d90:	2052           	moveal %a2@,%a0
     d92:	43e8 fff0      	lea %a0@(-16),%a1
     d96:	4fef 0010      	lea %sp@(16),%sp
     d9a:	700f           	moveq #15,%d0
     d9c:	b089           	cmpl %a1,%d0
     d9e:	6408           	bccs da8 <gd_text+0x8a>
     da0:	7012           	moveq #18,%d0
     da2:	2480           	movel %d0,%a2@
     da4:	307c 0012      	moveaw #18,%a0
     da8:	2f03           	movel %d3,%sp@-
     daa:	42a7           	clrl %sp@-
     dac:	2f08           	movel %a0,%sp@-
     dae:	206e 000c      	moveal %fp@(12),%a0
     db2:	2010           	movel %a0@,%d0
     db4:	3040           	moveaw %d0,%a0
     db6:	2f08           	movel %a0,%sp@-
     db8:	206e 0008      	moveal %fp@(8),%a0
     dbc:	2010           	movel %a0@,%d0
     dbe:	3040           	moveaw %d0,%a0
     dc0:	2f08           	movel %a0,%sp@-
     dc2:	4879 0002 2b5c 	pea 22b5c <GD>
     dc8:	4eb9 0000 b11c 	jsr b11c <_ZN7GDClass8cmd_textEsshtPKc>
     dce:	4fef 0018      	lea %sp@(24),%sp
     dd2:	4cee 040c fef4 	moveml %fp@(-268),%d2-%d3/%a2
     dd8:	4e5e           	unlk %fp
     dda:	4e75           	rts

00000ddc <gd_plot>:
     ddc:	48e7 2038      	moveml %d2/%a2-%a4,%sp@-
     de0:	246f 0014      	moveal %sp@(20),%a2
     de4:	266f 0018      	moveal %sp@(24),%a3
     de8:	286f 001c      	moveal %sp@(28),%a4
     dec:	206f 0024      	moveal %sp@(36),%a0
     df0:	226f 0020      	moveal %sp@(32),%a1
     df4:	2411           	movel %a1@,%d2
     df6:	e98a           	lsll #4,%d2
     df8:	7001           	moveq #1,%d0
     dfa:	b090           	cmpl %a0@,%d0
     dfc:	6756           	beqs e54 <gd_plot+0x78>
     dfe:	0282 0000 fff0 	andil #65520,%d2
     e04:	2f02           	movel %d2,%sp@-
     e06:	4879 0002 2b5c 	pea 22b5c <GD>
     e0c:	4eb9 0000 75a6 	jsr 75a6 <_ZN7GDClass9PointSizeEt>
     e12:	2f14           	movel %a4@,%sp@-
     e14:	4879 0002 2b5c 	pea 22b5c <GD>
     e1a:	4eb9 0000 717e 	jsr 717e <_ZN7GDClass8ColorRGBEm>
     e20:	42a7           	clrl %sp@-
     e22:	4879 0002 2b5c 	pea 22b5c <GD>
     e28:	4eb9 0000 7e72 	jsr 7e72 <_ZN7GDClass12VertexFormatEh>
     e2e:	4fef 0018      	lea %sp@(24),%sp
     e32:	2013           	movel %a3@,%d0
     e34:	3040           	moveaw %d0,%a0
     e36:	2f48 001c      	movel %a0,%sp@(28)
     e3a:	2012           	movel %a2@,%d0
     e3c:	3040           	moveaw %d0,%a0
     e3e:	2f48 0018      	movel %a0,%sp@(24)
     e42:	2f7c 0002 2b5c 	movel #142172,%sp@(20)
     e48:	0014 
     e4a:	4cdf 1c04      	moveml %sp@+,%d2/%a2-%a4
     e4e:	4ef9 0000 7c76 	jmp 7c76 <_ZN7GDClass8Vertex2fEss>
     e54:	4878 0002      	pea 2 <DOUBLE_FLOAT>
     e58:	4879 0002 2b5c 	pea 22b5c <GD>
     e5e:	4eb9 0000 5096 	jsr 5096 <_ZN7GDClass5BeginE9Primitive>
     e64:	508f           	addql #8,%sp
     e66:	0282 0000 fff0 	andil #65520,%d2
     e6c:	2f02           	movel %d2,%sp@-
     e6e:	4879 0002 2b5c 	pea 22b5c <GD>
     e74:	4eb9 0000 75a6 	jsr 75a6 <_ZN7GDClass9PointSizeEt>
     e7a:	2f14           	movel %a4@,%sp@-
     e7c:	4879 0002 2b5c 	pea 22b5c <GD>
     e82:	4eb9 0000 717e 	jsr 717e <_ZN7GDClass8ColorRGBEm>
     e88:	42a7           	clrl %sp@-
     e8a:	4879 0002 2b5c 	pea 22b5c <GD>
     e90:	4eb9 0000 7e72 	jsr 7e72 <_ZN7GDClass12VertexFormatEh>
     e96:	4fef 0018      	lea %sp@(24),%sp
     e9a:	2013           	movel %a3@,%d0
     e9c:	3040           	moveaw %d0,%a0
     e9e:	2f48 001c      	movel %a0,%sp@(28)
     ea2:	2012           	movel %a2@,%d0
     ea4:	3040           	moveaw %d0,%a0
     ea6:	2f48 0018      	movel %a0,%sp@(24)
     eaa:	2f7c 0002 2b5c 	movel #142172,%sp@(20)
     eb0:	0014 
     eb2:	4cdf 1c04      	moveml %sp@+,%d2/%a2-%a4
     eb6:	4ef9 0000 7c76 	jmp 7c76 <_ZN7GDClass8Vertex2fEss>

00000ebc <gd_load_bitmap>:
     ebc:	206f 0008      	moveal %sp@(8),%a0
     ec0:	2f10           	movel %a0@,%sp@-
     ec2:	2f2f 0008      	movel %sp@(8),%sp@-
     ec6:	4879 0002 2b5c 	pea 22b5c <GD>
     ecc:	4eb9 0000 3b48 	jsr 3b48 <_ZN7GDClass4copyEPKhi>
     ed2:	206f 0018      	moveal %sp@(24),%a0
     ed6:	23d0 0002 2b64 	movel %a0@,22b64 <GD+0x8>
     edc:	4fef 000c      	lea %sp@(12),%sp
     ee0:	4e75           	rts

00000ee2 <gd_load_bitmapfile>:
     ee2:	4e56 ff00      	linkw %fp,#-256
     ee6:	2f03           	movel %d3,%sp@-
     ee8:	2f02           	movel %d2,%sp@-
     eea:	42ae ff00      	clrl %fp@(-256)
     eee:	4878 00fc      	pea fc <FIXDADD>
     ef2:	42a7           	clrl %sp@-
     ef4:	486e ff04      	pea %fp@(-252)
     ef8:	4eb9 0001 64d8 	jsr 164d8 <memset>
     efe:	206e 0008      	moveal %fp@(8),%a0
     f02:	2410           	movel %a0@,%d2
     f04:	206e 000c      	moveal %fp@(12),%a0
     f08:	7200           	moveq #0,%d1
     f0a:	1228 0001      	moveb %a0@(1),%d1
     f0e:	4fef 000c      	lea %sp@(12),%sp
     f12:	260e           	movel %fp,%d3
     f14:	0683 ffff ff00 	addil #-256,%d3
     f1a:	4a81           	tstl %d1
     f1c:	6712           	beqs f30 <gd_load_bitmapfile+0x4e>
     f1e:	d283           	addl %d3,%d1
     f20:	2043           	moveal %d3,%a0
     f22:	9483           	subl %d3,%d2
     f24:	43f0 2800      	lea %a0@(0000000000000000,%d2:l),%a1
     f28:	1011           	moveb %a1@,%d0
     f2a:	10c0           	moveb %d0,%a0@+
     f2c:	b288           	cmpl %a0,%d1
     f2e:	66f4           	bnes f24 <gd_load_bitmapfile+0x42>
     f30:	2f03           	movel %d3,%sp@-
     f32:	4879 0002 2b5c 	pea 22b5c <GD>
     f38:	4eb9 0000 e0ca 	jsr e0ca <_ZN7GDClass8safeloadEPKc>
     f3e:	508f           	addql #8,%sp
     f40:	242e fef8      	movel %fp@(-264),%d2
     f44:	262e fefc      	movel %fp@(-260),%d3
     f48:	4e5e           	unlk %fp
     f4a:	4e75           	rts

00000f4c <gd_draw_bitmap>:
     f4c:	48e7 303e      	moveml %d2-%d3/%a2-%fp,%sp@-
     f50:	266f 0020      	moveal %sp@(32),%a3
     f54:	286f 0024      	moveal %sp@(36),%a4
     f58:	246f 0028      	moveal %sp@(40),%a2
     f5c:	2c6f 002c      	moveal %sp@(44),%fp
     f60:	2a6f 0030      	moveal %sp@(48),%a5
     f64:	242f 0034      	movel %sp@(52),%d2
     f68:	262f 0038      	movel %sp@(56),%d3
     f6c:	4878 0001      	pea 1 <ADD>
     f70:	4879 0002 2b5c 	pea 22b5c <GD>
     f76:	4eb9 0000 5096 	jsr 5096 <_ZN7GDClass5BeginE9Primitive>
     f7c:	7000           	moveq #0,%d0
     f7e:	4600           	notb %d0
     f80:	2043           	moveal %d3,%a0
     f82:	c090           	andl %a0@,%d0
     f84:	2f00           	movel %d0,%sp@-
     f86:	7000           	moveq #0,%d0
     f88:	4600           	notb %d0
     f8a:	2042           	moveal %d2,%a0
     f8c:	c090           	andl %a0@,%d0
     f8e:	2f00           	movel %d0,%sp@-
     f90:	4879 0002 2b5c 	pea 22b5c <GD>
     f96:	4eb9 0000 6842 	jsr 6842 <_ZN7GDClass9BlendFuncEhh>
     f9c:	7000           	moveq #0,%d0
     f9e:	4600           	notb %d0
     fa0:	c096           	andl %fp@,%d0
     fa2:	2f00           	movel %d0,%sp@-
     fa4:	4879 0002 2b5c 	pea 22b5c <GD>
     faa:	4eb9 0000 5176 	jsr 5176 <_ZN7GDClass12BitmapHandleEh>
     fb0:	4878 0003      	pea 3 <DIVIDE>
     fb4:	4879 0002 2b5c 	pea 22b5c <GD>
     fba:	4eb9 0000 7e72 	jsr 7e72 <_ZN7GDClass12VertexFormatEh>
     fc0:	4fef 0024      	lea %sp@(36),%sp
     fc4:	7000           	moveq #0,%d0
     fc6:	4600           	notb %d0
     fc8:	c095           	andl %a5@,%d0
     fca:	2f00           	movel %d0,%sp@-
     fcc:	4879 0002 2b5c 	pea 22b5c <GD>
     fd2:	4eb9 0000 69b4 	jsr 69b4 <_ZN7GDClass4CellEh>
     fd8:	508f           	addql #8,%sp
     fda:	302a 0002      	movew %a2@(2),%d0
     fde:	c1ec 0002      	mulsw %a4@(2),%d0
     fe2:	e748           	lslw #3,%d0
     fe4:	3040           	moveaw %d0,%a0
     fe6:	2f48 0028      	movel %a0,%sp@(40)
     fea:	302a 0002      	movew %a2@(2),%d0
     fee:	c1eb 0002      	mulsw %a3@(2),%d0
     ff2:	e748           	lslw #3,%d0
     ff4:	3040           	moveaw %d0,%a0
     ff6:	2f48 0024      	movel %a0,%sp@(36)
     ffa:	2f7c 0002 2b5c 	movel #142172,%sp@(32)
    1000:	0020 
    1002:	4cdf 7c0c      	moveml %sp@+,%d2-%d3/%a2-%fp
    1006:	4ef9 0000 7c76 	jmp 7c76 <_ZN7GDClass8Vertex2fEss>

0000100c <gd_mode>:
    100c:	48e7 2038      	moveml %d2/%a2-%a4,%sp@-
    1010:	286f 0014      	moveal %sp@(20),%a4
    1014:	45f9 0002 2b50 	lea 22b50 <_ZL4ASPI>,%a2
    101a:	2052           	moveal %a2@,%a0
    101c:	1010           	moveb %a0@,%d0
    101e:	0200 fffe      	andib #-2,%d0
    1022:	1080           	moveb %d0,%a0@
    1024:	2052           	moveal %a2@,%a0
    1026:	1010           	moveb %a0@,%d0
    1028:	0000 0004      	orib #4,%d0
    102c:	1080           	moveb %d0,%a0@
    102e:	4878 0041      	pea 41 <DBL_MANT_DIG+0xc>
    1032:	4879 0002 18bd 	pea 218bd <__DTOR_END__+0x65>
    1038:	47f9 0001 658c 	lea 1658c <printf>,%a3
    103e:	4e93           	jsr %a3@
    1040:	2052           	moveal %a2@,%a0
    1042:	508f           	addql #8,%sp
    1044:	1010           	moveb %a0@,%d0
    1046:	0800 0005      	btst #5,%d0
    104a:	67f8           	beqs 1044 <gd_mode+0x38>
    104c:	2079 0002 2b54 	moveal 22b54 <_ZL4ASPI+0x4>,%a0
    1052:	10bc 0041      	moveb #65,%a0@
    1056:	2052           	moveal %a2@,%a0
    1058:	1010           	moveb %a0@,%d0
    105a:	0000 0008      	orib #8,%d0
    105e:	1080           	moveb %d0,%a0@
    1060:	2052           	moveal %a2@,%a0
    1062:	1010           	moveb %a0@,%d0
    1064:	0200 fff7      	andib #-9,%d0
    1068:	1080           	moveb %d0,%a0@
    106a:	2052           	moveal %a2@,%a0
    106c:	1010           	moveb %a0@,%d0
    106e:	0800 0005      	btst #5,%d0
    1072:	67f8           	beqs 106c <gd_mode+0x60>
    1074:	42a7           	clrl %sp@-
    1076:	4879 0002 18c8 	pea 218c8 <__DTOR_END__+0x70>
    107c:	4e93           	jsr %a3@
    107e:	7000           	moveq #0,%d0
    1080:	4600           	notb %d0
    1082:	c094           	andl %a4@,%d0
    1084:	2f00           	movel %d0,%sp@-
    1086:	4879 0002 18d2 	pea 218d2 <__DTOR_END__+0x7a>
    108c:	4e93           	jsr %a3@
    108e:	2414           	movel %a4@,%d2
    1090:	7000           	moveq #0,%d0
    1092:	4600           	notb %d0
    1094:	c082           	andl %d2,%d0
    1096:	2f00           	movel %d0,%sp@-
    1098:	4879 0002 18bd 	pea 218bd <__DTOR_END__+0x65>
    109e:	4e93           	jsr %a3@
    10a0:	2052           	moveal %a2@,%a0
    10a2:	4fef 0018      	lea %sp@(24),%sp
    10a6:	1010           	moveb %a0@,%d0
    10a8:	0800 0005      	btst #5,%d0
    10ac:	67f8           	beqs 10a6 <gd_mode+0x9a>
    10ae:	2079 0002 2b54 	moveal 22b54 <_ZL4ASPI+0x4>,%a0
    10b4:	1082           	moveb %d2,%a0@
    10b6:	2052           	moveal %a2@,%a0
    10b8:	1010           	moveb %a0@,%d0
    10ba:	0000 0008      	orib #8,%d0
    10be:	1080           	moveb %d0,%a0@
    10c0:	2052           	moveal %a2@,%a0
    10c2:	1010           	moveb %a0@,%d0
    10c4:	0200 fff7      	andib #-9,%d0
    10c8:	1080           	moveb %d0,%a0@
    10ca:	2052           	moveal %a2@,%a0
    10cc:	1010           	moveb %a0@,%d0
    10ce:	0800 0005      	btst #5,%d0
    10d2:	67f8           	beqs 10cc <gd_mode+0xc0>
    10d4:	42a7           	clrl %sp@-
    10d6:	4879 0002 18c8 	pea 218c8 <__DTOR_END__+0x70>
    10dc:	4e93           	jsr %a3@
    10de:	2052           	moveal %a2@,%a0
    10e0:	1010           	moveb %a0@,%d0
    10e2:	0200 fffb      	andib #-5,%d0
    10e6:	1080           	moveb %d0,%a0@
    10e8:	2052           	moveal %a2@,%a0
    10ea:	1010           	moveb %a0@,%d0
    10ec:	0000 0001      	orib #1,%d0
    10f0:	1080           	moveb %d0,%a0@
    10f2:	508f           	addql #8,%sp
    10f4:	4cdf 1c04      	moveml %sp@+,%d2/%a2-%a4
    10f8:	4e75           	rts

000010fa <beginLine>:
    10fa:	2f0a           	movel %a2,%sp@-
    10fc:	2f02           	movel %d2,%sp@-
    10fe:	246f 000c      	moveal %sp@(12),%a2
    1102:	2412           	movel %a2@,%d2
    1104:	4878 0003      	pea 3 <DIVIDE>
    1108:	4879 0002 2b5c 	pea 22b5c <GD>
    110e:	4eb9 0000 5096 	jsr 5096 <_ZN7GDClass5BeginE9Primitive>
    1114:	42a7           	clrl %sp@-
    1116:	4879 0002 2b5c 	pea 22b5c <GD>
    111c:	4eb9 0000 7e72 	jsr 7e72 <_ZN7GDClass12VertexFormatEh>
    1122:	2f3c 00ff ffff 	movel #16777215,%sp@-
    1128:	4879 0002 2b5c 	pea 22b5c <GD>
    112e:	4eb9 0000 717e 	jsr 717e <_ZN7GDClass8ColorRGBEm>
    1134:	2002           	movel %d2,%d0
    1136:	4240           	clrw %d0
    1138:	4840           	swap %d0
    113a:	33c0 0002 2b4e 	movew %d0,22b4e <curX>
    1140:	33c2 0002 2b4c 	movew %d2,22b4c <curY>
    1146:	3042           	moveaw %d2,%a0
    1148:	2f08           	movel %a0,%sp@-
    114a:	3040           	moveaw %d0,%a0
    114c:	2f08           	movel %a0,%sp@-
    114e:	2f12           	movel %a2@,%sp@-
    1150:	4879 0002 18ee 	pea 218ee <__DTOR_END__+0x96>
    1156:	4eb9 0001 658c 	jsr 1658c <printf>
    115c:	4fef 0028      	lea %sp@(40),%sp
    1160:	241f           	movel %sp@+,%d2
    1162:	245f           	moveal %sp@+,%a2
    1164:	4e75           	rts

00001166 <addPoint>:
    1166:	48e7 3838      	moveml %d2-%d4/%a2-%a4,%sp@-
    116a:	206f 001c      	moveal %sp@(28),%a0
    116e:	2010           	movel %a0@,%d0
    1170:	3479 0002 2b4e 	moveaw 22b4e <curX>,%a2
    1176:	3679 0002 2b4c 	moveaw 22b4c <curY>,%a3
    117c:	2200           	movel %d0,%d1
    117e:	4841           	swap %d1
    1180:	e041           	asrw #8,%d1
    1182:	48c1           	extl %d1
    1184:	3800           	movew %d0,%d4
    1186:	e044           	asrw #8,%d4
    1188:	c9c1           	mulsw %d1,%d4
    118a:	1600           	moveb %d0,%d3
    118c:	4883           	extw %d3
    118e:	c7c1           	mulsw %d1,%d3
    1190:	e188           	lsll #8,%d0
    1192:	2400           	movel %d0,%d2
    1194:	4842           	swap %d2
    1196:	e042           	asrw #8,%d2
    1198:	48c2           	extl %d2
    119a:	4a82           	tstl %d2
    119c:	6600 00b0      	bnew 124e <addPoint+0xe8>
    11a0:	42a7           	clrl %sp@-
    11a2:	4879 0002 2b5c 	pea 22b5c <GD>
    11a8:	4eb9 0000 717e 	jsr 717e <_ZN7GDClass8ColorRGBEm>
    11ae:	508f           	addql #8,%sp
    11b0:	d979 0002 2b4e 	addw %d4,22b4e <curX>
    11b6:	d779 0002 2b4c 	addw %d3,22b4c <curY>
    11bc:	4878 0001      	pea 1 <ADD>
    11c0:	4878 0002      	pea 2 <DOUBLE_FLOAT>
    11c4:	4879 0002 2b5c 	pea 22b5c <GD>
    11ca:	4eb9 0000 6842 	jsr 6842 <_ZN7GDClass9BlendFuncEhh>
    11d0:	4878 00ff      	pea ff <LINKIT+0x2>
    11d4:	4879 0002 2b5c 	pea 22b5c <GD>
    11da:	4eb9 0000 6f2e 	jsr 6f2e <_ZN7GDClass6ColorAEh>
    11e0:	4878 0005      	pea 5 <COMPARE>
    11e4:	4879 0002 2b5c 	pea 22b5c <GD>
    11ea:	4eb9 0000 7442 	jsr 7442 <_ZN7GDClass9LineWidthEt>
    11f0:	364b           	moveaw %a3,%a3
    11f2:	344a           	moveaw %a2,%a2
    11f4:	2f0b           	movel %a3,%sp@-
    11f6:	2f0a           	movel %a2,%sp@-
    11f8:	4879 0002 2b5c 	pea 22b5c <GD>
    11fe:	49f9 0000 7c76 	lea 7c76 <_ZN7GDClass8Vertex2fEss>,%a4
    1204:	4e94           	jsr %a4@
    1206:	4fef 0028      	lea %sp@(40),%sp
    120a:	3079 0002 2b4c 	moveaw 22b4c <curY>,%a0
    1210:	2f08           	movel %a0,%sp@-
    1212:	3079 0002 2b4e 	moveaw 22b4e <curX>,%a0
    1218:	2f08           	movel %a0,%sp@-
    121a:	4879 0002 2b5c 	pea 22b5c <GD>
    1220:	4e94           	jsr %a4@
    1222:	3079 0002 2b4c 	moveaw 22b4c <curY>,%a0
    1228:	2f08           	movel %a0,%sp@-
    122a:	3079 0002 2b4e 	moveaw 22b4e <curX>,%a0
    1230:	2f08           	movel %a0,%sp@-
    1232:	2f0b           	movel %a3,%sp@-
    1234:	2f0a           	movel %a2,%sp@-
    1236:	2f02           	movel %d2,%sp@-
    1238:	4879 0002 18fa 	pea 218fa <__DTOR_END__+0xa2>
    123e:	4eb9 0001 658c 	jsr 1658c <printf>
    1244:	4fef 0024      	lea %sp@(36),%sp
    1248:	4cdf 1c1c      	moveml %sp@+,%d2-%d4/%a2-%a4
    124c:	4e75           	rts
    124e:	2f3c 00ff ffff 	movel #16777215,%sp@-
    1254:	4879 0002 2b5c 	pea 22b5c <GD>
    125a:	4eb9 0000 717e 	jsr 717e <_ZN7GDClass8ColorRGBEm>
    1260:	508f           	addql #8,%sp
    1262:	d979 0002 2b4e 	addw %d4,22b4e <curX>
    1268:	d779 0002 2b4c 	addw %d3,22b4c <curY>
    126e:	4878 0001      	pea 1 <ADD>
    1272:	4878 0002      	pea 2 <DOUBLE_FLOAT>
    1276:	4879 0002 2b5c 	pea 22b5c <GD>
    127c:	4eb9 0000 6842 	jsr 6842 <_ZN7GDClass9BlendFuncEhh>
    1282:	4878 00ff      	pea ff <LINKIT+0x2>
    1286:	4879 0002 2b5c 	pea 22b5c <GD>
    128c:	4eb9 0000 6f2e 	jsr 6f2e <_ZN7GDClass6ColorAEh>
    1292:	4878 0005      	pea 5 <COMPARE>
    1296:	4879 0002 2b5c 	pea 22b5c <GD>
    129c:	4eb9 0000 7442 	jsr 7442 <_ZN7GDClass9LineWidthEt>
    12a2:	364b           	moveaw %a3,%a3
    12a4:	344a           	moveaw %a2,%a2
    12a6:	2f0b           	movel %a3,%sp@-
    12a8:	2f0a           	movel %a2,%sp@-
    12aa:	4879 0002 2b5c 	pea 22b5c <GD>
    12b0:	49f9 0000 7c76 	lea 7c76 <_ZN7GDClass8Vertex2fEss>,%a4
    12b6:	4e94           	jsr %a4@
    12b8:	4fef 0028      	lea %sp@(40),%sp
    12bc:	3079 0002 2b4c 	moveaw 22b4c <curY>,%a0
    12c2:	2f08           	movel %a0,%sp@-
    12c4:	3079 0002 2b4e 	moveaw 22b4e <curX>,%a0
    12ca:	2f08           	movel %a0,%sp@-
    12cc:	4879 0002 2b5c 	pea 22b5c <GD>
    12d2:	4e94           	jsr %a4@
    12d4:	3079 0002 2b4c 	moveaw 22b4c <curY>,%a0
    12da:	2f08           	movel %a0,%sp@-
    12dc:	3079 0002 2b4e 	moveaw 22b4e <curX>,%a0
    12e2:	2f08           	movel %a0,%sp@-
    12e4:	2f0b           	movel %a3,%sp@-
    12e6:	2f0a           	movel %a2,%sp@-
    12e8:	2f02           	movel %d2,%sp@-
    12ea:	4879 0002 18fa 	pea 218fa <__DTOR_END__+0xa2>
    12f0:	4eb9 0001 658c 	jsr 1658c <printf>
    12f6:	4fef 0024      	lea %sp@(36),%sp
    12fa:	4cdf 1c1c      	moveml %sp@+,%d2-%d4/%a2-%a4
    12fe:	4e75           	rts

00001300 <_GLOBAL__sub_I_gd_begin>:
    1300:	23fc 00f4 0009 	movel #15990793,22b50 <_ZL4ASPI>
    1306:	0002 2b50 
    130a:	23fc 00f4 000b 	movel #15990795,22b54 <_ZL4ASPI+0x4>
    1310:	0002 2b54 
    1314:	23fc 00f4 000d 	movel #15990797,22b58 <_ZL4ASPI+0x8>
    131a:	0002 2b58 
    131e:	4e75           	rts

00001320 <_ZN11GDTransport10transfer_bEh.constprop.0>:
    1320:	222f 0004      	movel %sp@(4),%d1
    1324:	2079 0002 2474 	moveal 22474 <spi_ctl>,%a0
    132a:	1010           	moveb %a0@,%d0
    132c:	0800 0005      	btst #5,%d0
    1330:	67f8           	beqs 132a <_ZN11GDTransport10transfer_bEh.constprop.0+0xa>
    1332:	2079 0002 2470 	moveal 22470 <spi_data_in>,%a0
    1338:	1081           	moveb %d1,%a0@
    133a:	2079 0002 2474 	moveal 22474 <spi_ctl>,%a0
    1340:	1010           	moveb %a0@,%d0
    1342:	0000 0008      	orib #8,%d0
    1346:	1080           	moveb %d0,%a0@
    1348:	2079 0002 2474 	moveal 22474 <spi_ctl>,%a0
    134e:	1010           	moveb %a0@,%d0
    1350:	0200 fff7      	andib #-9,%d0
    1354:	1080           	moveb %d0,%a0@
    1356:	2079 0002 2474 	moveal 22474 <spi_ctl>,%a0
    135c:	1010           	moveb %a0@,%d0
    135e:	0800 0005      	btst #5,%d0
    1362:	67f8           	beqs 135c <_ZN11GDTransport10transfer_bEh.constprop.0+0x3c>
    1364:	2079 0002 246c 	moveal 2246c <spi_data_out>,%a0
    136a:	1010           	moveb %a0@,%d0
    136c:	4e75           	rts

0000136e <_ZN11GDTransport10transfer_bEh.constprop.1>:
    136e:	2079 0002 2474 	moveal 22474 <spi_ctl>,%a0
    1374:	1010           	moveb %a0@,%d0
    1376:	0800 0005      	btst #5,%d0
    137a:	67f8           	beqs 1374 <_ZN11GDTransport10transfer_bEh.constprop.1+0x6>
    137c:	2079 0002 2470 	moveal 22470 <spi_data_in>,%a0
    1382:	10bc 0000      	moveb #0,%a0@
    1386:	2079 0002 2474 	moveal 22474 <spi_ctl>,%a0
    138c:	1010           	moveb %a0@,%d0
    138e:	0000 0008      	orib #8,%d0
    1392:	1080           	moveb %d0,%a0@
    1394:	2079 0002 2474 	moveal 22474 <spi_ctl>,%a0
    139a:	1010           	moveb %a0@,%d0
    139c:	0200 fff7      	andib #-9,%d0
    13a0:	1080           	moveb %d0,%a0@
    13a2:	2079 0002 2474 	moveal 22474 <spi_ctl>,%a0
    13a8:	1010           	moveb %a0@,%d0
    13aa:	0800 0005      	btst #5,%d0
    13ae:	67f8           	beqs 13a8 <_ZN11GDTransport10transfer_bEh.constprop.1+0x3a>
    13b0:	2079 0002 246c 	moveal 2246c <spi_data_out>,%a0
    13b6:	1010           	moveb %a0@,%d0
    13b8:	4e75           	rts

000013ba <_ZN11GDTransport10transfer_bEh.constprop.2.isra.0>:
    13ba:	222f 0004      	movel %sp@(4),%d1
    13be:	2079 0002 2474 	moveal 22474 <spi_ctl>,%a0
    13c4:	1010           	moveb %a0@,%d0
    13c6:	0800 0005      	btst #5,%d0
    13ca:	67f8           	beqs 13c4 <_ZN11GDTransport10transfer_bEh.constprop.2.isra.0+0xa>
    13cc:	2079 0002 2470 	moveal 22470 <spi_data_in>,%a0
    13d2:	1081           	moveb %d1,%a0@
    13d4:	2079 0002 2474 	moveal 22474 <spi_ctl>,%a0
    13da:	1010           	moveb %a0@,%d0
    13dc:	0000 0008      	orib #8,%d0
    13e0:	1080           	moveb %d0,%a0@
    13e2:	2079 0002 2474 	moveal 22474 <spi_ctl>,%a0
    13e8:	1010           	moveb %a0@,%d0
    13ea:	0200 fff7      	andib #-9,%d0
    13ee:	1080           	moveb %d0,%a0@
    13f0:	2079 0002 2474 	moveal 22474 <spi_ctl>,%a0
    13f6:	1010           	moveb %a0@,%d0
    13f8:	0800 0005      	btst #5,%d0
    13fc:	67f8           	beqs 13f6 <_ZN11GDTransport10transfer_bEh.constprop.2.isra.0+0x3c>
    13fe:	2079 0002 246c 	moveal 2246c <spi_data_out>,%a0
    1404:	1010           	moveb %a0@,%d0
    1406:	4e75           	rts

00001408 <_ZN11GDTransport6streamEv.constprop.0>:
    1408:	2f0a           	movel %a2,%sp@-
    140a:	2f02           	movel %d2,%sp@-
    140c:	2079 0002 2474 	moveal 22474 <spi_ctl>,%a0
    1412:	1010           	moveb %a0@,%d0
    1414:	0200 fffe      	andib #-2,%d0
    1418:	1080           	moveb %d0,%a0@
    141a:	203c 0030 8000 	movel #3178496,%d0
    1420:	4a39 0002 2bb6 	tstb 22bb6 <ft8xx_model>
    1426:	6606           	bnes 142e <_ZN11GDTransport6streamEv.constprop.0+0x26>
    1428:	203c 0010 8000 	movel #1081344,%d0
    142e:	3439 0002 2bbc 	movew 22bbc <_ZL4GDTR+0x4>,%d2
    1434:	0242 0fff      	andiw #4095,%d2
    1438:	0282 0000 ffff 	andil #65535,%d2
    143e:	d480           	addl %d0,%d2
    1440:	2079 0002 2474 	moveal 22474 <spi_ctl>,%a0
    1446:	1210           	moveb %a0@,%d1
    1448:	0001 0001      	orib #1,%d1
    144c:	1081           	moveb %d1,%a0@
    144e:	4240           	clrw %d0
    1450:	4840           	swap %d0
    1452:	727f           	moveq #127,%d1
    1454:	4601           	notb %d1
    1456:	8280           	orl %d0,%d1
    1458:	2f01           	movel %d1,%sp@-
    145a:	45fa ff5e      	lea %pc@(13ba <_ZN11GDTransport10transfer_bEh.constprop.2.isra.0>),%a2
    145e:	4e92           	jsr %a2@
    1460:	3002           	movew %d2,%d0
    1462:	e048           	lsrw #8,%d0
    1464:	7200           	moveq #0,%d1
    1466:	4601           	notb %d1
    1468:	c280           	andl %d0,%d1
    146a:	2f01           	movel %d1,%sp@-
    146c:	4e92           	jsr %a2@
    146e:	7000           	moveq #0,%d0
    1470:	4600           	notb %d0
    1472:	c082           	andl %d2,%d0
    1474:	2f00           	movel %d0,%sp@-
    1476:	4e92           	jsr %a2@
    1478:	4fef 000c      	lea %sp@(12),%sp
    147c:	241f           	movel %sp@+,%d2
    147e:	245f           	moveal %sp@+,%a2
    1480:	4e75           	rts

00001482 <_ZN11GDTransport6__wr16Emj.constprop.0>:
    1482:	48e7 3020      	moveml %d2-%d3/%a2,%sp@-
    1486:	242f 0014      	movel %sp@(20),%d2
    148a:	2079 0002 2474 	moveal 22474 <spi_ctl>,%a0
    1490:	1010           	moveb %a0@,%d0
    1492:	0000 0001      	orib #1,%d0
    1496:	1080           	moveb %d0,%a0@
    1498:	262f 0010      	movel %sp@(16),%d3
    149c:	102f 0011      	moveb %sp@(17),%d0
    14a0:	0000 ff80      	orib #-128,%d0
    14a4:	0280 0000 00ff 	andil #255,%d0
    14aa:	2f00           	movel %d0,%sp@-
    14ac:	45fa ff0c      	lea %pc@(13ba <_ZN11GDTransport10transfer_bEh.constprop.2.isra.0>),%a2
    14b0:	4e92           	jsr %a2@
    14b2:	3003           	movew %d3,%d0
    14b4:	e048           	lsrw #8,%d0
    14b6:	7200           	moveq #0,%d1
    14b8:	4601           	notb %d1
    14ba:	c280           	andl %d0,%d1
    14bc:	2f01           	movel %d1,%sp@-
    14be:	4e92           	jsr %a2@
    14c0:	7000           	moveq #0,%d0
    14c2:	4600           	notb %d0
    14c4:	c083           	andl %d3,%d0
    14c6:	2f00           	movel %d0,%sp@-
    14c8:	4e92           	jsr %a2@
    14ca:	7200           	moveq #0,%d1
    14cc:	4601           	notb %d1
    14ce:	c282           	andl %d2,%d1
    14d0:	2f01           	movel %d1,%sp@-
    14d2:	45fa fe4c      	lea %pc@(1320 <_ZN11GDTransport10transfer_bEh.constprop.0>),%a2
    14d6:	4e92           	jsr %a2@
    14d8:	e04a           	lsrw #8,%d2
    14da:	7000           	moveq #0,%d0
    14dc:	4600           	notb %d0
    14de:	c082           	andl %d2,%d0
    14e0:	2f00           	movel %d0,%sp@-
    14e2:	4e92           	jsr %a2@
    14e4:	2079 0002 2474 	moveal 22474 <spi_ctl>,%a0
    14ea:	1010           	moveb %a0@,%d0
    14ec:	0200 fffe      	andib #-2,%d0
    14f0:	1080           	moveb %d0,%a0@
    14f2:	4fef 0014      	lea %sp@(20),%sp
    14f6:	4cdf 040c      	moveml %sp@+,%d2-%d3/%a2
    14fa:	4e75           	rts

000014fc <_ZN11GDTransport2wrEmh.constprop.0>:
    14fc:	48e7 3020      	moveml %d2-%d3/%a2,%sp@-
    1500:	262f 0014      	movel %sp@(20),%d3
    1504:	2079 0002 2474 	moveal 22474 <spi_ctl>,%a0
    150a:	1010           	moveb %a0@,%d0
    150c:	0200 fffe      	andib #-2,%d0
    1510:	1080           	moveb %d0,%a0@
    1512:	2079 0002 2474 	moveal 22474 <spi_ctl>,%a0
    1518:	1010           	moveb %a0@,%d0
    151a:	0000 0001      	orib #1,%d0
    151e:	1080           	moveb %d0,%a0@
    1520:	242f 0010      	movel %sp@(16),%d2
    1524:	102f 0011      	moveb %sp@(17),%d0
    1528:	0000 ff80      	orib #-128,%d0
    152c:	0280 0000 00ff 	andil #255,%d0
    1532:	2f00           	movel %d0,%sp@-
    1534:	45fa fe84      	lea %pc@(13ba <_ZN11GDTransport10transfer_bEh.constprop.2.isra.0>),%a2
    1538:	4e92           	jsr %a2@
    153a:	3002           	movew %d2,%d0
    153c:	e048           	lsrw #8,%d0
    153e:	7200           	moveq #0,%d1
    1540:	4601           	notb %d1
    1542:	c280           	andl %d0,%d1
    1544:	2f01           	movel %d1,%sp@-
    1546:	4e92           	jsr %a2@
    1548:	7000           	moveq #0,%d0
    154a:	4600           	notb %d0
    154c:	c082           	andl %d2,%d0
    154e:	2f00           	movel %d0,%sp@-
    1550:	4e92           	jsr %a2@
    1552:	7200           	moveq #0,%d1
    1554:	4601           	notb %d1
    1556:	c283           	andl %d3,%d1
    1558:	2f01           	movel %d1,%sp@-
    155a:	4eba fdc4      	jsr %pc@(1320 <_ZN11GDTransport10transfer_bEh.constprop.0>)
    155e:	2079 0002 2474 	moveal 22474 <spi_ctl>,%a0
    1564:	1010           	moveb %a0@,%d0
    1566:	0200 fffe      	andib #-2,%d0
    156a:	1080           	moveb %d0,%a0@
    156c:	4fef 0010      	lea %sp@(16),%sp
    1570:	203c 0030 8000 	movel #3178496,%d0
    1576:	4a39 0002 2bb6 	tstb 22bb6 <ft8xx_model>
    157c:	6606           	bnes 1584 <_ZN11GDTransport2wrEmh.constprop.0+0x88>
    157e:	203c 0010 8000 	movel #1081344,%d0
    1584:	3439 0002 2bbc 	movew 22bbc <_ZL4GDTR+0x4>,%d2
    158a:	0242 0fff      	andiw #4095,%d2
    158e:	0282 0000 ffff 	andil #65535,%d2
    1594:	d480           	addl %d0,%d2
    1596:	2079 0002 2474 	moveal 22474 <spi_ctl>,%a0
    159c:	1210           	moveb %a0@,%d1
    159e:	0001 0001      	orib #1,%d1
    15a2:	1081           	moveb %d1,%a0@
    15a4:	4240           	clrw %d0
    15a6:	4840           	swap %d0
    15a8:	727f           	moveq #127,%d1
    15aa:	4601           	notb %d1
    15ac:	8280           	orl %d0,%d1
    15ae:	2f01           	movel %d1,%sp@-
    15b0:	4e92           	jsr %a2@
    15b2:	3002           	movew %d2,%d0
    15b4:	e048           	lsrw #8,%d0
    15b6:	7200           	moveq #0,%d1
    15b8:	4601           	notb %d1
    15ba:	c280           	andl %d0,%d1
    15bc:	2f01           	movel %d1,%sp@-
    15be:	4e92           	jsr %a2@
    15c0:	508f           	addql #8,%sp
    15c2:	7000           	moveq #0,%d0
    15c4:	4600           	notb %d0
    15c6:	c082           	andl %d2,%d0
    15c8:	2f40 0010      	movel %d0,%sp@(16)
    15cc:	4cdf 040c      	moveml %sp@+,%d2-%d3/%a2
    15d0:	6000 fde8      	braw 13ba <_ZN11GDTransport10transfer_bEh.constprop.2.isra.0>

000015d4 <_ZN11GDTransport4wr16Emm.constprop.0>:
    15d4:	48e7 3030      	moveml %d2-%d3/%a2-%a3,%sp@-
    15d8:	242f 0018      	movel %sp@(24),%d2
    15dc:	2079 0002 2474 	moveal 22474 <spi_ctl>,%a0
    15e2:	1010           	moveb %a0@,%d0
    15e4:	0200 fffe      	andib #-2,%d0
    15e8:	1080           	moveb %d0,%a0@
    15ea:	2079 0002 2474 	moveal 22474 <spi_ctl>,%a0
    15f0:	1010           	moveb %a0@,%d0
    15f2:	0000 0001      	orib #1,%d0
    15f6:	1080           	moveb %d0,%a0@
    15f8:	262f 0014      	movel %sp@(20),%d3
    15fc:	102f 0015      	moveb %sp@(21),%d0
    1600:	0000 ff80      	orib #-128,%d0
    1604:	0280 0000 00ff 	andil #255,%d0
    160a:	2f00           	movel %d0,%sp@-
    160c:	45fa fdac      	lea %pc@(13ba <_ZN11GDTransport10transfer_bEh.constprop.2.isra.0>),%a2
    1610:	4e92           	jsr %a2@
    1612:	3003           	movew %d3,%d0
    1614:	e048           	lsrw #8,%d0
    1616:	7200           	moveq #0,%d1
    1618:	4601           	notb %d1
    161a:	c280           	andl %d0,%d1
    161c:	2f01           	movel %d1,%sp@-
    161e:	4e92           	jsr %a2@
    1620:	7000           	moveq #0,%d0
    1622:	4600           	notb %d0
    1624:	c083           	andl %d3,%d0
    1626:	2f00           	movel %d0,%sp@-
    1628:	4e92           	jsr %a2@
    162a:	7200           	moveq #0,%d1
    162c:	4601           	notb %d1
    162e:	c282           	andl %d2,%d1
    1630:	2f01           	movel %d1,%sp@-
    1632:	47fa fcec      	lea %pc@(1320 <_ZN11GDTransport10transfer_bEh.constprop.0>),%a3
    1636:	4e93           	jsr %a3@
    1638:	e08a           	lsrl #8,%d2
    163a:	7000           	moveq #0,%d0
    163c:	4600           	notb %d0
    163e:	c082           	andl %d2,%d0
    1640:	2f00           	movel %d0,%sp@-
    1642:	4e93           	jsr %a3@
    1644:	2079 0002 2474 	moveal 22474 <spi_ctl>,%a0
    164a:	1010           	moveb %a0@,%d0
    164c:	0200 fffe      	andib #-2,%d0
    1650:	1080           	moveb %d0,%a0@
    1652:	4fef 0014      	lea %sp@(20),%sp
    1656:	203c 0030 8000 	movel #3178496,%d0
    165c:	4a39 0002 2bb6 	tstb 22bb6 <ft8xx_model>
    1662:	6606           	bnes 166a <_ZN11GDTransport4wr16Emm.constprop.0+0x96>
    1664:	203c 0010 8000 	movel #1081344,%d0
    166a:	3439 0002 2bbc 	movew 22bbc <_ZL4GDTR+0x4>,%d2
    1670:	0242 0fff      	andiw #4095,%d2
    1674:	0282 0000 ffff 	andil #65535,%d2
    167a:	d480           	addl %d0,%d2
    167c:	2079 0002 2474 	moveal 22474 <spi_ctl>,%a0
    1682:	1210           	moveb %a0@,%d1
    1684:	0001 0001      	orib #1,%d1
    1688:	1081           	moveb %d1,%a0@
    168a:	4240           	clrw %d0
    168c:	4840           	swap %d0
    168e:	727f           	moveq #127,%d1
    1690:	4601           	notb %d1
    1692:	8280           	orl %d0,%d1
    1694:	2f01           	movel %d1,%sp@-
    1696:	4e92           	jsr %a2@
    1698:	3002           	movew %d2,%d0
    169a:	e048           	lsrw #8,%d0
    169c:	7200           	moveq #0,%d1
    169e:	4601           	notb %d1
    16a0:	c280           	andl %d0,%d1
    16a2:	2f01           	movel %d1,%sp@-
    16a4:	4e92           	jsr %a2@
    16a6:	508f           	addql #8,%sp
    16a8:	7000           	moveq #0,%d0
    16aa:	4600           	notb %d0
    16ac:	c082           	andl %d2,%d0
    16ae:	2f40 0014      	movel %d0,%sp@(20)
    16b2:	4cdf 0c0c      	moveml %sp@+,%d2-%d3/%a2-%a3
    16b6:	6000 fd02      	braw 13ba <_ZN11GDTransport10transfer_bEh.constprop.2.isra.0>

000016ba <_ZN11GDTransport4rd16Em.constprop.0>:
    16ba:	48e7 3030      	moveml %d2-%d3/%a2-%a3,%sp@-
    16be:	2079 0002 2474 	moveal 22474 <spi_ctl>,%a0
    16c4:	1010           	moveb %a0@,%d0
    16c6:	0200 fffe      	andib #-2,%d0
    16ca:	1080           	moveb %d0,%a0@
    16cc:	2079 0002 2474 	moveal 22474 <spi_ctl>,%a0
    16d2:	1010           	moveb %a0@,%d0
    16d4:	0000 0001      	orib #1,%d0
    16d8:	1080           	moveb %d0,%a0@
    16da:	242f 0014      	movel %sp@(20),%d2
    16de:	7000           	moveq #0,%d0
    16e0:	102f 0015      	moveb %sp@(21),%d0
    16e4:	2f00           	movel %d0,%sp@-
    16e6:	45fa fcd2      	lea %pc@(13ba <_ZN11GDTransport10transfer_bEh.constprop.2.isra.0>),%a2
    16ea:	4e92           	jsr %a2@
    16ec:	3002           	movew %d2,%d0
    16ee:	e048           	lsrw #8,%d0
    16f0:	7200           	moveq #0,%d1
    16f2:	4601           	notb %d1
    16f4:	c280           	andl %d0,%d1
    16f6:	2f01           	movel %d1,%sp@-
    16f8:	4e92           	jsr %a2@
    16fa:	7000           	moveq #0,%d0
    16fc:	4600           	notb %d0
    16fe:	c082           	andl %d2,%d0
    1700:	2f00           	movel %d0,%sp@-
    1702:	4e92           	jsr %a2@
    1704:	42a7           	clrl %sp@-
    1706:	47fa fc18      	lea %pc@(1320 <_ZN11GDTransport10transfer_bEh.constprop.0>),%a3
    170a:	4e93           	jsr %a3@
    170c:	42a7           	clrl %sp@-
    170e:	4e93           	jsr %a3@
    1710:	1600           	moveb %d0,%d3
    1712:	42a7           	clrl %sp@-
    1714:	4e93           	jsr %a3@
    1716:	e148           	lslw #8,%d0
    1718:	0243 00ff      	andiw #255,%d3
    171c:	8640           	orw %d0,%d3
    171e:	2079 0002 2474 	moveal 22474 <spi_ctl>,%a0
    1724:	1010           	moveb %a0@,%d0
    1726:	0200 fffe      	andib #-2,%d0
    172a:	1080           	moveb %d0,%a0@
    172c:	4fef 0018      	lea %sp@(24),%sp
    1730:	203c 0030 8000 	movel #3178496,%d0
    1736:	4a39 0002 2bb6 	tstb 22bb6 <ft8xx_model>
    173c:	6606           	bnes 1744 <_ZN11GDTransport4rd16Em.constprop.0+0x8a>
    173e:	203c 0010 8000 	movel #1081344,%d0
    1744:	3439 0002 2bbc 	movew 22bbc <_ZL4GDTR+0x4>,%d2
    174a:	0242 0fff      	andiw #4095,%d2
    174e:	0282 0000 ffff 	andil #65535,%d2
    1754:	d480           	addl %d0,%d2
    1756:	2079 0002 2474 	moveal 22474 <spi_ctl>,%a0
    175c:	1210           	moveb %a0@,%d1
    175e:	0001 0001      	orib #1,%d1
    1762:	1081           	moveb %d1,%a0@
    1764:	4240           	clrw %d0
    1766:	4840           	swap %d0
    1768:	727f           	moveq #127,%d1
    176a:	4601           	notb %d1
    176c:	8280           	orl %d0,%d1
    176e:	2f01           	movel %d1,%sp@-
    1770:	4e92           	jsr %a2@
    1772:	3002           	movew %d2,%d0
    1774:	e048           	lsrw #8,%d0
    1776:	7200           	moveq #0,%d1
    1778:	4601           	notb %d1
    177a:	c280           	andl %d0,%d1
    177c:	2f01           	movel %d1,%sp@-
    177e:	4e92           	jsr %a2@
    1780:	7000           	moveq #0,%d0
    1782:	4600           	notb %d0
    1784:	c082           	andl %d2,%d0
    1786:	2f00           	movel %d0,%sp@-
    1788:	4e92           	jsr %a2@
    178a:	4fef 000c      	lea %sp@(12),%sp
    178e:	3003           	movew %d3,%d0
    1790:	4cdf 0c0c      	moveml %sp@+,%d2-%d3/%a2-%a3
    1794:	4e75           	rts

00001796 <_ZN11GDTransport4rd32Em.constprop.0>:
    1796:	48e7 3030      	moveml %d2-%d3/%a2-%a3,%sp@-
    179a:	2079 0002 2474 	moveal 22474 <spi_ctl>,%a0
    17a0:	1010           	moveb %a0@,%d0
    17a2:	0200 fffe      	andib #-2,%d0
    17a6:	1080           	moveb %d0,%a0@
    17a8:	2079 0002 2474 	moveal 22474 <spi_ctl>,%a0
    17ae:	1010           	moveb %a0@,%d0
    17b0:	0000 0001      	orib #1,%d0
    17b4:	1080           	moveb %d0,%a0@
    17b6:	242f 0014      	movel %sp@(20),%d2
    17ba:	7000           	moveq #0,%d0
    17bc:	102f 0015      	moveb %sp@(21),%d0
    17c0:	2f00           	movel %d0,%sp@-
    17c2:	45fa fbf6      	lea %pc@(13ba <_ZN11GDTransport10transfer_bEh.constprop.2.isra.0>),%a2
    17c6:	4e92           	jsr %a2@
    17c8:	3002           	movew %d2,%d0
    17ca:	e048           	lsrw #8,%d0
    17cc:	7200           	moveq #0,%d1
    17ce:	4601           	notb %d1
    17d0:	c280           	andl %d0,%d1
    17d2:	2f01           	movel %d1,%sp@-
    17d4:	4e92           	jsr %a2@
    17d6:	7000           	moveq #0,%d0
    17d8:	4600           	notb %d0
    17da:	c082           	andl %d2,%d0
    17dc:	2f00           	movel %d0,%sp@-
    17de:	4e92           	jsr %a2@
    17e0:	42a7           	clrl %sp@-
    17e2:	47fa fb3c      	lea %pc@(1320 <_ZN11GDTransport10transfer_bEh.constprop.0>),%a3
    17e6:	4e93           	jsr %a3@
    17e8:	42a7           	clrl %sp@-
    17ea:	4e93           	jsr %a3@
    17ec:	1600           	moveb %d0,%d3
    17ee:	42a7           	clrl %sp@-
    17f0:	4e93           	jsr %a3@
    17f2:	1400           	moveb %d0,%d2
    17f4:	42a7           	clrl %sp@-
    17f6:	4e93           	jsr %a3@
    17f8:	0282 0000 00ff 	andil #255,%d2
    17fe:	e18a           	lsll #8,%d2
    1800:	7200           	moveq #0,%d1
    1802:	1200           	moveb %d0,%d1
    1804:	4841           	swap %d1
    1806:	4241           	clrw %d1
    1808:	8481           	orl %d1,%d2
    180a:	8403           	orb %d3,%d2
    180c:	42a7           	clrl %sp@-
    180e:	4e93           	jsr %a3@
    1810:	e148           	lslw #8,%d0
    1812:	4840           	swap %d0
    1814:	4240           	clrw %d0
    1816:	8480           	orl %d0,%d2
    1818:	2079 0002 2474 	moveal 22474 <spi_ctl>,%a0
    181e:	1010           	moveb %a0@,%d0
    1820:	0200 fffe      	andib #-2,%d0
    1824:	1080           	moveb %d0,%a0@
    1826:	4fef 0020      	lea %sp@(32),%sp
    182a:	203c 0030 8000 	movel #3178496,%d0
    1830:	4a39 0002 2bb6 	tstb 22bb6 <ft8xx_model>
    1836:	6606           	bnes 183e <_ZN11GDTransport4rd32Em.constprop.0+0xa8>
    1838:	203c 0010 8000 	movel #1081344,%d0
    183e:	3639 0002 2bbc 	movew 22bbc <_ZL4GDTR+0x4>,%d3
    1844:	0243 0fff      	andiw #4095,%d3
    1848:	0283 0000 ffff 	andil #65535,%d3
    184e:	d680           	addl %d0,%d3
    1850:	2079 0002 2474 	moveal 22474 <spi_ctl>,%a0
    1856:	1210           	moveb %a0@,%d1
    1858:	0001 0001      	orib #1,%d1
    185c:	1081           	moveb %d1,%a0@
    185e:	4240           	clrw %d0
    1860:	4840           	swap %d0
    1862:	727f           	moveq #127,%d1
    1864:	4601           	notb %d1
    1866:	8280           	orl %d0,%d1
    1868:	2f01           	movel %d1,%sp@-
    186a:	4e92           	jsr %a2@
    186c:	3003           	movew %d3,%d0
    186e:	e048           	lsrw #8,%d0
    1870:	7200           	moveq #0,%d1
    1872:	4601           	notb %d1
    1874:	c280           	andl %d0,%d1
    1876:	2f01           	movel %d1,%sp@-
    1878:	4e92           	jsr %a2@
    187a:	7000           	moveq #0,%d0
    187c:	4600           	notb %d0
    187e:	c083           	andl %d3,%d0
    1880:	2f00           	movel %d0,%sp@-
    1882:	4e92           	jsr %a2@
    1884:	4fef 000c      	lea %sp@(12),%sp
    1888:	2002           	movel %d2,%d0
    188a:	4cdf 0c0c      	moveml %sp@+,%d2-%d3/%a2-%a3
    188e:	4e75           	rts

00001890 <_ZN11GDTransport6finishEv.constprop.0>:
    1890:	48e7 3e20      	moveml %d2-%d6/%a2,%sp@-
    1894:	0279 0ffc 0002 	andiw #4092,22bbc <_ZL4GDTR+0x4>
    189a:	2bbc 
    189c:	2079 0002 2474 	moveal 22474 <spi_ctl>,%a0
    18a2:	1010           	moveb %a0@,%d0
    18a4:	0200 fffe      	andib #-2,%d0
    18a8:	1080           	moveb %d0,%a0@
    18aa:	7200           	moveq #0,%d1
    18ac:	3239 0002 2bbc 	movew 22bbc <_ZL4GDTR+0x4>,%d1
    18b2:	203c 0030 20fc 	movel #3154172,%d0
    18b8:	4a39 0002 2bb6 	tstb 22bb6 <ft8xx_model>
    18be:	6606           	bnes 18c6 <_ZN11GDTransport6finishEv.constprop.0+0x36>
    18c0:	203c 0010 24e8 	movel #1058024,%d0
    18c6:	2f01           	movel %d1,%sp@-
    18c8:	2f00           	movel %d0,%sp@-
    18ca:	4eba fbb6      	jsr %pc@(1482 <_ZN11GDTransport6__wr16Emj.constprop.0>)
    18ce:	508f           	addql #8,%sp
    18d0:	263c 0030 8000 	movel #3178496,%d3
    18d6:	283c 0010 8000 	movel #1081344,%d4
    18dc:	45f9 0001 658c 	lea 1658c <printf>,%a2
    18e2:	4a39 0002 2bb6 	tstb 22bb6 <ft8xx_model>
    18e8:	6600 0300      	bnew 1bea <_ZN11GDTransport6finishEv.constprop.0+0x35a>
    18ec:	7c10           	moveq #16,%d6
    18ee:	7a24           	moveq #36,%d5
    18f0:	72e4           	moveq #-28,%d1
    18f2:	2079 0002 2474 	moveal 22474 <spi_ctl>,%a0
    18f8:	1010           	moveb %a0@,%d0
    18fa:	0200 fffe      	andib #-2,%d0
    18fe:	1080           	moveb %d0,%a0@
    1900:	2079 0002 2474 	moveal 22474 <spi_ctl>,%a0
    1906:	1010           	moveb %a0@,%d0
    1908:	0000 0001      	orib #1,%d0
    190c:	1080           	moveb %d0,%a0@
    190e:	2079 0002 2474 	moveal 22474 <spi_ctl>,%a0
    1914:	1010           	moveb %a0@,%d0
    1916:	0800 0005      	btst #5,%d0
    191a:	67f8           	beqs 1914 <_ZN11GDTransport6finishEv.constprop.0+0x84>
    191c:	2079 0002 2470 	moveal 22470 <spi_data_in>,%a0
    1922:	1086           	moveb %d6,%a0@
    1924:	2079 0002 2474 	moveal 22474 <spi_ctl>,%a0
    192a:	1010           	moveb %a0@,%d0
    192c:	0000 0008      	orib #8,%d0
    1930:	1080           	moveb %d0,%a0@
    1932:	2079 0002 2474 	moveal 22474 <spi_ctl>,%a0
    1938:	1010           	moveb %a0@,%d0
    193a:	0200 fff7      	andib #-9,%d0
    193e:	1080           	moveb %d0,%a0@
    1940:	2079 0002 2474 	moveal 22474 <spi_ctl>,%a0
    1946:	1010           	moveb %a0@,%d0
    1948:	0800 0005      	btst #5,%d0
    194c:	67f8           	beqs 1946 <_ZN11GDTransport6finishEv.constprop.0+0xb6>
    194e:	2279 0002 246c 	moveal 2246c <spi_data_out>,%a1
    1954:	1011           	moveb %a1@,%d0
    1956:	1010           	moveb %a0@,%d0
    1958:	0800 0005      	btst #5,%d0
    195c:	67f8           	beqs 1956 <_ZN11GDTransport6finishEv.constprop.0+0xc6>
    195e:	2079 0002 2470 	moveal 22470 <spi_data_in>,%a0
    1964:	1085           	moveb %d5,%a0@
    1966:	2079 0002 2474 	moveal 22474 <spi_ctl>,%a0
    196c:	1010           	moveb %a0@,%d0
    196e:	0000 0008      	orib #8,%d0
    1972:	1080           	moveb %d0,%a0@
    1974:	2079 0002 2474 	moveal 22474 <spi_ctl>,%a0
    197a:	1010           	moveb %a0@,%d0
    197c:	0200 fff7      	andib #-9,%d0
    1980:	1080           	moveb %d0,%a0@
    1982:	2079 0002 2474 	moveal 22474 <spi_ctl>,%a0
    1988:	1010           	moveb %a0@,%d0
    198a:	0800 0005      	btst #5,%d0
    198e:	67f8           	beqs 1988 <_ZN11GDTransport6finishEv.constprop.0+0xf8>
    1990:	2279 0002 246c 	moveal 2246c <spi_data_out>,%a1
    1996:	1011           	moveb %a1@,%d0
    1998:	1010           	moveb %a0@,%d0
    199a:	0800 0005      	btst #5,%d0
    199e:	67f8           	beqs 1998 <_ZN11GDTransport6finishEv.constprop.0+0x108>
    19a0:	2079 0002 2470 	moveal 22470 <spi_data_in>,%a0
    19a6:	1081           	moveb %d1,%a0@
    19a8:	2079 0002 2474 	moveal 22474 <spi_ctl>,%a0
    19ae:	1010           	moveb %a0@,%d0
    19b0:	0000 0008      	orib #8,%d0
    19b4:	1080           	moveb %d0,%a0@
    19b6:	2079 0002 2474 	moveal 22474 <spi_ctl>,%a0
    19bc:	1010           	moveb %a0@,%d0
    19be:	0200 fff7      	andib #-9,%d0
    19c2:	1080           	moveb %d0,%a0@
    19c4:	2079 0002 2474 	moveal 22474 <spi_ctl>,%a0
    19ca:	1010           	moveb %a0@,%d0
    19cc:	0800 0005      	btst #5,%d0
    19d0:	67f8           	beqs 19ca <_ZN11GDTransport6finishEv.constprop.0+0x13a>
    19d2:	2279 0002 246c 	moveal 2246c <spi_data_out>,%a1
    19d8:	1011           	moveb %a1@,%d0
    19da:	1010           	moveb %a0@,%d0
    19dc:	0800 0005      	btst #5,%d0
    19e0:	67f8           	beqs 19da <_ZN11GDTransport6finishEv.constprop.0+0x14a>
    19e2:	2079 0002 2470 	moveal 22470 <spi_data_in>,%a0
    19e8:	10bc 0000      	moveb #0,%a0@
    19ec:	2079 0002 2474 	moveal 22474 <spi_ctl>,%a0
    19f2:	1010           	moveb %a0@,%d0
    19f4:	0000 0008      	orib #8,%d0
    19f8:	1080           	moveb %d0,%a0@
    19fa:	2079 0002 2474 	moveal 22474 <spi_ctl>,%a0
    1a00:	1010           	moveb %a0@,%d0
    1a02:	0200 fff7      	andib #-9,%d0
    1a06:	1080           	moveb %d0,%a0@
    1a08:	2079 0002 2474 	moveal 22474 <spi_ctl>,%a0
    1a0e:	1010           	moveb %a0@,%d0
    1a10:	0800 0005      	btst #5,%d0
    1a14:	67f8           	beqs 1a0e <_ZN11GDTransport6finishEv.constprop.0+0x17e>
    1a16:	2279 0002 246c 	moveal 2246c <spi_data_out>,%a1
    1a1c:	1011           	moveb %a1@,%d0
    1a1e:	1010           	moveb %a0@,%d0
    1a20:	0800 0005      	btst #5,%d0
    1a24:	67f8           	beqs 1a1e <_ZN11GDTransport6finishEv.constprop.0+0x18e>
    1a26:	2079 0002 2470 	moveal 22470 <spi_data_in>,%a0
    1a2c:	10bc 0000      	moveb #0,%a0@
    1a30:	2079 0002 2474 	moveal 22474 <spi_ctl>,%a0
    1a36:	1010           	moveb %a0@,%d0
    1a38:	0000 0008      	orib #8,%d0
    1a3c:	1080           	moveb %d0,%a0@
    1a3e:	2079 0002 2474 	moveal 22474 <spi_ctl>,%a0
    1a44:	1010           	moveb %a0@,%d0
    1a46:	0200 fff7      	andib #-9,%d0
    1a4a:	1080           	moveb %d0,%a0@
    1a4c:	2079 0002 2474 	moveal 22474 <spi_ctl>,%a0
    1a52:	1010           	moveb %a0@,%d0
    1a54:	0800 0005      	btst #5,%d0
    1a58:	67f8           	beqs 1a52 <_ZN11GDTransport6finishEv.constprop.0+0x1c2>
    1a5a:	2279 0002 246c 	moveal 2246c <spi_data_out>,%a1
    1a60:	1211           	moveb %a1@,%d1
    1a62:	1010           	moveb %a0@,%d0
    1a64:	0800 0005      	btst #5,%d0
    1a68:	67f8           	beqs 1a62 <_ZN11GDTransport6finishEv.constprop.0+0x1d2>
    1a6a:	2079 0002 2470 	moveal 22470 <spi_data_in>,%a0
    1a70:	10bc 0000      	moveb #0,%a0@
    1a74:	2079 0002 2474 	moveal 22474 <spi_ctl>,%a0
    1a7a:	1010           	moveb %a0@,%d0
    1a7c:	0000 0008      	orib #8,%d0
    1a80:	1080           	moveb %d0,%a0@
    1a82:	2079 0002 2474 	moveal 22474 <spi_ctl>,%a0
    1a88:	1010           	moveb %a0@,%d0
    1a8a:	0200 fff7      	andib #-9,%d0
    1a8e:	1080           	moveb %d0,%a0@
    1a90:	2079 0002 2474 	moveal 22474 <spi_ctl>,%a0
    1a96:	1010           	moveb %a0@,%d0
    1a98:	0800 0005      	btst #5,%d0
    1a9c:	67f8           	beqs 1a96 <_ZN11GDTransport6finishEv.constprop.0+0x206>
    1a9e:	2279 0002 246c 	moveal 2246c <spi_data_out>,%a1
    1aa4:	1a11           	moveb %a1@,%d5
    1aa6:	e14d           	lslw #8,%d5
    1aa8:	0241 00ff      	andiw #255,%d1
    1aac:	8a41           	orw %d1,%d5
    1aae:	1010           	moveb %a0@,%d0
    1ab0:	0200 fffe      	andib #-2,%d0
    1ab4:	1080           	moveb %d0,%a0@
    1ab6:	2003           	movel %d3,%d0
    1ab8:	4a39 0002 2bb6 	tstb 22bb6 <ft8xx_model>
    1abe:	6602           	bnes 1ac2 <_ZN11GDTransport6finishEv.constprop.0+0x232>
    1ac0:	2004           	movel %d4,%d0
    1ac2:	3239 0002 2bbc 	movew 22bbc <_ZL4GDTR+0x4>,%d1
    1ac8:	0241 0fff      	andiw #4095,%d1
    1acc:	0281 0000 ffff 	andil #65535,%d1
    1ad2:	d280           	addl %d0,%d1
    1ad4:	2079 0002 2474 	moveal 22474 <spi_ctl>,%a0
    1ada:	1c10           	moveb %a0@,%d6
    1adc:	0006 0001      	orib #1,%d6
    1ae0:	1086           	moveb %d6,%a0@
    1ae2:	4240           	clrw %d0
    1ae4:	4840           	swap %d0
    1ae6:	1c00           	moveb %d0,%d6
    1ae8:	0006 ff80      	orib #-128,%d6
    1aec:	2079 0002 2474 	moveal 22474 <spi_ctl>,%a0
    1af2:	1010           	moveb %a0@,%d0
    1af4:	0800 0005      	btst #5,%d0
    1af8:	67f8           	beqs 1af2 <_ZN11GDTransport6finishEv.constprop.0+0x262>
    1afa:	2079 0002 2470 	moveal 22470 <spi_data_in>,%a0
    1b00:	1086           	moveb %d6,%a0@
    1b02:	2079 0002 2474 	moveal 22474 <spi_ctl>,%a0
    1b08:	1010           	moveb %a0@,%d0
    1b0a:	0000 0008      	orib #8,%d0
    1b0e:	1080           	moveb %d0,%a0@
    1b10:	2079 0002 2474 	moveal 22474 <spi_ctl>,%a0
    1b16:	1010           	moveb %a0@,%d0
    1b18:	0200 fff7      	andib #-9,%d0
    1b1c:	1080           	moveb %d0,%a0@
    1b1e:	2079 0002 2474 	moveal 22474 <spi_ctl>,%a0
    1b24:	1010           	moveb %a0@,%d0
    1b26:	0800 0005      	btst #5,%d0
    1b2a:	67f8           	beqs 1b24 <_ZN11GDTransport6finishEv.constprop.0+0x294>
    1b2c:	2279 0002 246c 	moveal 2246c <spi_data_out>,%a1
    1b32:	1011           	moveb %a1@,%d0
    1b34:	3c01           	movew %d1,%d6
    1b36:	e04e           	lsrw #8,%d6
    1b38:	1010           	moveb %a0@,%d0
    1b3a:	0800 0005      	btst #5,%d0
    1b3e:	67f8           	beqs 1b38 <_ZN11GDTransport6finishEv.constprop.0+0x2a8>
    1b40:	2079 0002 2470 	moveal 22470 <spi_data_in>,%a0
    1b46:	1086           	moveb %d6,%a0@
    1b48:	2079 0002 2474 	moveal 22474 <spi_ctl>,%a0
    1b4e:	1010           	moveb %a0@,%d0
    1b50:	0000 0008      	orib #8,%d0
    1b54:	1080           	moveb %d0,%a0@
    1b56:	2079 0002 2474 	moveal 22474 <spi_ctl>,%a0
    1b5c:	1010           	moveb %a0@,%d0
    1b5e:	0200 fff7      	andib #-9,%d0
    1b62:	1080           	moveb %d0,%a0@
    1b64:	2079 0002 2474 	moveal 22474 <spi_ctl>,%a0
    1b6a:	1010           	moveb %a0@,%d0
    1b6c:	0800 0005      	btst #5,%d0
    1b70:	67f8           	beqs 1b6a <_ZN11GDTransport6finishEv.constprop.0+0x2da>
    1b72:	2279 0002 246c 	moveal 2246c <spi_data_out>,%a1
    1b78:	1011           	moveb %a1@,%d0
    1b7a:	1010           	moveb %a0@,%d0
    1b7c:	0800 0005      	btst #5,%d0
    1b80:	67f8           	beqs 1b7a <_ZN11GDTransport6finishEv.constprop.0+0x2ea>
    1b82:	2079 0002 2470 	moveal 22470 <spi_data_in>,%a0
    1b88:	1081           	moveb %d1,%a0@
    1b8a:	2079 0002 2474 	moveal 22474 <spi_ctl>,%a0
    1b90:	1010           	moveb %a0@,%d0
    1b92:	0000 0008      	orib #8,%d0
    1b96:	1080           	moveb %d0,%a0@
    1b98:	2079 0002 2474 	moveal 22474 <spi_ctl>,%a0
    1b9e:	1010           	moveb %a0@,%d0
    1ba0:	0200 fff7      	andib #-9,%d0
    1ba4:	1080           	moveb %d0,%a0@
    1ba6:	2079 0002 2474 	moveal 22474 <spi_ctl>,%a0
    1bac:	1010           	moveb %a0@,%d0
    1bae:	0800 0005      	btst #5,%d0
    1bb2:	67f8           	beqs 1bac <_ZN11GDTransport6finishEv.constprop.0+0x31c>
    1bb4:	2079 0002 246c 	moveal 2246c <spi_data_out>,%a0
    1bba:	1010           	moveb %a0@,%d0
    1bbc:	0c45 0fff      	cmpiw #4095,%d5
    1bc0:	6754           	beqs 1c16 <_ZN11GDTransport6finishEv.constprop.0+0x386>
    1bc2:	ba79 0002 2bbc 	cmpw 22bbc <_ZL4GDTR+0x4>,%d5
    1bc8:	6762           	beqs 1c2c <_ZN11GDTransport6finishEv.constprop.0+0x39c>
    1bca:	4a82           	tstl %d2
    1bcc:	6e00 fd14      	bgtw 18e2 <_ZN11GDTransport6finishEv.constprop.0+0x52>
    1bd0:	4e71           	nop
    1bd2:	5282           	addql #1,%d2
    1bd4:	7001           	moveq #1,%d0
    1bd6:	b082           	cmpl %d2,%d0
    1bd8:	6700 fd08      	beqw 18e2 <_ZN11GDTransport6finishEv.constprop.0+0x52>
    1bdc:	4e71           	nop
    1bde:	5282           	addql #1,%d2
    1be0:	7001           	moveq #1,%d0
    1be2:	b082           	cmpl %d2,%d0
    1be4:	66ea           	bnes 1bd0 <_ZN11GDTransport6finishEv.constprop.0+0x340>
    1be6:	6000 fcfa      	braw 18e2 <_ZN11GDTransport6finishEv.constprop.0+0x52>
    1bea:	7c30           	moveq #48,%d6
    1bec:	7a20           	moveq #32,%d5
    1bee:	72f8           	moveq #-8,%d1
    1bf0:	2079 0002 2474 	moveal 22474 <spi_ctl>,%a0
    1bf6:	1010           	moveb %a0@,%d0
    1bf8:	0200 fffe      	andib #-2,%d0
    1bfc:	1080           	moveb %d0,%a0@
    1bfe:	2079 0002 2474 	moveal 22474 <spi_ctl>,%a0
    1c04:	1010           	moveb %a0@,%d0
    1c06:	0000 0001      	orib #1,%d0
    1c0a:	1080           	moveb %d0,%a0@
    1c0c:	2079 0002 2474 	moveal 22474 <spi_ctl>,%a0
    1c12:	6000 fd00      	braw 1914 <_ZN11GDTransport6finishEv.constprop.0+0x84>
    1c16:	4878 0fff      	pea fff <gd_draw_bitmap+0xb3>
    1c1a:	4879 0002 1896 	pea 21896 <__DTOR_END__+0x3e>
    1c20:	4e92           	jsr %a2@
    1c22:	508f           	addql #8,%sp
    1c24:	ba79 0002 2bbc 	cmpw 22bbc <_ZL4GDTR+0x4>,%d5
    1c2a:	669e           	bnes 1bca <_ZN11GDTransport6finishEv.constprop.0+0x33a>
    1c2c:	4cdf 047c      	moveml %sp@+,%d2-%d6/%a2
    1c30:	6000 f7d6      	braw 1408 <_ZN11GDTransport6streamEv.constprop.0>

00001c34 <_ZN11GDTransport8__wstartEm.isra.0>:
    1c34:	2f02           	movel %d2,%sp@-
    1c36:	2079 0002 2474 	moveal 22474 <spi_ctl>,%a0
    1c3c:	1010           	moveb %a0@,%d0
    1c3e:	0000 0001      	orib #1,%d0
    1c42:	1080           	moveb %d0,%a0@
    1c44:	242f 0008      	movel %sp@(8),%d2
    1c48:	102f 0009      	moveb %sp@(9),%d0
    1c4c:	0000 ff80      	orib #-128,%d0
    1c50:	0280 0000 00ff 	andil #255,%d0
    1c56:	2f00           	movel %d0,%sp@-
    1c58:	4eba f760      	jsr %pc@(13ba <_ZN11GDTransport10transfer_bEh.constprop.2.isra.0>)
    1c5c:	3202           	movew %d2,%d1
    1c5e:	e049           	lsrw #8,%d1
    1c60:	2079 0002 2474 	moveal 22474 <spi_ctl>,%a0
    1c66:	588f           	addql #4,%sp
    1c68:	1010           	moveb %a0@,%d0
    1c6a:	0800 0005      	btst #5,%d0
    1c6e:	67f8           	beqs 1c68 <_ZN11GDTransport8__wstartEm.isra.0+0x34>
    1c70:	2079 0002 2470 	moveal 22470 <spi_data_in>,%a0
    1c76:	1081           	moveb %d1,%a0@
    1c78:	2079 0002 2474 	moveal 22474 <spi_ctl>,%a0
    1c7e:	1010           	moveb %a0@,%d0
    1c80:	0000 0008      	orib #8,%d0
    1c84:	1080           	moveb %d0,%a0@
    1c86:	2079 0002 2474 	moveal 22474 <spi_ctl>,%a0
    1c8c:	1010           	moveb %a0@,%d0
    1c8e:	0200 fff7      	andib #-9,%d0
    1c92:	1080           	moveb %d0,%a0@
    1c94:	2079 0002 2474 	moveal 22474 <spi_ctl>,%a0
    1c9a:	1010           	moveb %a0@,%d0
    1c9c:	0800 0005      	btst #5,%d0
    1ca0:	67f8           	beqs 1c9a <_ZN11GDTransport8__wstartEm.isra.0+0x66>
    1ca2:	2079 0002 246c 	moveal 2246c <spi_data_out>,%a0
    1ca8:	1010           	moveb %a0@,%d0
    1caa:	7000           	moveq #0,%d0
    1cac:	4600           	notb %d0
    1cae:	c082           	andl %d2,%d0
    1cb0:	2f40 0008      	movel %d0,%sp@(8)
    1cb4:	241f           	movel %sp@+,%d2
    1cb6:	6000 f702      	braw 13ba <_ZN11GDTransport10transfer_bEh.constprop.2.isra.0>

00001cba <_Z7lowBytet>:
    1cba:	102f 0007      	moveb %sp@(7),%d0
    1cbe:	4e75           	rts

00001cc0 <_Z8highBytet>:
    1cc0:	102f 0006      	moveb %sp@(6),%d0
    1cc4:	4e75           	rts

00001cc6 <_ZN11GDTransport5cmd32Em.constprop.0>:
    1cc6:	2f0a           	movel %a2,%sp@-
    1cc8:	2f02           	movel %d2,%sp@-
    1cca:	242f 000c      	movel %sp@(12),%d2
    1cce:	3039 0002 2bbe 	movew 22bbe <_ZL4GDTR+0x6>,%d0
    1cd4:	0c40 0003      	cmpiw #3,%d0
    1cd8:	6350           	blss 1d2a <_ZN11GDTransport5cmd32Em.constprop.0+0x64>
    1cda:	5879 0002 2bbc 	addqw #4,22bbc <_ZL4GDTR+0x4>
    1ce0:	5940           	subqw #4,%d0
    1ce2:	33c0 0002 2bbe 	movew %d0,22bbe <_ZL4GDTR+0x6>
    1ce8:	7000           	moveq #0,%d0
    1cea:	4600           	notb %d0
    1cec:	c082           	andl %d2,%d0
    1cee:	2f00           	movel %d0,%sp@-
    1cf0:	45fa f62e      	lea %pc@(1320 <_ZN11GDTransport10transfer_bEh.constprop.0>),%a2
    1cf4:	4e92           	jsr %a2@
    1cf6:	2002           	movel %d2,%d0
    1cf8:	e088           	lsrl #8,%d0
    1cfa:	7200           	moveq #0,%d1
    1cfc:	4601           	notb %d1
    1cfe:	c280           	andl %d0,%d1
    1d00:	2f01           	movel %d1,%sp@-
    1d02:	4e92           	jsr %a2@
    1d04:	2002           	movel %d2,%d0
    1d06:	4240           	clrw %d0
    1d08:	4840           	swap %d0
    1d0a:	7200           	moveq #0,%d1
    1d0c:	4601           	notb %d1
    1d0e:	c280           	andl %d0,%d1
    1d10:	2f01           	movel %d1,%sp@-
    1d12:	4e92           	jsr %a2@
    1d14:	4fef 000c      	lea %sp@(12),%sp
    1d18:	4242           	clrw %d2
    1d1a:	4842           	swap %d2
    1d1c:	e04a           	lsrw #8,%d2
    1d1e:	2f42 000c      	movel %d2,%sp@(12)
    1d22:	241f           	movel %sp@+,%d2
    1d24:	245f           	moveal %sp@+,%a2
    1d26:	6000 f5f8      	braw 1320 <_ZN11GDTransport10transfer_bEh.constprop.0>
    1d2a:	4878 0004      	pea 4 <NEGATE>
    1d2e:	4879 0002 2bb8 	pea 22bb8 <_ZL4GDTR>
    1d34:	4eb9 0000 ea30 	jsr ea30 <_ZN11GDTransport7getfreeEt>
    1d3a:	3039 0002 2bbe 	movew 22bbe <_ZL4GDTR+0x6>,%d0
    1d40:	508f           	addql #8,%sp
    1d42:	5879 0002 2bbc 	addqw #4,22bbc <_ZL4GDTR+0x4>
    1d48:	5940           	subqw #4,%d0
    1d4a:	33c0 0002 2bbe 	movew %d0,22bbe <_ZL4GDTR+0x6>
    1d50:	7000           	moveq #0,%d0
    1d52:	4600           	notb %d0
    1d54:	c082           	andl %d2,%d0
    1d56:	2f00           	movel %d0,%sp@-
    1d58:	45fa f5c6      	lea %pc@(1320 <_ZN11GDTransport10transfer_bEh.constprop.0>),%a2
    1d5c:	4e92           	jsr %a2@
    1d5e:	2002           	movel %d2,%d0
    1d60:	e088           	lsrl #8,%d0
    1d62:	7200           	moveq #0,%d1
    1d64:	4601           	notb %d1
    1d66:	c280           	andl %d0,%d1
    1d68:	2f01           	movel %d1,%sp@-
    1d6a:	4e92           	jsr %a2@
    1d6c:	2002           	movel %d2,%d0
    1d6e:	4240           	clrw %d0
    1d70:	4840           	swap %d0
    1d72:	7200           	moveq #0,%d1
    1d74:	4601           	notb %d1
    1d76:	c280           	andl %d0,%d1
    1d78:	2f01           	movel %d1,%sp@-
    1d7a:	4e92           	jsr %a2@
    1d7c:	4fef 000c      	lea %sp@(12),%sp
    1d80:	4242           	clrw %d2
    1d82:	4842           	swap %d2
    1d84:	e04a           	lsrw #8,%d2
    1d86:	2f42 000c      	movel %d2,%sp@(12)
    1d8a:	241f           	movel %sp@+,%d2
    1d8c:	245f           	moveal %sp@+,%a2
    1d8e:	6000 f590      	braw 1320 <_ZN11GDTransport10transfer_bEh.constprop.0>

00001d92 <_ZN7GDClass12cmd_regwriteEmm.constprop.0>:
    1d92:	48e7 3820      	moveml %d2-%d4/%a2,%sp@-
    1d96:	262f 0014      	movel %sp@(20),%d3
    1d9a:	242f 0018      	movel %sp@(24),%d2
    1d9e:	283c 0002 2bb8 	movel #142264,%d4
    1da4:	3039 0002 2bbe 	movew 22bbe <_ZL4GDTR+0x6>,%d0
    1daa:	0c40 0003      	cmpiw #3,%d0
    1dae:	6300 00b6      	blsw 1e66 <_ZN7GDClass12cmd_regwriteEmm.constprop.0+0xd4>
    1db2:	5879 0002 2bbc 	addqw #4,22bbc <_ZL4GDTR+0x4>
    1db8:	5940           	subqw #4,%d0
    1dba:	33c0 0002 2bbe 	movew %d0,22bbe <_ZL4GDTR+0x6>
    1dc0:	4878 001a      	pea 1a <OPER2+0x6>
    1dc4:	45fa f55a      	lea %pc@(1320 <_ZN11GDTransport10transfer_bEh.constprop.0>),%a2
    1dc8:	4e92           	jsr %a2@
    1dca:	4878 00ff      	pea ff <LINKIT+0x2>
    1dce:	4e92           	jsr %a2@
    1dd0:	4878 00ff      	pea ff <LINKIT+0x2>
    1dd4:	4e92           	jsr %a2@
    1dd6:	4878 00ff      	pea ff <LINKIT+0x2>
    1dda:	4e92           	jsr %a2@
    1ddc:	2f03           	movel %d3,%sp@-
    1dde:	4eba fee6      	jsr %pc@(1cc6 <_ZN11GDTransport5cmd32Em.constprop.0>)
    1de2:	3039 0002 2bbe 	movew 22bbe <_ZL4GDTR+0x6>,%d0
    1de8:	4fef 0014      	lea %sp@(20),%sp
    1dec:	0c40 0003      	cmpiw #3,%d0
    1df0:	6330           	blss 1e22 <_ZN7GDClass12cmd_regwriteEmm.constprop.0+0x90>
    1df2:	5879 0002 2bbc 	addqw #4,22bbc <_ZL4GDTR+0x4>
    1df8:	5940           	subqw #4,%d0
    1dfa:	33c0 0002 2bbe 	movew %d0,22bbe <_ZL4GDTR+0x6>
    1e00:	4878 0004      	pea 4 <NEGATE>
    1e04:	4e92           	jsr %a2@
    1e06:	42a7           	clrl %sp@-
    1e08:	4e92           	jsr %a2@
    1e0a:	42a7           	clrl %sp@-
    1e0c:	4e92           	jsr %a2@
    1e0e:	42a7           	clrl %sp@-
    1e10:	4e92           	jsr %a2@
    1e12:	4fef 0010      	lea %sp@(16),%sp
    1e16:	2f42 0014      	movel %d2,%sp@(20)
    1e1a:	4cdf 041c      	moveml %sp@+,%d2-%d4/%a2
    1e1e:	6000 fea6      	braw 1cc6 <_ZN11GDTransport5cmd32Em.constprop.0>
    1e22:	4878 0004      	pea 4 <NEGATE>
    1e26:	2f04           	movel %d4,%sp@-
    1e28:	4eb9 0000 ea30 	jsr ea30 <_ZN11GDTransport7getfreeEt>
    1e2e:	3039 0002 2bbe 	movew 22bbe <_ZL4GDTR+0x6>,%d0
    1e34:	508f           	addql #8,%sp
    1e36:	5879 0002 2bbc 	addqw #4,22bbc <_ZL4GDTR+0x4>
    1e3c:	5940           	subqw #4,%d0
    1e3e:	33c0 0002 2bbe 	movew %d0,22bbe <_ZL4GDTR+0x6>
    1e44:	4878 0004      	pea 4 <NEGATE>
    1e48:	4e92           	jsr %a2@
    1e4a:	42a7           	clrl %sp@-
    1e4c:	4e92           	jsr %a2@
    1e4e:	42a7           	clrl %sp@-
    1e50:	4e92           	jsr %a2@
    1e52:	42a7           	clrl %sp@-
    1e54:	4e92           	jsr %a2@
    1e56:	4fef 0010      	lea %sp@(16),%sp
    1e5a:	2f42 0014      	movel %d2,%sp@(20)
    1e5e:	4cdf 041c      	moveml %sp@+,%d2-%d4/%a2
    1e62:	6000 fe62      	braw 1cc6 <_ZN11GDTransport5cmd32Em.constprop.0>
    1e66:	4878 0004      	pea 4 <NEGATE>
    1e6a:	2f04           	movel %d4,%sp@-
    1e6c:	4eb9 0000 ea30 	jsr ea30 <_ZN11GDTransport7getfreeEt>
    1e72:	3039 0002 2bbe 	movew 22bbe <_ZL4GDTR+0x6>,%d0
    1e78:	508f           	addql #8,%sp
    1e7a:	5879 0002 2bbc 	addqw #4,22bbc <_ZL4GDTR+0x4>
    1e80:	5940           	subqw #4,%d0
    1e82:	33c0 0002 2bbe 	movew %d0,22bbe <_ZL4GDTR+0x6>
    1e88:	4878 001a      	pea 1a <OPER2+0x6>
    1e8c:	45fa f492      	lea %pc@(1320 <_ZN11GDTransport10transfer_bEh.constprop.0>),%a2
    1e90:	4e92           	jsr %a2@
    1e92:	4878 00ff      	pea ff <LINKIT+0x2>
    1e96:	4e92           	jsr %a2@
    1e98:	4878 00ff      	pea ff <LINKIT+0x2>
    1e9c:	4e92           	jsr %a2@
    1e9e:	4878 00ff      	pea ff <LINKIT+0x2>
    1ea2:	4e92           	jsr %a2@
    1ea4:	2f03           	movel %d3,%sp@-
    1ea6:	4eba fe1e      	jsr %pc@(1cc6 <_ZN11GDTransport5cmd32Em.constprop.0>)
    1eaa:	3039 0002 2bbe 	movew 22bbe <_ZL4GDTR+0x6>,%d0
    1eb0:	4fef 0014      	lea %sp@(20),%sp
    1eb4:	0c40 0003      	cmpiw #3,%d0
    1eb8:	6200 ff38      	bhiw 1df2 <_ZN7GDClass12cmd_regwriteEmm.constprop.0+0x60>
    1ebc:	6000 ff64      	braw 1e22 <_ZN7GDClass12cmd_regwriteEmm.constprop.0+0x90>

00001ec0 <_Z5delayi>:
    1ec0:	222f 0004      	movel %sp@(4),%d1
    1ec4:	7000           	moveq #0,%d0
    1ec6:	b280           	cmpl %d0,%d1
    1ec8:	6f08           	bles 1ed2 <_Z5delayi+0x12>
    1eca:	4e71           	nop
    1ecc:	5280           	addql #1,%d0
    1ece:	b081           	cmpl %d1,%d0
    1ed0:	66f8           	bnes 1eca <_Z5delayi+0xa>
    1ed2:	4e75           	rts

00001ed4 <_ZN2xy3setEii>:
    1ed4:	206f 0004      	moveal %sp@(4),%a0
    1ed8:	20af 0008      	movel %sp@(8),%a0@
    1edc:	216f 000c 0004 	movel %sp@(12),%a0@(4)
    1ee2:	4e75           	rts

00001ee4 <_ZN2xy5rmoveEii>:
    1ee4:	48e7 303c      	moveml %d2-%d3/%a2-%a5,%sp@-
    1ee8:	246f 001c      	moveal %sp@(28),%a2
    1eec:	242f 0024      	movel %sp@(36),%d2
    1ef0:	3602           	movew %d2,%d3
    1ef2:	ec4b           	lsrw #6,%d3
    1ef4:	2003           	movel %d3,%d0
    1ef6:	0280 0000 01ff 	andil #511,%d0
    1efc:	0803 0008      	btst #8,%d3
    1f00:	670a           	beqs 1f0c <_ZN2xy5rmoveEii+0x28>
    1f02:	223c 0000 0200 	movel #512,%d1
    1f08:	9280           	subl %d0,%d1
    1f0a:	2001           	movel %d1,%d0
    1f0c:	386f 0022      	moveaw %sp@(34),%a4
    1f10:	47f9 0002 1a52 	lea 21a52 <_ZL6sintab>,%a3
    1f16:	d080           	addl %d0,%d0
    1f18:	3033 0800      	movew %a3@(0000000000000000,%d0:l),%d0
    1f1c:	0280 0000 ffff 	andil #65535,%d0
    1f22:	4bf9 0001 fce4 	lea 1fce4 <__mulsi3>,%a5
    1f28:	2f0c           	movel %a4,%sp@-
    1f2a:	2f00           	movel %d0,%sp@-
    1f2c:	4e95           	jsr %a5@
    1f2e:	508f           	addql #8,%sp
    1f30:	4240           	clrw %d0
    1f32:	4840           	swap %d0
    1f34:	0803 0009      	btst #9,%d3
    1f38:	6702           	beqs 1f3c <_ZN2xy5rmoveEii+0x58>
    1f3a:	4440           	negw %d0
    1f3c:	2052           	moveal %a2@,%a0
    1f3e:	90c0           	subaw %d0,%a0
    1f40:	2488           	movel %a0,%a2@
    1f42:	0642 4000      	addiw #16384,%d2
    1f46:	ec4a           	lsrw #6,%d2
    1f48:	2002           	movel %d2,%d0
    1f4a:	0280 0000 01ff 	andil #511,%d0
    1f50:	0802 0008      	btst #8,%d2
    1f54:	670a           	beqs 1f60 <_ZN2xy5rmoveEii+0x7c>
    1f56:	223c 0000 0200 	movel #512,%d1
    1f5c:	9280           	subl %d0,%d1
    1f5e:	2001           	movel %d1,%d0
    1f60:	d080           	addl %d0,%d0
    1f62:	3033 0800      	movew %a3@(0000000000000000,%d0:l),%d0
    1f66:	0280 0000 ffff 	andil #65535,%d0
    1f6c:	2f0c           	movel %a4,%sp@-
    1f6e:	2f00           	movel %d0,%sp@-
    1f70:	4e95           	jsr %a5@
    1f72:	508f           	addql #8,%sp
    1f74:	4240           	clrw %d0
    1f76:	4840           	swap %d0
    1f78:	0802 0009      	btst #9,%d2
    1f7c:	6702           	beqs 1f80 <_ZN2xy5rmoveEii+0x9c>
    1f7e:	4440           	negw %d0
    1f80:	48c0           	extl %d0
    1f82:	d1aa 0004      	addl %d0,%a2@(4)
    1f86:	4cdf 3c0c      	moveml %sp@+,%d2-%d3/%a2-%a5
    1f8a:	4e75           	rts

00001f8c <_ZN2xy7angletoERS_>:
    1f8c:	48e7 3800      	moveml %d2-%d4,%sp@-
    1f90:	206f 0010      	moveal %sp@(16),%a0
    1f94:	226f 0014      	moveal %sp@(20),%a1
    1f98:	2611           	movel %a1@,%d3
    1f9a:	9690           	subl %a0@,%d3
    1f9c:	2429 0004      	movel %a1@(4),%d2
    1fa0:	94a8 0004      	subl %a0@(4),%d2
    1fa4:	3802           	movew %d2,%d4
    1fa6:	3003           	movew %d3,%d0
    1fa8:	0c43 8001      	cmpiw #-32767,%d3
    1fac:	6c04           	bges 1fb2 <_ZN2xy7angletoERS_+0x26>
    1fae:	303c 8001      	movew #-32767,%d0
    1fb2:	3202           	movew %d2,%d1
    1fb4:	0c44 8001      	cmpiw #-32767,%d4
    1fb8:	6c04           	bges 1fbe <_ZN2xy7angletoERS_+0x32>
    1fba:	323c 8001      	movew #-32767,%d1
    1fbe:	4a43           	tstw %d3
    1fc0:	5fc3           	sle %d3
    1fc2:	4a42           	tstw %d2
    1fc4:	5ec2           	sgt %d2
    1fc6:	b602           	cmpb %d2,%d3
    1fc8:	6700 00b0      	beqw 207a <_ZN2xy7angletoERS_+0xee>
    1fcc:	3041           	moveaw %d1,%a0
    1fce:	3200           	movew %d0,%d1
    1fd0:	3008           	movew %a0,%d0
    1fd2:	363c c000      	movew #-16384,%d3
    1fd6:	307c 4000      	moveaw #16384,%a0
    1fda:	4a40           	tstw %d0
    1fdc:	6f00 0090      	blew 206e <_ZN2xy7angletoERS_+0xe2>
    1fe0:	4a41           	tstw %d1
    1fe2:	6d00 0084      	bltw 2068 <_ZN2xy7angletoERS_+0xdc>
    1fe6:	3401           	movew %d1,%d2
    1fe8:	3801           	movew %d1,%d4
    1fea:	8840           	orw %d0,%d4
    1fec:	0284 0000 ff80 	andil #65408,%d4
    1ff2:	b041           	cmpw %d1,%d0
    1ff4:	6f2a           	bles 2020 <_ZN2xy7angletoERS_+0x94>
    1ff6:	0a43 3fff      	eoriw #16383,%d3
    1ffa:	3400           	movew %d0,%d2
    1ffc:	3001           	movew %d1,%d0
    1ffe:	4a84           	tstl %d4
    2000:	6738           	beqs 203a <_ZN2xy7angletoERS_+0xae>
    2002:	e240           	asrw #1,%d0
    2004:	e242           	asrw #1,%d2
    2006:	3200           	movew %d0,%d1
    2008:	8242           	orw %d2,%d1
    200a:	0281 0000 ff80 	andil #65408,%d1
    2010:	66f0           	bnes 2002 <_ZN2xy7angletoERS_+0x76>
    2012:	4a42           	tstw %d2
    2014:	6620           	bnes 2036 <_ZN2xy7angletoERS_+0xaa>
    2016:	7000           	moveq #0,%d0
    2018:	3003           	movew %d3,%d0
    201a:	4cdf 001c      	moveml %sp@+,%d2-%d4
    201e:	4e75           	rts
    2020:	4a84           	tstl %d4
    2022:	67ee           	beqs 2012 <_ZN2xy7angletoERS_+0x86>
    2024:	e240           	asrw #1,%d0
    2026:	e242           	asrw #1,%d2
    2028:	3200           	movew %d0,%d1
    202a:	8242           	orw %d2,%d1
    202c:	0281 0000 ff80 	andil #65408,%d1
    2032:	66ce           	bnes 2002 <_ZN2xy7angletoERS_+0x76>
    2034:	60dc           	bras 2012 <_ZN2xy7angletoERS_+0x86>
    2036:	b042           	cmpw %d2,%d0
    2038:	674e           	beqs 2088 <_ZN2xy7angletoERS_+0xfc>
    203a:	48c0           	extl %d0
    203c:	e188           	lsll #8,%d0
    203e:	3042           	moveaw %d2,%a0
    2040:	2f08           	movel %a0,%sp@-
    2042:	2f00           	movel %d0,%sp@-
    2044:	4eb9 0001 fd64 	jsr 1fd64 <__divsi3>
    204a:	508f           	addql #8,%sp
    204c:	41f9 0002 1952 	lea 21952 <_ZL5atan8>,%a0
    2052:	1030 0800      	moveb %a0@(0000000000000000,%d0:l),%d0
    2056:	0240 00ff      	andiw #255,%d0
    205a:	eb48           	lslw #5,%d0
    205c:	b143           	eorw %d0,%d3
    205e:	7000           	moveq #0,%d0
    2060:	3003           	movew %d3,%d0
    2062:	4cdf 001c      	moveml %sp@+,%d2-%d4
    2066:	4e75           	rts
    2068:	4441           	negw %d1
    206a:	6000 ff7a      	braw 1fe6 <_ZN2xy7angletoERS_+0x5a>
    206e:	4440           	negw %d0
    2070:	3608           	movew %a0,%d3
    2072:	4a41           	tstw %d1
    2074:	6c00 ff70      	bgew 1fe6 <_ZN2xy7angletoERS_+0x5a>
    2078:	60ee           	bras 2068 <_ZN2xy7angletoERS_+0xdc>
    207a:	363c 8000      	movew #-32768,%d3
    207e:	91c8           	subal %a0,%a0
    2080:	4a40           	tstw %d0
    2082:	6e00 ff5c      	bgtw 1fe0 <_ZN2xy7angletoERS_+0x54>
    2086:	60e6           	bras 206e <_ZN2xy7angletoERS_+0xe2>
    2088:	0a43 2000      	eoriw #8192,%d3
    208c:	7000           	moveq #0,%d0
    208e:	3003           	movew %d3,%d0
    2090:	4cdf 001c      	moveml %sp@+,%d2-%d4
    2094:	4e75           	rts

00002096 <_ZN2xy4drawEh>:
    2096:	48e7 3020      	moveml %d2-%d3/%a2,%sp@-
    209a:	206f 0010      	moveal %sp@(16),%a0
    209e:	4240           	clrw %d0
    20a0:	102f 0017      	moveb %sp@(23),%d0
    20a4:	e948           	lslw #4,%d0
    20a6:	3428 0002      	movew %a0@(2),%d2
    20aa:	9440           	subw %d0,%d2
    20ac:	720f           	moveq #15,%d1
    20ae:	e3aa           	lsll %d1,%d2
    20b0:	0282 3fff 8000 	andil #1073709056,%d2
    20b6:	3228 0006      	movew %a0@(6),%d1
    20ba:	9240           	subw %d0,%d1
    20bc:	0281 0000 7fff 	andil #32767,%d1
    20c2:	8481           	orl %d1,%d2
    20c4:	2602           	movel %d2,%d3
    20c6:	08c3 001e      	bset #30,%d3
    20ca:	3039 0002 2bbe 	movew 22bbe <_ZL4GDTR+0x6>,%d0
    20d0:	0c40 0003      	cmpiw #3,%d0
    20d4:	6350           	blss 2126 <_ZN2xy4drawEh+0x90>
    20d6:	5879 0002 2bbc 	addqw #4,22bbc <_ZL4GDTR+0x4>
    20dc:	5940           	subqw #4,%d0
    20de:	33c0 0002 2bbe 	movew %d0,22bbe <_ZL4GDTR+0x6>
    20e4:	7000           	moveq #0,%d0
    20e6:	4600           	notb %d0
    20e8:	c082           	andl %d2,%d0
    20ea:	2f00           	movel %d0,%sp@-
    20ec:	45fa f232      	lea %pc@(1320 <_ZN11GDTransport10transfer_bEh.constprop.0>),%a2
    20f0:	4e92           	jsr %a2@
    20f2:	2003           	movel %d3,%d0
    20f4:	e088           	lsrl #8,%d0
    20f6:	7200           	moveq #0,%d1
    20f8:	4601           	notb %d1
    20fa:	c280           	andl %d0,%d1
    20fc:	2f01           	movel %d1,%sp@-
    20fe:	4e92           	jsr %a2@
    2100:	2003           	movel %d3,%d0
    2102:	4240           	clrw %d0
    2104:	4840           	swap %d0
    2106:	7200           	moveq #0,%d1
    2108:	4601           	notb %d1
    210a:	c280           	andl %d0,%d1
    210c:	2f01           	movel %d1,%sp@-
    210e:	4e92           	jsr %a2@
    2110:	4fef 000c      	lea %sp@(12),%sp
    2114:	4243           	clrw %d3
    2116:	4843           	swap %d3
    2118:	e04b           	lsrw #8,%d3
    211a:	2f43 0010      	movel %d3,%sp@(16)
    211e:	4cdf 040c      	moveml %sp@+,%d2-%d3/%a2
    2122:	6000 f1fc      	braw 1320 <_ZN11GDTransport10transfer_bEh.constprop.0>
    2126:	4878 0004      	pea 4 <NEGATE>
    212a:	4879 0002 2bb8 	pea 22bb8 <_ZL4GDTR>
    2130:	4eb9 0000 ea30 	jsr ea30 <_ZN11GDTransport7getfreeEt>
    2136:	3039 0002 2bbe 	movew 22bbe <_ZL4GDTR+0x6>,%d0
    213c:	508f           	addql #8,%sp
    213e:	5879 0002 2bbc 	addqw #4,22bbc <_ZL4GDTR+0x4>
    2144:	5940           	subqw #4,%d0
    2146:	33c0 0002 2bbe 	movew %d0,22bbe <_ZL4GDTR+0x6>
    214c:	7000           	moveq #0,%d0
    214e:	4600           	notb %d0
    2150:	c082           	andl %d2,%d0
    2152:	2f00           	movel %d0,%sp@-
    2154:	45fa f1ca      	lea %pc@(1320 <_ZN11GDTransport10transfer_bEh.constprop.0>),%a2
    2158:	4e92           	jsr %a2@
    215a:	2003           	movel %d3,%d0
    215c:	e088           	lsrl #8,%d0
    215e:	7200           	moveq #0,%d1
    2160:	4601           	notb %d1
    2162:	c280           	andl %d0,%d1
    2164:	2f01           	movel %d1,%sp@-
    2166:	4e92           	jsr %a2@
    2168:	2003           	movel %d3,%d0
    216a:	4240           	clrw %d0
    216c:	4840           	swap %d0
    216e:	7200           	moveq #0,%d1
    2170:	4601           	notb %d1
    2172:	c280           	andl %d0,%d1
    2174:	2f01           	movel %d1,%sp@-
    2176:	4e92           	jsr %a2@
    2178:	4fef 000c      	lea %sp@(12),%sp
    217c:	4243           	clrw %d3
    217e:	4843           	swap %d3
    2180:	e04b           	lsrw #8,%d3
    2182:	2f43 0010      	movel %d3,%sp@(16)
    2186:	4cdf 040c      	moveml %sp@+,%d2-%d3/%a2
    218a:	6000 f194      	braw 1320 <_ZN11GDTransport10transfer_bEh.constprop.0>

0000218e <_ZN2xy8onscreenEv>:
    218e:	206f 0004      	moveal %sp@(4),%a0
    2192:	2010           	movel %a0@,%d0
    2194:	6b26           	bmis 21bc <_ZN2xy8onscreenEv+0x2e>
    2196:	2239 0002 2b5c 	movel 22b5c <GD>,%d1
    219c:	e989           	lsll #4,%d1
    219e:	b280           	cmpl %d0,%d1
    21a0:	6f1a           	bles 21bc <_ZN2xy8onscreenEv+0x2e>
    21a2:	2028 0004      	movel %a0@(4),%d0
    21a6:	6b14           	bmis 21bc <_ZN2xy8onscreenEv+0x2e>
    21a8:	2239 0002 2b60 	movel 22b60 <GD+0x4>,%d1
    21ae:	e989           	lsll #4,%d1
    21b0:	b280           	cmpl %d0,%d1
    21b2:	5ec0           	sgt %d0
    21b4:	4880           	extw %d0
    21b6:	48c0           	extl %d0
    21b8:	4480           	negl %d0
    21ba:	4e75           	rts
    21bc:	7000           	moveq #0,%d0
    21be:	4e75           	rts

000021c0 <_ZN2xypLERS_>:
    21c0:	206f 0004      	moveal %sp@(4),%a0
    21c4:	226f 0008      	moveal %sp@(8),%a1
    21c8:	2011           	movel %a1@,%d0
    21ca:	d190           	addl %d0,%a0@
    21cc:	2029 0004      	movel %a1@(4),%d0
    21d0:	d1a8 0004      	addl %d0,%a0@(4)
    21d4:	2010           	movel %a0@,%d0
    21d6:	2228 0004      	movel %a0@(4),%d1
    21da:	4e75           	rts

000021dc <_ZN2xymIERS_>:
    21dc:	206f 0004      	moveal %sp@(4),%a0
    21e0:	226f 0008      	moveal %sp@(8),%a1
    21e4:	2011           	movel %a1@,%d0
    21e6:	9190           	subl %d0,%a0@
    21e8:	2029 0004      	movel %a1@(4),%d0
    21ec:	91a8 0004      	subl %d0,%a0@(4)
    21f0:	2010           	movel %a0@,%d0
    21f2:	2228 0004      	movel %a0@(4),%d1
    21f6:	4e75           	rts

000021f8 <_ZN2xylSEi>:
    21f8:	206f 0004      	moveal %sp@(4),%a0
    21fc:	222f 0008      	movel %sp@(8),%d1
    2200:	2010           	movel %a0@,%d0
    2202:	e3a8           	lsll %d1,%d0
    2204:	2080           	movel %d0,%a0@
    2206:	2028 0004      	movel %a0@(4),%d0
    220a:	e3a8           	lsll %d1,%d0
    220c:	2140 0004      	movel %d0,%a0@(4)
    2210:	2010           	movel %a0@,%d0
    2212:	2228 0004      	movel %a0@(4),%d1
    2216:	4e75           	rts

00002218 <_ZN2xymlERS_>:
    2218:	48e7 2038      	moveml %d2/%a2-%a4,%sp@-
    221c:	266f 0014      	moveal %sp@(20),%a3
    2220:	286f 0018      	moveal %sp@(24),%a4
    2224:	45f9 0001 fce4 	lea 1fce4 <__mulsi3>,%a2
    222a:	2f14           	movel %a4@,%sp@-
    222c:	2f13           	movel %a3@,%sp@-
    222e:	4e92           	jsr %a2@
    2230:	508f           	addql #8,%sp
    2232:	2400           	movel %d0,%d2
    2234:	2f2c 0004      	movel %a4@(4),%sp@-
    2238:	2f2b 0004      	movel %a3@(4),%sp@-
    223c:	4e92           	jsr %a2@
    223e:	508f           	addql #8,%sp
    2240:	d082           	addl %d2,%d0
    2242:	4cdf 1c04      	moveml %sp@+,%d2/%a2-%a4
    2246:	4e75           	rts

00002248 <_ZN2xymLEi>:
    2248:	48e7 2030      	moveml %d2/%a2-%a3,%sp@-
    224c:	246f 0010      	moveal %sp@(16),%a2
    2250:	242f 0014      	movel %sp@(20),%d2
    2254:	47f9 0001 fce4 	lea 1fce4 <__mulsi3>,%a3
    225a:	2f02           	movel %d2,%sp@-
    225c:	2f12           	movel %a2@,%sp@-
    225e:	4e93           	jsr %a3@
    2260:	508f           	addql #8,%sp
    2262:	2480           	movel %d0,%a2@
    2264:	2f02           	movel %d2,%sp@-
    2266:	2f2a 0004      	movel %a2@(4),%sp@-
    226a:	4e93           	jsr %a3@
    226c:	508f           	addql #8,%sp
    226e:	2540 0004      	movel %d0,%a2@(4)
    2272:	2012           	movel %a2@,%d0
    2274:	222a 0004      	movel %a2@(4),%d1
    2278:	4cdf 0c04      	moveml %sp@+,%d2/%a2-%a3
    227c:	4e75           	rts

0000227e <_ZN2xy11nearer_thanEiRS_>:
    227e:	48e7 3c20      	moveml %d2-%d5/%a2,%sp@-
    2282:	226f 0018      	moveal %sp@(24),%a1
    2286:	262f 001c      	movel %sp@(28),%d3
    228a:	206f 0020      	moveal %sp@(32),%a0
    228e:	2011           	movel %a1@,%d0
    2290:	9090           	subl %a0@,%d0
    2292:	2400           	movel %d0,%d2
    2294:	6b60           	bmis 22f6 <_ZN2xy11nearer_thanEiRS_+0x78>
    2296:	b682           	cmpl %d2,%d3
    2298:	6d54           	blts 22ee <_ZN2xy11nearer_thanEiRS_+0x70>
    229a:	2829 0004      	movel %a1@(4),%d4
    229e:	98a8 0004      	subl %a0@(4),%d4
    22a2:	2a04           	movel %d4,%d5
    22a4:	6b54           	bmis 22fa <_ZN2xy11nearer_thanEiRS_+0x7c>
    22a6:	ba83           	cmpl %d3,%d5
    22a8:	6e44           	bgts 22ee <_ZN2xy11nearer_thanEiRS_+0x70>
    22aa:	2203           	movel %d3,%d1
    22ac:	d283           	addl %d3,%d1
    22ae:	d281           	addl %d1,%d1
    22b0:	d283           	addl %d3,%d1
    22b2:	e681           	asrl #3,%d1
    22b4:	b282           	cmpl %d2,%d1
    22b6:	6f04           	bles 22bc <_ZN2xy11nearer_thanEiRS_+0x3e>
    22b8:	b285           	cmpl %d5,%d1
    22ba:	6e46           	bgts 2302 <_ZN2xy11nearer_thanEiRS_+0x84>
    22bc:	45f9 0001 fce4 	lea 1fce4 <__mulsi3>,%a2
    22c2:	2f00           	movel %d0,%sp@-
    22c4:	2f00           	movel %d0,%sp@-
    22c6:	4e92           	jsr %a2@
    22c8:	508f           	addql #8,%sp
    22ca:	2400           	movel %d0,%d2
    22cc:	2f04           	movel %d4,%sp@-
    22ce:	2f04           	movel %d4,%sp@-
    22d0:	4e92           	jsr %a2@
    22d2:	508f           	addql #8,%sp
    22d4:	d480           	addl %d0,%d2
    22d6:	2f03           	movel %d3,%sp@-
    22d8:	2f03           	movel %d3,%sp@-
    22da:	4e92           	jsr %a2@
    22dc:	508f           	addql #8,%sp
    22de:	b082           	cmpl %d2,%d0
    22e0:	5ec0           	sgt %d0
    22e2:	4880           	extw %d0
    22e4:	48c0           	extl %d0
    22e6:	4480           	negl %d0
    22e8:	4cdf 043c      	moveml %sp@+,%d2-%d5/%a2
    22ec:	4e75           	rts
    22ee:	7000           	moveq #0,%d0
    22f0:	4cdf 043c      	moveml %sp@+,%d2-%d5/%a2
    22f4:	4e75           	rts
    22f6:	4482           	negl %d2
    22f8:	609c           	bras 2296 <_ZN2xy11nearer_thanEiRS_+0x18>
    22fa:	4485           	negl %d5
    22fc:	ba83           	cmpl %d3,%d5
    22fe:	6faa           	bles 22aa <_ZN2xy11nearer_thanEiRS_+0x2c>
    2300:	60ec           	bras 22ee <_ZN2xy11nearer_thanEiRS_+0x70>
    2302:	7001           	moveq #1,%d0
    2304:	4cdf 043c      	moveml %sp@+,%d2-%d5/%a2
    2308:	4e75           	rts

0000230a <_ZN2xy6rotateEi>:
    230a:	48e7 383c      	moveml %d2-%d4/%a2-%a5,%sp@-
    230e:	286f 0020      	moveal %sp@(32),%a4
    2312:	222f 0024      	movel %sp@(36),%d1
    2316:	3401           	movew %d1,%d2
    2318:	ec4a           	lsrw #6,%d2
    231a:	2002           	movel %d2,%d0
    231c:	0280 0000 01ff 	andil #511,%d0
    2322:	0802 0008      	btst #8,%d2
    2326:	670a           	beqs 2332 <_ZN2xy6rotateEi+0x28>
    2328:	263c 0000 0200 	movel #512,%d3
    232e:	9680           	subl %d0,%d3
    2330:	2003           	movel %d3,%d0
    2332:	41f9 0002 1a52 	lea 21a52 <_ZL6sintab>,%a0
    2338:	d080           	addl %d0,%d0
    233a:	7600           	moveq #0,%d3
    233c:	3630 0800      	movew %a0@(0000000000000000,%d0:l),%d3
    2340:	2003           	movel %d3,%d0
    2342:	780f           	moveq #15,%d4
    2344:	e9a8           	lsll %d4,%d0
    2346:	9083           	subl %d3,%d0
    2348:	4240           	clrw %d0
    234a:	4840           	swap %d0
    234c:	0802 0009      	btst #9,%d2
    2350:	6702           	beqs 2354 <_ZN2xy6rotateEi+0x4a>
    2352:	4440           	negw %d0
    2354:	3640           	moveaw %d0,%a3
    2356:	0641 4000      	addiw #16384,%d1
    235a:	ec49           	lsrw #6,%d1
    235c:	2001           	movel %d1,%d0
    235e:	0280 0000 01ff 	andil #511,%d0
    2364:	0801 0008      	btst #8,%d1
    2368:	670a           	beqs 2374 <_ZN2xy6rotateEi+0x6a>
    236a:	243c 0000 0200 	movel #512,%d2
    2370:	9480           	subl %d0,%d2
    2372:	2002           	movel %d2,%d0
    2374:	d080           	addl %d0,%d0
    2376:	7400           	moveq #0,%d2
    2378:	3430 0800      	movew %a0@(0000000000000000,%d0:l),%d2
    237c:	2002           	movel %d2,%d0
    237e:	760f           	moveq #15,%d3
    2380:	e7a8           	lsll %d3,%d0
    2382:	9082           	subl %d2,%d0
    2384:	4240           	clrw %d0
    2386:	4840           	swap %d0
    2388:	0801 0009      	btst #9,%d1
    238c:	6702           	beqs 2390 <_ZN2xy6rotateEi+0x86>
    238e:	4440           	negw %d0
    2390:	3440           	moveaw %d0,%a2
    2392:	2814           	movel %a4@,%d4
    2394:	262c 0004      	movel %a4@(4),%d3
    2398:	4bf9 0001 fce4 	lea 1fce4 <__mulsi3>,%a5
    239e:	2f0a           	movel %a2,%sp@-
    23a0:	2f04           	movel %d4,%sp@-
    23a2:	4e95           	jsr %a5@
    23a4:	508f           	addql #8,%sp
    23a6:	2400           	movel %d0,%d2
    23a8:	2f0b           	movel %a3,%sp@-
    23aa:	2f03           	movel %d3,%sp@-
    23ac:	4e95           	jsr %a5@
    23ae:	508f           	addql #8,%sp
    23b0:	9480           	subl %d0,%d2
    23b2:	700f           	moveq #15,%d0
    23b4:	e0a2           	asrl %d0,%d2
    23b6:	2882           	movel %d2,%a4@
    23b8:	2f0b           	movel %a3,%sp@-
    23ba:	2f04           	movel %d4,%sp@-
    23bc:	4e95           	jsr %a5@
    23be:	508f           	addql #8,%sp
    23c0:	2640           	moveal %d0,%a3
    23c2:	2f0a           	movel %a2,%sp@-
    23c4:	2f03           	movel %d3,%sp@-
    23c6:	4e95           	jsr %a5@
    23c8:	508f           	addql #8,%sp
    23ca:	d08b           	addl %a3,%d0
    23cc:	720f           	moveq #15,%d1
    23ce:	e2a0           	asrl %d1,%d0
    23d0:	2940 0004      	movel %d0,%a4@(4)
    23d4:	4cdf 3c1c      	moveml %sp@+,%d2-%d4/%a2-%a5
    23d8:	4e75           	rts

000023da <_ZN7GDClass8textsizeERiS0_iPKc>:
    23da:	48e7 3c38      	moveml %d2-%d5/%a2-%a4,%sp@-
    23de:	266f 0024      	moveal %sp@(36),%a3
    23e2:	246f 0030      	moveal %sp@(48),%a2
    23e6:	202f 002c      	movel %sp@(44),%d0
    23ea:	0680 000c 241d 	addil #795677,%d0
    23f0:	d080           	addl %d0,%d0
    23f2:	d080           	addl %d0,%d0
    23f4:	2f00           	movel %d0,%sp@-
    23f6:	4eba f39e      	jsr %pc@(1796 <_ZN11GDTransport4rd32Em.constprop.0>)
    23fa:	2840           	moveal %d0,%a4
    23fc:	4293           	clrl %a3@
    23fe:	1212           	moveb %a2@,%d1
    2400:	588f           	addql #4,%sp
    2402:	2279 0002 2474 	moveal 22474 <spi_ctl>,%a1
    2408:	6700 02a8      	beqw 26b2 <_ZN7GDClass8textsizeERiS0_iPKc+0x2d8>
    240c:	203c 0030 8000 	movel #3178496,%d0
    2412:	243c 0010 8000 	movel #1081344,%d2
    2418:	528a           	addql #1,%a2
    241a:	4881           	extw %d1
    241c:	41f4 1000      	lea %a4@(0000000000000000,%d1:w),%a0
    2420:	2608           	movel %a0,%d3
    2422:	1211           	moveb %a1@,%d1
    2424:	0201 fffe      	andib #-2,%d1
    2428:	1281           	moveb %d1,%a1@
    242a:	2079 0002 2474 	moveal 22474 <spi_ctl>,%a0
    2430:	1210           	moveb %a0@,%d1
    2432:	0001 0001      	orib #1,%d1
    2436:	1081           	moveb %d1,%a0@
    2438:	2803           	movel %d3,%d4
    243a:	4244           	clrw %d4
    243c:	4844           	swap %d4
    243e:	2079 0002 2474 	moveal 22474 <spi_ctl>,%a0
    2444:	1210           	moveb %a0@,%d1
    2446:	0801 0005      	btst #5,%d1
    244a:	67f8           	beqs 2444 <_ZN7GDClass8textsizeERiS0_iPKc+0x6a>
    244c:	2079 0002 2470 	moveal 22470 <spi_data_in>,%a0
    2452:	1084           	moveb %d4,%a0@
    2454:	2079 0002 2474 	moveal 22474 <spi_ctl>,%a0
    245a:	1210           	moveb %a0@,%d1
    245c:	0001 0008      	orib #8,%d1
    2460:	1081           	moveb %d1,%a0@
    2462:	2079 0002 2474 	moveal 22474 <spi_ctl>,%a0
    2468:	1210           	moveb %a0@,%d1
    246a:	0201 fff7      	andib #-9,%d1
    246e:	1081           	moveb %d1,%a0@
    2470:	2079 0002 2474 	moveal 22474 <spi_ctl>,%a0
    2476:	1210           	moveb %a0@,%d1
    2478:	0801 0005      	btst #5,%d1
    247c:	67f8           	beqs 2476 <_ZN7GDClass8textsizeERiS0_iPKc+0x9c>
    247e:	2279 0002 246c 	moveal 2246c <spi_data_out>,%a1
    2484:	1211           	moveb %a1@,%d1
    2486:	3803           	movew %d3,%d4
    2488:	e04c           	lsrw #8,%d4
    248a:	1210           	moveb %a0@,%d1
    248c:	0801 0005      	btst #5,%d1
    2490:	67f8           	beqs 248a <_ZN7GDClass8textsizeERiS0_iPKc+0xb0>
    2492:	2079 0002 2470 	moveal 22470 <spi_data_in>,%a0
    2498:	1084           	moveb %d4,%a0@
    249a:	2079 0002 2474 	moveal 22474 <spi_ctl>,%a0
    24a0:	1210           	moveb %a0@,%d1
    24a2:	0001 0008      	orib #8,%d1
    24a6:	1081           	moveb %d1,%a0@
    24a8:	2079 0002 2474 	moveal 22474 <spi_ctl>,%a0
    24ae:	1210           	moveb %a0@,%d1
    24b0:	0201 fff7      	andib #-9,%d1
    24b4:	1081           	moveb %d1,%a0@
    24b6:	2079 0002 2474 	moveal 22474 <spi_ctl>,%a0
    24bc:	1210           	moveb %a0@,%d1
    24be:	0801 0005      	btst #5,%d1
    24c2:	67f8           	beqs 24bc <_ZN7GDClass8textsizeERiS0_iPKc+0xe2>
    24c4:	2279 0002 246c 	moveal 2246c <spi_data_out>,%a1
    24ca:	1211           	moveb %a1@,%d1
    24cc:	1210           	moveb %a0@,%d1
    24ce:	0801 0005      	btst #5,%d1
    24d2:	67f8           	beqs 24cc <_ZN7GDClass8textsizeERiS0_iPKc+0xf2>
    24d4:	2079 0002 2470 	moveal 22470 <spi_data_in>,%a0
    24da:	1083           	moveb %d3,%a0@
    24dc:	2079 0002 2474 	moveal 22474 <spi_ctl>,%a0
    24e2:	1210           	moveb %a0@,%d1
    24e4:	0001 0008      	orib #8,%d1
    24e8:	1081           	moveb %d1,%a0@
    24ea:	2079 0002 2474 	moveal 22474 <spi_ctl>,%a0
    24f0:	1210           	moveb %a0@,%d1
    24f2:	0201 fff7      	andib #-9,%d1
    24f6:	1081           	moveb %d1,%a0@
    24f8:	2079 0002 2474 	moveal 22474 <spi_ctl>,%a0
    24fe:	1210           	moveb %a0@,%d1
    2500:	0801 0005      	btst #5,%d1
    2504:	67f8           	beqs 24fe <_ZN7GDClass8textsizeERiS0_iPKc+0x124>
    2506:	2279 0002 246c 	moveal 2246c <spi_data_out>,%a1
    250c:	1211           	moveb %a1@,%d1
    250e:	1210           	moveb %a0@,%d1
    2510:	0801 0005      	btst #5,%d1
    2514:	67f8           	beqs 250e <_ZN7GDClass8textsizeERiS0_iPKc+0x134>
    2516:	2079 0002 2470 	moveal 22470 <spi_data_in>,%a0
    251c:	10bc 0000      	moveb #0,%a0@
    2520:	2079 0002 2474 	moveal 22474 <spi_ctl>,%a0
    2526:	1210           	moveb %a0@,%d1
    2528:	0001 0008      	orib #8,%d1
    252c:	1081           	moveb %d1,%a0@
    252e:	2079 0002 2474 	moveal 22474 <spi_ctl>,%a0
    2534:	1210           	moveb %a0@,%d1
    2536:	0201 fff7      	andib #-9,%d1
    253a:	1081           	moveb %d1,%a0@
    253c:	2079 0002 2474 	moveal 22474 <spi_ctl>,%a0
    2542:	1210           	moveb %a0@,%d1
    2544:	0801 0005      	btst #5,%d1
    2548:	67f8           	beqs 2542 <_ZN7GDClass8textsizeERiS0_iPKc+0x168>
    254a:	2279 0002 246c 	moveal 2246c <spi_data_out>,%a1
    2550:	1211           	moveb %a1@,%d1
    2552:	1210           	moveb %a0@,%d1
    2554:	0801 0005      	btst #5,%d1
    2558:	67f8           	beqs 2552 <_ZN7GDClass8textsizeERiS0_iPKc+0x178>
    255a:	2079 0002 2470 	moveal 22470 <spi_data_in>,%a0
    2560:	10bc 0000      	moveb #0,%a0@
    2564:	2079 0002 2474 	moveal 22474 <spi_ctl>,%a0
    256a:	1210           	moveb %a0@,%d1
    256c:	0001 0008      	orib #8,%d1
    2570:	1081           	moveb %d1,%a0@
    2572:	2079 0002 2474 	moveal 22474 <spi_ctl>,%a0
    2578:	1210           	moveb %a0@,%d1
    257a:	0201 fff7      	andib #-9,%d1
    257e:	1081           	moveb %d1,%a0@
    2580:	2079 0002 2474 	moveal 22474 <spi_ctl>,%a0
    2586:	1210           	moveb %a0@,%d1
    2588:	0801 0005      	btst #5,%d1
    258c:	67f8           	beqs 2586 <_ZN7GDClass8textsizeERiS0_iPKc+0x1ac>
    258e:	2279 0002 246c 	moveal 2246c <spi_data_out>,%a1
    2594:	1611           	moveb %a1@,%d3
    2596:	1210           	moveb %a0@,%d1
    2598:	0201 fffe      	andib #-2,%d1
    259c:	1081           	moveb %d1,%a0@
    259e:	2200           	movel %d0,%d1
    25a0:	4a39 0002 2bb6 	tstb 22bb6 <ft8xx_model>
    25a6:	6602           	bnes 25aa <_ZN7GDClass8textsizeERiS0_iPKc+0x1d0>
    25a8:	2202           	movel %d2,%d1
    25aa:	3839 0002 2bbc 	movew 22bbc <_ZL4GDTR+0x4>,%d4
    25b0:	0244 0fff      	andiw #4095,%d4
    25b4:	0284 0000 ffff 	andil #65535,%d4
    25ba:	d881           	addl %d1,%d4
    25bc:	2079 0002 2474 	moveal 22474 <spi_ctl>,%a0
    25c2:	1a10           	moveb %a0@,%d5
    25c4:	0005 0001      	orib #1,%d5
    25c8:	1085           	moveb %d5,%a0@
    25ca:	4241           	clrw %d1
    25cc:	4841           	swap %d1
    25ce:	1a01           	moveb %d1,%d5
    25d0:	0005 ff80      	orib #-128,%d5
    25d4:	2079 0002 2474 	moveal 22474 <spi_ctl>,%a0
    25da:	1210           	moveb %a0@,%d1
    25dc:	0801 0005      	btst #5,%d1
    25e0:	67f8           	beqs 25da <_ZN7GDClass8textsizeERiS0_iPKc+0x200>
    25e2:	2079 0002 2470 	moveal 22470 <spi_data_in>,%a0
    25e8:	1085           	moveb %d5,%a0@
    25ea:	2079 0002 2474 	moveal 22474 <spi_ctl>,%a0
    25f0:	1210           	moveb %a0@,%d1
    25f2:	0001 0008      	orib #8,%d1
    25f6:	1081           	moveb %d1,%a0@
    25f8:	2079 0002 2474 	moveal 22474 <spi_ctl>,%a0
    25fe:	1210           	moveb %a0@,%d1
    2600:	0201 fff7      	andib #-9,%d1
    2604:	1081           	moveb %d1,%a0@
    2606:	2079 0002 2474 	moveal 22474 <spi_ctl>,%a0
    260c:	1210           	moveb %a0@,%d1
    260e:	0801 0005      	btst #5,%d1
    2612:	67f8           	beqs 260c <_ZN7GDClass8textsizeERiS0_iPKc+0x232>
    2614:	2279 0002 246c 	moveal 2246c <spi_data_out>,%a1
    261a:	1211           	moveb %a1@,%d1
    261c:	3a04           	movew %d4,%d5
    261e:	e04d           	lsrw #8,%d5
    2620:	1210           	moveb %a0@,%d1
    2622:	0801 0005      	btst #5,%d1
    2626:	67f8           	beqs 2620 <_ZN7GDClass8textsizeERiS0_iPKc+0x246>
    2628:	2079 0002 2470 	moveal 22470 <spi_data_in>,%a0
    262e:	1085           	moveb %d5,%a0@
    2630:	2079 0002 2474 	moveal 22474 <spi_ctl>,%a0
    2636:	1210           	moveb %a0@,%d1
    2638:	0001 0008      	orib #8,%d1
    263c:	1081           	moveb %d1,%a0@
    263e:	2079 0002 2474 	moveal 22474 <spi_ctl>,%a0
    2644:	1210           	moveb %a0@,%d1
    2646:	0201 fff7      	andib #-9,%d1
    264a:	1081           	moveb %d1,%a0@
    264c:	2079 0002 2474 	moveal 22474 <spi_ctl>,%a0
    2652:	1210           	moveb %a0@,%d1
    2654:	0801 0005      	btst #5,%d1
    2658:	67f8           	beqs 2652 <_ZN7GDClass8textsizeERiS0_iPKc+0x278>
    265a:	2279 0002 246c 	moveal 2246c <spi_data_out>,%a1
    2660:	1211           	moveb %a1@,%d1
    2662:	1210           	moveb %a0@,%d1
    2664:	0801 0005      	btst #5,%d1
    2668:	67f8           	beqs 2662 <_ZN7GDClass8textsizeERiS0_iPKc+0x288>
    266a:	2079 0002 2470 	moveal 22470 <spi_data_in>,%a0
    2670:	1084           	moveb %d4,%a0@
    2672:	2079 0002 2474 	moveal 22474 <spi_ctl>,%a0
    2678:	1210           	moveb %a0@,%d1
    267a:	0001 0008      	orib #8,%d1
    267e:	1081           	moveb %d1,%a0@
    2680:	2079 0002 2474 	moveal 22474 <spi_ctl>,%a0
    2686:	1210           	moveb %a0@,%d1
    2688:	0201 fff7      	andib #-9,%d1
    268c:	1081           	moveb %d1,%a0@
    268e:	2279 0002 2474 	moveal 22474 <spi_ctl>,%a1
    2694:	1211           	moveb %a1@,%d1
    2696:	0801 0005      	btst #5,%d1
    269a:	67f8           	beqs 2694 <_ZN7GDClass8textsizeERiS0_iPKc+0x2ba>
    269c:	2079 0002 246c 	moveal 2246c <spi_data_out>,%a0
    26a2:	1210           	moveb %a0@,%d1
    26a4:	0283 0000 00ff 	andil #255,%d3
    26aa:	d793           	addl %d3,%a3@
    26ac:	1212           	moveb %a2@,%d1
    26ae:	6600 fd68      	bnew 2418 <_ZN7GDClass8textsizeERiS0_iPKc+0x3e>
    26b2:	240c           	movel %a4,%d2
    26b4:	0682 0000 008c 	addil #140,%d2
    26ba:	1011           	moveb %a1@,%d0
    26bc:	0200 fffe      	andib #-2,%d0
    26c0:	1280           	moveb %d0,%a1@
    26c2:	2079 0002 2474 	moveal 22474 <spi_ctl>,%a0
    26c8:	1010           	moveb %a0@,%d0
    26ca:	0000 0001      	orib #1,%d0
    26ce:	1080           	moveb %d0,%a0@
    26d0:	2002           	movel %d2,%d0
    26d2:	4240           	clrw %d0
    26d4:	4840           	swap %d0
    26d6:	7200           	moveq #0,%d1
    26d8:	4601           	notb %d1
    26da:	c280           	andl %d0,%d1
    26dc:	2f01           	movel %d1,%sp@-
    26de:	45fa ecda      	lea %pc@(13ba <_ZN11GDTransport10transfer_bEh.constprop.2.isra.0>),%a2
    26e2:	4e92           	jsr %a2@
    26e4:	3002           	movew %d2,%d0
    26e6:	e048           	lsrw #8,%d0
    26e8:	7200           	moveq #0,%d1
    26ea:	4601           	notb %d1
    26ec:	c280           	andl %d0,%d1
    26ee:	2f01           	movel %d1,%sp@-
    26f0:	4e92           	jsr %a2@
    26f2:	7000           	moveq #0,%d0
    26f4:	4600           	notb %d0
    26f6:	c082           	andl %d2,%d0
    26f8:	2f00           	movel %d0,%sp@-
    26fa:	4e92           	jsr %a2@
    26fc:	42a7           	clrl %sp@-
    26fe:	45fa ec20      	lea %pc@(1320 <_ZN11GDTransport10transfer_bEh.constprop.0>),%a2
    2702:	4e92           	jsr %a2@
    2704:	42a7           	clrl %sp@-
    2706:	4e92           	jsr %a2@
    2708:	1400           	moveb %d0,%d2
    270a:	4eba ecfc      	jsr %pc@(1408 <_ZN11GDTransport6streamEv.constprop.0>)
    270e:	0282 0000 00ff 	andil #255,%d2
    2714:	206f 003c      	moveal %sp@(60),%a0
    2718:	2082           	movel %d2,%a0@
    271a:	4fef 0014      	lea %sp@(20),%sp
    271e:	4cdf 1c3c      	moveml %sp@+,%d2-%d5/%a2-%a4
    2722:	4e75           	rts

00002724 <_ZN6Bitmap8fromfileEPKci>:
    2724:	48e7 3030      	moveml %d2-%d3/%a2-%a3,%sp@-
    2728:	246f 0014      	moveal %sp@(20),%a2
    272c:	2439 0002 2b64 	movel 22b64 <GD+0x8>,%d2
    2732:	5282           	addql #1,%d2
    2734:	70fe           	moveq #-2,%d0
    2736:	c480           	andl %d0,%d2
    2738:	23c2 0002 2b64 	movel %d2,22b64 <GD+0x8>
    273e:	4878 ff24      	pea ffffff24 <LESS+0xffffff25>
    2742:	47fa f582      	lea %pc@(1cc6 <_ZN11GDTransport5cmd32Em.constprop.0>),%a3
    2746:	4e93           	jsr %a3@
    2748:	2f02           	movel %d2,%sp@-
    274a:	4e93           	jsr %a3@
    274c:	4878 0002      	pea 2 <DOUBLE_FLOAT>
    2750:	4e93           	jsr %a3@
    2752:	4878 ff25      	pea ffffff25 <LESS+0xffffff26>
    2756:	4e93           	jsr %a3@
    2758:	42a7           	clrl %sp@-
    275a:	4e93           	jsr %a3@
    275c:	4fef 0014      	lea %sp@(20),%sp
    2760:	203c 0030 8000 	movel #3178496,%d0
    2766:	4a39 0002 2bb6 	tstb 22bb6 <ft8xx_model>
    276c:	6606           	bnes 2774 <_ZN6Bitmap8fromfileEPKci+0x50>
    276e:	203c 0010 8000 	movel #1081344,%d0
    2774:	3639 0002 2bbc 	movew 22bbc <_ZL4GDTR+0x4>,%d3
    277a:	0243 0ffc      	andiw #4092,%d3
    277e:	0283 0000 ffff 	andil #65535,%d3
    2784:	d680           	addl %d0,%d3
    2786:	42a7           	clrl %sp@-
    2788:	4e93           	jsr %a3@
    278a:	588f           	addql #4,%sp
    278c:	203c 0030 8000 	movel #3178496,%d0
    2792:	4a39 0002 2bb6 	tstb 22bb6 <ft8xx_model>
    2798:	6606           	bnes 27a0 <_ZN6Bitmap8fromfileEPKci+0x7c>
    279a:	203c 0010 8000 	movel #1081344,%d0
    27a0:	3439 0002 2bbc 	movew 22bbc <_ZL4GDTR+0x4>,%d2
    27a6:	0242 0ffc      	andiw #4092,%d2
    27aa:	0282 0000 ffff 	andil #65535,%d2
    27b0:	d480           	addl %d0,%d2
    27b2:	42a7           	clrl %sp@-
    27b4:	4e93           	jsr %a3@
    27b6:	4eba f0d8      	jsr %pc@(1890 <_ZN11GDTransport6finishEv.constprop.0>)
    27ba:	2f03           	movel %d3,%sp@-
    27bc:	47fa eefc      	lea %pc@(16ba <_ZN11GDTransport4rd16Em.constprop.0>),%a3
    27c0:	4e93           	jsr %a3@
    27c2:	0280 0000 ffff 	andil #65535,%d0
    27c8:	2480           	movel %d0,%a2@
    27ca:	2f02           	movel %d2,%sp@-
    27cc:	4e93           	jsr %a3@
    27ce:	7400           	moveq #0,%d2
    27d0:	3400           	movew %d0,%d2
    27d2:	2542 0004      	movel %d2,%a2@(4)
    27d6:	2279 0002 2b64 	moveal 22b64 <GD+0x8>,%a1
    27dc:	2549 0010      	movel %a1,%a2@(16)
    27e0:	322f 002a      	movew %sp@(42),%d1
    27e4:	0241 00ff      	andiw #255,%d1
    27e8:	3541 0014      	movew %d1,%a2@(20)
    27ec:	50ea 0016      	st %a2@(22)
    27f0:	2212           	movel %a2@,%d1
    27f2:	2601           	movel %d1,%d3
    27f4:	6a02           	bpls 27f8 <_ZN6Bitmap8fromfileEPKci+0xd4>
    27f6:	5283           	addql #1,%d3
    27f8:	e283           	asrl #1,%d3
    27fa:	2543 0008      	movel %d3,%a2@(8)
    27fe:	e282           	asrl #1,%d2
    2800:	2542 000c      	movel %d2,%a2@(12)
    2804:	2601           	movel %d1,%d3
    2806:	0283 0000 ffff 	andil #65535,%d3
    280c:	7400           	moveq #0,%d2
    280e:	4602           	notb %d2
    2810:	c4af 0028      	andl %sp@(40),%d2
    2814:	45f9 0002 1c54 	lea 21c54 <_ZL6bpltab>,%a2
    281a:	1432 2800      	moveb %a2@(0000000000000000,%d2:l),%d2
    281e:	4fef 000c      	lea %sp@(12),%sp
    2822:	0c02 ffff      	cmpib #-1,%d2
    2826:	6726           	beqs 284e <_ZN6Bitmap8fromfileEPKci+0x12a>
    2828:	0282 0000 00ff 	andil #255,%d2
    282e:	7201           	moveq #1,%d1
    2830:	e5a9           	lsll %d2,%d1
    2832:	3041           	moveaw %d1,%a0
    2834:	5348           	subqw #1,%a0
    2836:	7200           	moveq #0,%d1
    2838:	3208           	movew %a0,%d1
    283a:	d283           	addl %d3,%d1
    283c:	e4a1           	asrl %d2,%d1
    283e:	c2c0           	muluw %d0,%d1
    2840:	d289           	addl %a1,%d1
    2842:	23c1 0002 2b64 	movel %d1,22b64 <GD+0x8>
    2848:	4cdf 0c0c      	moveml %sp@+,%d2-%d3/%a2-%a3
    284c:	4e75           	rts
    284e:	d241           	addw %d1,%d1
    2850:	c2c0           	muluw %d0,%d1
    2852:	d289           	addl %a1,%d1
    2854:	23c1 0002 2b64 	movel %d1,22b64 <GD+0x8>
    285a:	4cdf 0c0c      	moveml %sp@+,%d2-%d3/%a2-%a3
    285e:	4e75           	rts

00002860 <_ZN6Bitmap8defaultsEh>:
    2860:	48e7 3800      	moveml %d2-%d4,%sp@-
    2864:	206f 0010      	moveal %sp@(16),%a0
    2868:	222f 0014      	movel %sp@(20),%d1
    286c:	2639 0002 2b64 	movel 22b64 <GD+0x8>,%d3
    2872:	2143 0010      	movel %d3,%a0@(16)
    2876:	3001           	movew %d1,%d0
    2878:	0240 00ff      	andiw #255,%d0
    287c:	3140 0014      	movew %d0,%a0@(20)
    2880:	50e8 0016      	st %a0@(22)
    2884:	2010           	movel %a0@,%d0
    2886:	2400           	movel %d0,%d2
    2888:	6a02           	bpls 288c <_ZN6Bitmap8defaultsEh+0x2c>
    288a:	5282           	addql #1,%d2
    288c:	e282           	asrl #1,%d2
    288e:	2142 0008      	movel %d2,%a0@(8)
    2892:	2268 0004      	moveal %a0@(4),%a1
    2896:	2409           	movel %a1,%d2
    2898:	6a02           	bpls 289c <_ZN6Bitmap8defaultsEh+0x3c>
    289a:	5282           	addql #1,%d2
    289c:	e282           	asrl #1,%d2
    289e:	2142 000c      	movel %d2,%a0@(12)
    28a2:	2800           	movel %d0,%d4
    28a4:	0284 0000 ffff 	andil #65535,%d4
    28aa:	0281 0000 00ff 	andil #255,%d1
    28b0:	41f9 0002 1c54 	lea 21c54 <_ZL6bpltab>,%a0
    28b6:	1430 1800      	moveb %a0@(0000000000000000,%d1:l),%d2
    28ba:	0c02 ffff      	cmpib #-1,%d2
    28be:	6730           	beqs 28f0 <_ZN6Bitmap8defaultsEh+0x90>
    28c0:	0282 0000 00ff 	andil #255,%d2
    28c6:	7201           	moveq #1,%d1
    28c8:	e5a9           	lsll %d2,%d1
    28ca:	5341           	subqw #1,%d1
    28cc:	7000           	moveq #0,%d0
    28ce:	3001           	movew %d1,%d0
    28d0:	d084           	addl %d4,%d0
    28d2:	e4a0           	asrl %d2,%d0
    28d4:	2f09           	movel %a1,%sp@-
    28d6:	3f00           	movew %d0,%sp@-
    28d8:	4267           	clrw %sp@-
    28da:	4eb9 0001 fce4 	jsr 1fce4 <__mulsi3>
    28e0:	508f           	addql #8,%sp
    28e2:	d083           	addl %d3,%d0
    28e4:	23c0 0002 2b64 	movel %d0,22b64 <GD+0x8>
    28ea:	4cdf 001c      	moveml %sp@+,%d2-%d4
    28ee:	4e75           	rts
    28f0:	d040           	addw %d0,%d0
    28f2:	2f09           	movel %a1,%sp@-
    28f4:	3f00           	movew %d0,%sp@-
    28f6:	4267           	clrw %sp@-
    28f8:	4eb9 0001 fce4 	jsr 1fce4 <__mulsi3>
    28fe:	508f           	addql #8,%sp
    2900:	d083           	addl %d3,%d0
    2902:	23c0 0002 2b64 	movel %d0,22b64 <GD+0x8>
    2908:	4cdf 001c      	moveml %sp@+,%d2-%d4
    290c:	4e75           	rts

0000290e <_Z11__fromatlasm>:
    290e:	48e7 3038      	moveml %d2-%d3/%a2-%a4,%sp@-
    2912:	2448           	moveal %a0,%a2
    2914:	266f 0018      	moveal %sp@(24),%a3
    2918:	2f0b           	movel %a3,%sp@-
    291a:	49fa ed9e      	lea %pc@(16ba <_ZN11GDTransport4rd16Em.constprop.0>),%a4
    291e:	4e94           	jsr %a4@
    2920:	0280 0000 ffff 	andil #65535,%d0
    2926:	2480           	movel %d0,%a2@
    2928:	486b 0002      	pea %a3@(2)
    292c:	4e94           	jsr %a4@
    292e:	0280 0000 ffff 	andil #65535,%d0
    2934:	2540 0004      	movel %d0,%a2@(4)
    2938:	486b 0004      	pea %a3@(4)
    293c:	4e94           	jsr %a4@
    293e:	0280 0000 ffff 	andil #65535,%d0
    2944:	2540 0008      	movel %d0,%a2@(8)
    2948:	486b 0006      	pea %a3@(6)
    294c:	4e94           	jsr %a4@
    294e:	0280 0000 ffff 	andil #65535,%d0
    2954:	2540 000c      	movel %d0,%a2@(12)
    2958:	486b 0008      	pea %a3@(8)
    295c:	4eba ee38      	jsr %pc@(1796 <_ZN11GDTransport4rd32Em.constprop.0>)
    2960:	2540 0010      	movel %d0,%a2@(16)
    2964:	740c           	moveq #12,%d2
    2966:	d48b           	addl %a3,%d2
    2968:	2079 0002 2474 	moveal 22474 <spi_ctl>,%a0
    296e:	1010           	moveb %a0@,%d0
    2970:	0200 fffe      	andib #-2,%d0
    2974:	1080           	moveb %d0,%a0@
    2976:	2079 0002 2474 	moveal 22474 <spi_ctl>,%a0
    297c:	1010           	moveb %a0@,%d0
    297e:	0000 0001      	orib #1,%d0
    2982:	1080           	moveb %d0,%a0@
    2984:	2002           	movel %d2,%d0
    2986:	4240           	clrw %d0
    2988:	4840           	swap %d0
    298a:	7200           	moveq #0,%d1
    298c:	4601           	notb %d1
    298e:	c280           	andl %d0,%d1
    2990:	2f01           	movel %d1,%sp@-
    2992:	47fa ea26      	lea %pc@(13ba <_ZN11GDTransport10transfer_bEh.constprop.2.isra.0>),%a3
    2996:	4e93           	jsr %a3@
    2998:	3002           	movew %d2,%d0
    299a:	e048           	lsrw #8,%d0
    299c:	7200           	moveq #0,%d1
    299e:	4601           	notb %d1
    29a0:	c280           	andl %d0,%d1
    29a2:	2f01           	movel %d1,%sp@-
    29a4:	4e93           	jsr %a3@
    29a6:	7000           	moveq #0,%d0
    29a8:	4600           	notb %d0
    29aa:	c082           	andl %d2,%d0
    29ac:	2f00           	movel %d0,%sp@-
    29ae:	4e93           	jsr %a3@
    29b0:	4fef 001c      	lea %sp@(28),%sp
    29b4:	4297           	clrl %sp@
    29b6:	49fa e968      	lea %pc@(1320 <_ZN11GDTransport10transfer_bEh.constprop.0>),%a4
    29ba:	4e94           	jsr %a4@
    29bc:	42a7           	clrl %sp@-
    29be:	4e94           	jsr %a4@
    29c0:	1600           	moveb %d0,%d3
    29c2:	2079 0002 2474 	moveal 22474 <spi_ctl>,%a0
    29c8:	1010           	moveb %a0@,%d0
    29ca:	0200 fffe      	andib #-2,%d0
    29ce:	1080           	moveb %d0,%a0@
    29d0:	508f           	addql #8,%sp
    29d2:	203c 0030 8000 	movel #3178496,%d0
    29d8:	4a39 0002 2bb6 	tstb 22bb6 <ft8xx_model>
    29de:	6606           	bnes 29e6 <_Z11__fromatlasm+0xd8>
    29e0:	203c 0010 8000 	movel #1081344,%d0
    29e6:	3439 0002 2bbc 	movew 22bbc <_ZL4GDTR+0x4>,%d2
    29ec:	0242 0fff      	andiw #4095,%d2
    29f0:	0282 0000 ffff 	andil #65535,%d2
    29f6:	d480           	addl %d0,%d2
    29f8:	2079 0002 2474 	moveal 22474 <spi_ctl>,%a0
    29fe:	1210           	moveb %a0@,%d1
    2a00:	0001 0001      	orib #1,%d1
    2a04:	1081           	moveb %d1,%a0@
    2a06:	4240           	clrw %d0
    2a08:	4840           	swap %d0
    2a0a:	727f           	moveq #127,%d1
    2a0c:	4601           	notb %d1
    2a0e:	8280           	orl %d0,%d1
    2a10:	2f01           	movel %d1,%sp@-
    2a12:	4e93           	jsr %a3@
    2a14:	3002           	movew %d2,%d0
    2a16:	e048           	lsrw #8,%d0
    2a18:	7200           	moveq #0,%d1
    2a1a:	4601           	notb %d1
    2a1c:	c280           	andl %d0,%d1
    2a1e:	2f01           	movel %d1,%sp@-
    2a20:	4e93           	jsr %a3@
    2a22:	7000           	moveq #0,%d0
    2a24:	4600           	notb %d0
    2a26:	c082           	andl %d2,%d0
    2a28:	2f00           	movel %d0,%sp@-
    2a2a:	4e93           	jsr %a3@
    2a2c:	0243 00ff      	andiw #255,%d3
    2a30:	3543 0014      	movew %d3,%a2@(20)
    2a34:	50ea 0016      	st %a2@(22)
    2a38:	4fef 000c      	lea %sp@(12),%sp
    2a3c:	200a           	movel %a2,%d0
    2a3e:	4cdf 1c0c      	moveml %sp@+,%d2-%d3/%a2-%a4
    2a42:	4e75           	rts

00002a44 <_ZN7GDClass5flushEv>:
    2a44:	7000           	moveq #0,%d0
    2a46:	4e71           	nop
    2a48:	5280           	addql #1,%d0
    2a4a:	7201           	moveq #1,%d1
    2a4c:	b280           	cmpl %d0,%d1
    2a4e:	66f6           	bnes 2a46 <_ZN7GDClass5flushEv+0x2>
    2a50:	42a7           	clrl %sp@-
    2a52:	4879 0002 2bb8 	pea 22bb8 <_ZL4GDTR>
    2a58:	4eb9 0000 ea30 	jsr ea30 <_ZN11GDTransport7getfreeEt>
    2a5e:	508f           	addql #8,%sp
    2a60:	4e75           	rts

00002a62 <_ZN7GDClass4swapEv>:
    2a62:	48e7 0038      	moveml %a2-%a4,%sp@-
    2a66:	266f 0010      	moveal %sp@(16),%a3
    2a6a:	42a7           	clrl %sp@-
    2a6c:	45fa f258      	lea %pc@(1cc6 <_ZN11GDTransport5cmd32Em.constprop.0>),%a2
    2a70:	4e92           	jsr %a2@
    2a72:	4878 ff01      	pea ffffff01 <LESS+0xffffff02>
    2a76:	4e92           	jsr %a2@
    2a78:	4878 ff26      	pea ffffff26 <LESS+0xffffff27>
    2a7c:	4e92           	jsr %a2@
    2a7e:	3039 0002 2bbe 	movew 22bbe <_ZL4GDTR+0x6>,%d0
    2a84:	4fef 000c      	lea %sp@(12),%sp
    2a88:	49f9 0000 ea30 	lea ea30 <_ZN11GDTransport7getfreeEt>,%a4
    2a8e:	0c40 0003      	cmpiw #3,%d0
    2a92:	6358           	blss 2aec <_ZN7GDClass4swapEv+0x8a>
    2a94:	5879 0002 2bbc 	addqw #4,22bbc <_ZL4GDTR+0x4>
    2a9a:	5940           	subqw #4,%d0
    2a9c:	33c0 0002 2bbe 	movew %d0,22bbe <_ZL4GDTR+0x6>
    2aa2:	42a7           	clrl %sp@-
    2aa4:	45fa e87a      	lea %pc@(1320 <_ZN11GDTransport10transfer_bEh.constprop.0>),%a2
    2aa8:	4e92           	jsr %a2@
    2aaa:	4878 00ff      	pea ff <LINKIT+0x2>
    2aae:	4e92           	jsr %a2@
    2ab0:	4878 00ff      	pea ff <LINKIT+0x2>
    2ab4:	4e92           	jsr %a2@
    2ab6:	4878 00ff      	pea ff <LINKIT+0x2>
    2aba:	4e92           	jsr %a2@
    2abc:	50eb 0058      	st %a3@(88)
    2ac0:	177c 0004 000c 	moveb #4,%a3@(12)
    2ac6:	4fef 0010      	lea %sp@(16),%sp
    2aca:	7000           	moveq #0,%d0
    2acc:	4a80           	tstl %d0
    2ace:	6e0a           	bgts 2ada <_ZN7GDClass4swapEv+0x78>
    2ad0:	4e71           	nop
    2ad2:	5280           	addql #1,%d0
    2ad4:	7201           	moveq #1,%d1
    2ad6:	b280           	cmpl %d0,%d1
    2ad8:	66f6           	bnes 2ad0 <_ZN7GDClass4swapEv+0x6e>
    2ada:	42a7           	clrl %sp@-
    2adc:	4879 0002 2bb8 	pea 22bb8 <_ZL4GDTR>
    2ae2:	4e94           	jsr %a4@
    2ae4:	508f           	addql #8,%sp
    2ae6:	4cdf 1c00      	moveml %sp@+,%a2-%a4
    2aea:	4e75           	rts
    2aec:	4878 0004      	pea 4 <NEGATE>
    2af0:	4879 0002 2bb8 	pea 22bb8 <_ZL4GDTR>
    2af6:	4e94           	jsr %a4@
    2af8:	3039 0002 2bbe 	movew 22bbe <_ZL4GDTR+0x6>,%d0
    2afe:	508f           	addql #8,%sp
    2b00:	5879 0002 2bbc 	addqw #4,22bbc <_ZL4GDTR+0x4>
    2b06:	5940           	subqw #4,%d0
    2b08:	33c0 0002 2bbe 	movew %d0,22bbe <_ZL4GDTR+0x6>
    2b0e:	42a7           	clrl %sp@-
    2b10:	45fa e80e      	lea %pc@(1320 <_ZN11GDTransport10transfer_bEh.constprop.0>),%a2
    2b14:	4e92           	jsr %a2@
    2b16:	4878 00ff      	pea ff <LINKIT+0x2>
    2b1a:	4e92           	jsr %a2@
    2b1c:	4878 00ff      	pea ff <LINKIT+0x2>
    2b20:	4e92           	jsr %a2@
    2b22:	4878 00ff      	pea ff <LINKIT+0x2>
    2b26:	4e92           	jsr %a2@
    2b28:	50eb 0058      	st %a3@(88)
    2b2c:	177c 0004 000c 	moveb #4,%a3@(12)
    2b32:	4fef 0010      	lea %sp@(16),%sp
    2b36:	7000           	moveq #0,%d0
    2b38:	4a80           	tstl %d0
    2b3a:	6f94           	bles 2ad0 <_ZN7GDClass4swapEv+0x6e>
    2b3c:	609c           	bras 2ada <_ZN7GDClass4swapEv+0x78>

00002b3e <_ZN7GDClass12measure_freqEv>:
    2b3e:	2f0a           	movel %a2,%sp@-
    2b40:	2f02           	movel %d2,%sp@-
    2b42:	203c 0030 2008 	movel #3153928,%d0
    2b48:	4a39 0002 2bb6 	tstb 22bb6 <ft8xx_model>
    2b4e:	6606           	bnes 2b56 <_ZN7GDClass12measure_freqEv+0x18>
    2b50:	203c 0010 2408 	movel #1057800,%d0
    2b56:	2f00           	movel %d0,%sp@-
    2b58:	45fa ec3c      	lea %pc@(1796 <_ZN11GDTransport4rd32Em.constprop.0>),%a2
    2b5c:	4e92           	jsr %a2@
    2b5e:	2400           	movel %d0,%d2
    2b60:	588f           	addql #4,%sp
    2b62:	7200           	moveq #0,%d1
    2b64:	4e71           	nop
    2b66:	5281           	addql #1,%d1
    2b68:	0c81 0000 3d09 	cmpil #15625,%d1
    2b6e:	66f4           	bnes 2b64 <_ZN7GDClass12measure_freqEv+0x26>
    2b70:	203c 0030 2008 	movel #3153928,%d0
    2b76:	4a39 0002 2bb6 	tstb 22bb6 <ft8xx_model>
    2b7c:	6606           	bnes 2b84 <_ZN7GDClass12measure_freqEv+0x46>
    2b7e:	203c 0010 2408 	movel #1057800,%d0
    2b84:	2f00           	movel %d0,%sp@-
    2b86:	4e92           	jsr %a2@
    2b88:	9082           	subl %d2,%d0
    2b8a:	588f           	addql #4,%sp
    2b8c:	ed88           	lsll #6,%d0
    2b8e:	241f           	movel %sp@+,%d2
    2b90:	245f           	moveal %sp@+,%a2
    2b92:	4e75           	rts

00002b94 <_ZN7GDClass4tuneEv>:
    2b94:	48e7 3f3e      	moveml %d2-%d7/%a2-%fp,%sp@-
    2b98:	4203           	clrb %d3
    2b9a:	45fa ebfa      	lea %pc@(1796 <_ZN11GDTransport4rd32Em.constprop.0>),%a2
    2b9e:	283c 0030 2008 	movel #3153928,%d4
    2ba4:	2c7c 0010 2408 	moveal #1057800,%fp
    2baa:	2a7c 0030 8000 	moveal #3178496,%a5
    2bb0:	287c 0010 8000 	moveal #1081344,%a4
    2bb6:	2004           	movel %d4,%d0
    2bb8:	4a39 0002 2bb6 	tstb 22bb6 <ft8xx_model>
    2bbe:	6602           	bnes 2bc2 <_ZN7GDClass4tuneEv+0x2e>
    2bc0:	200e           	movel %fp,%d0
    2bc2:	2f00           	movel %d0,%sp@-
    2bc4:	4e92           	jsr %a2@
    2bc6:	2640           	moveal %d0,%a3
    2bc8:	588f           	addql #4,%sp
    2bca:	0c82 0000 3d08 	cmpil #15624,%d2
    2bd0:	6e0c           	bgts 2bde <_ZN7GDClass4tuneEv+0x4a>
    2bd2:	4e71           	nop
    2bd4:	5282           	addql #1,%d2
    2bd6:	0c82 0000 3d09 	cmpil #15625,%d2
    2bdc:	66f4           	bnes 2bd2 <_ZN7GDClass4tuneEv+0x3e>
    2bde:	2004           	movel %d4,%d0
    2be0:	4a39 0002 2bb6 	tstb 22bb6 <ft8xx_model>
    2be6:	6602           	bnes 2bea <_ZN7GDClass4tuneEv+0x56>
    2be8:	200e           	movel %fp,%d0
    2bea:	2f00           	movel %d0,%sp@-
    2bec:	4e92           	jsr %a2@
    2bee:	908b           	subl %a3,%d0
    2bf0:	ed88           	lsll #6,%d0
    2bf2:	588f           	addql #4,%sp
    2bf4:	0c80 02cd c5ff 	cmpil #47039999,%d0
    2bfa:	6200 0252      	bhiw 2e4e <_ZN7GDClass4tuneEv+0x2ba>
    2bfe:	4a39 0002 2bb6 	tstb 22bb6 <ft8xx_model>
    2c04:	6700 0276      	beqw 2e7c <_ZN7GDClass4tuneEv+0x2e8>
    2c08:	7e21           	moveq #33,%d7
    2c0a:	7280           	moveq #-128,%d1
    2c0c:	7cb0           	moveq #-80,%d6
    2c0e:	2279 0002 2474 	moveal 22474 <spi_ctl>,%a1
    2c14:	1a11           	moveb %a1@,%d5
    2c16:	0205 fffe      	andib #-2,%d5
    2c1a:	1285           	moveb %d5,%a1@
    2c1c:	2279 0002 2474 	moveal 22474 <spi_ctl>,%a1
    2c22:	1a11           	moveb %a1@,%d5
    2c24:	0005 0001      	orib #1,%d5
    2c28:	1285           	moveb %d5,%a1@
    2c2a:	2279 0002 2474 	moveal 22474 <spi_ctl>,%a1
    2c30:	1a11           	moveb %a1@,%d5
    2c32:	0805 0005      	btst #5,%d5
    2c36:	67f8           	beqs 2c30 <_ZN7GDClass4tuneEv+0x9c>
    2c38:	2079 0002 2470 	moveal 22470 <spi_data_in>,%a0
    2c3e:	1086           	moveb %d6,%a0@
    2c40:	2279 0002 2474 	moveal 22474 <spi_ctl>,%a1
    2c46:	1a11           	moveb %a1@,%d5
    2c48:	0005 0008      	orib #8,%d5
    2c4c:	1285           	moveb %d5,%a1@
    2c4e:	2279 0002 2474 	moveal 22474 <spi_ctl>,%a1
    2c54:	1a11           	moveb %a1@,%d5
    2c56:	0205 fff7      	andib #-9,%d5
    2c5a:	1285           	moveb %d5,%a1@
    2c5c:	2279 0002 2474 	moveal 22474 <spi_ctl>,%a1
    2c62:	1c11           	moveb %a1@,%d6
    2c64:	0806 0005      	btst #5,%d6
    2c68:	67f8           	beqs 2c62 <_ZN7GDClass4tuneEv+0xce>
    2c6a:	2079 0002 246c 	moveal 2246c <spi_data_out>,%a0
    2c70:	1a10           	moveb %a0@,%d5
    2c72:	1c11           	moveb %a1@,%d6
    2c74:	0806 0005      	btst #5,%d6
    2c78:	67f8           	beqs 2c72 <_ZN7GDClass4tuneEv+0xde>
    2c7a:	2079 0002 2470 	moveal 22470 <spi_data_in>,%a0
    2c80:	1087           	moveb %d7,%a0@
    2c82:	2279 0002 2474 	moveal 22474 <spi_ctl>,%a1
    2c88:	1e11           	moveb %a1@,%d7
    2c8a:	0007 0008      	orib #8,%d7
    2c8e:	1287           	moveb %d7,%a1@
    2c90:	2279 0002 2474 	moveal 22474 <spi_ctl>,%a1
    2c96:	1e11           	moveb %a1@,%d7
    2c98:	0207 fff7      	andib #-9,%d7
    2c9c:	1287           	moveb %d7,%a1@
    2c9e:	2279 0002 2474 	moveal 22474 <spi_ctl>,%a1
    2ca4:	1c11           	moveb %a1@,%d6
    2ca6:	0806 0005      	btst #5,%d6
    2caa:	67f8           	beqs 2ca4 <_ZN7GDClass4tuneEv+0x110>
    2cac:	2079 0002 246c 	moveal 2246c <spi_data_out>,%a0
    2cb2:	1e10           	moveb %a0@,%d7
    2cb4:	1c11           	moveb %a1@,%d6
    2cb6:	0806 0005      	btst #5,%d6
    2cba:	67f8           	beqs 2cb4 <_ZN7GDClass4tuneEv+0x120>
    2cbc:	2079 0002 2470 	moveal 22470 <spi_data_in>,%a0
    2cc2:	1081           	moveb %d1,%a0@
    2cc4:	2079 0002 2474 	moveal 22474 <spi_ctl>,%a0
    2cca:	1210           	moveb %a0@,%d1
    2ccc:	0001 0008      	orib #8,%d1
    2cd0:	1081           	moveb %d1,%a0@
    2cd2:	2079 0002 2474 	moveal 22474 <spi_ctl>,%a0
    2cd8:	1210           	moveb %a0@,%d1
    2cda:	0201 fff7      	andib #-9,%d1
    2cde:	1081           	moveb %d1,%a0@
    2ce0:	2279 0002 2474 	moveal 22474 <spi_ctl>,%a1
    2ce6:	1211           	moveb %a1@,%d1
    2ce8:	0801 0005      	btst #5,%d1
    2cec:	67f8           	beqs 2ce6 <_ZN7GDClass4tuneEv+0x152>
    2cee:	2079 0002 246c 	moveal 2246c <spi_data_out>,%a0
    2cf4:	1210           	moveb %a0@,%d1
    2cf6:	1211           	moveb %a1@,%d1
    2cf8:	0801 0005      	btst #5,%d1
    2cfc:	67f8           	beqs 2cf6 <_ZN7GDClass4tuneEv+0x162>
    2cfe:	2079 0002 2470 	moveal 22470 <spi_data_in>,%a0
    2d04:	1083           	moveb %d3,%a0@
    2d06:	2079 0002 2474 	moveal 22474 <spi_ctl>,%a0
    2d0c:	1210           	moveb %a0@,%d1
    2d0e:	0001 0008      	orib #8,%d1
    2d12:	1081           	moveb %d1,%a0@
    2d14:	2079 0002 2474 	moveal 22474 <spi_ctl>,%a0
    2d1a:	1210           	moveb %a0@,%d1
    2d1c:	0201 fff7      	andib #-9,%d1
    2d20:	1081           	moveb %d1,%a0@
    2d22:	2279 0002 2474 	moveal 22474 <spi_ctl>,%a1
    2d28:	1211           	moveb %a1@,%d1
    2d2a:	0801 0005      	btst #5,%d1
    2d2e:	67f8           	beqs 2d28 <_ZN7GDClass4tuneEv+0x194>
    2d30:	2079 0002 246c 	moveal 2246c <spi_data_out>,%a0
    2d36:	1210           	moveb %a0@,%d1
    2d38:	1211           	moveb %a1@,%d1
    2d3a:	0201 fffe      	andib #-2,%d1
    2d3e:	1281           	moveb %d1,%a1@
    2d40:	2e0d           	movel %a5,%d7
    2d42:	4a39 0002 2bb6 	tstb 22bb6 <ft8xx_model>
    2d48:	6602           	bnes 2d4c <_ZN7GDClass4tuneEv+0x1b8>
    2d4a:	2e0c           	movel %a4,%d7
    2d4c:	3239 0002 2bbc 	movew 22bbc <_ZL4GDTR+0x4>,%d1
    2d52:	0241 0fff      	andiw #4095,%d1
    2d56:	0281 0000 ffff 	andil #65535,%d1
    2d5c:	d287           	addl %d7,%d1
    2d5e:	2679 0002 2474 	moveal 22474 <spi_ctl>,%a3
    2d64:	1a13           	moveb %a3@,%d5
    2d66:	0005 0001      	orib #1,%d5
    2d6a:	1685           	moveb %d5,%a3@
    2d6c:	4247           	clrw %d7
    2d6e:	4847           	swap %d7
    2d70:	0007 ff80      	orib #-128,%d7
    2d74:	2279 0002 2474 	moveal 22474 <spi_ctl>,%a1
    2d7a:	1c11           	moveb %a1@,%d6
    2d7c:	0806 0005      	btst #5,%d6
    2d80:	67f8           	beqs 2d7a <_ZN7GDClass4tuneEv+0x1e6>
    2d82:	2079 0002 2470 	moveal 22470 <spi_data_in>,%a0
    2d88:	1087           	moveb %d7,%a0@
    2d8a:	2279 0002 2474 	moveal 22474 <spi_ctl>,%a1
    2d90:	1e11           	moveb %a1@,%d7
    2d92:	0007 0008      	orib #8,%d7
    2d96:	1287           	moveb %d7,%a1@
    2d98:	2279 0002 2474 	moveal 22474 <spi_ctl>,%a1
    2d9e:	1e11           	moveb %a1@,%d7
    2da0:	0207 fff7      	andib #-9,%d7
    2da4:	1287           	moveb %d7,%a1@
    2da6:	2279 0002 2474 	moveal 22474 <spi_ctl>,%a1
    2dac:	1c11           	moveb %a1@,%d6
    2dae:	0806 0005      	btst #5,%d6
    2db2:	67f8           	beqs 2dac <_ZN7GDClass4tuneEv+0x218>
    2db4:	2079 0002 246c 	moveal 2246c <spi_data_out>,%a0
    2dba:	1e10           	moveb %a0@,%d7
    2dbc:	3e01           	movew %d1,%d7
    2dbe:	e04f           	lsrw #8,%d7
    2dc0:	1c11           	moveb %a1@,%d6
    2dc2:	0806 0005      	btst #5,%d6
    2dc6:	67f8           	beqs 2dc0 <_ZN7GDClass4tuneEv+0x22c>
    2dc8:	2079 0002 2470 	moveal 22470 <spi_data_in>,%a0
    2dce:	1087           	moveb %d7,%a0@
    2dd0:	2279 0002 2474 	moveal 22474 <spi_ctl>,%a1
    2dd6:	1e11           	moveb %a1@,%d7
    2dd8:	0007 0008      	orib #8,%d7
    2ddc:	1287           	moveb %d7,%a1@
    2dde:	2279 0002 2474 	moveal 22474 <spi_ctl>,%a1
    2de4:	1e11           	moveb %a1@,%d7
    2de6:	0207 fff7      	andib #-9,%d7
    2dea:	1287           	moveb %d7,%a1@
    2dec:	2279 0002 2474 	moveal 22474 <spi_ctl>,%a1
    2df2:	1c11           	moveb %a1@,%d6
    2df4:	0806 0005      	btst #5,%d6
    2df8:	67f8           	beqs 2df2 <_ZN7GDClass4tuneEv+0x25e>
    2dfa:	2079 0002 246c 	moveal 2246c <spi_data_out>,%a0
    2e00:	1e10           	moveb %a0@,%d7
    2e02:	1c11           	moveb %a1@,%d6
    2e04:	0806 0005      	btst #5,%d6
    2e08:	67f8           	beqs 2e02 <_ZN7GDClass4tuneEv+0x26e>
    2e0a:	2079 0002 2470 	moveal 22470 <spi_data_in>,%a0
    2e10:	1081           	moveb %d1,%a0@
    2e12:	2079 0002 2474 	moveal 22474 <spi_ctl>,%a0
    2e18:	1210           	moveb %a0@,%d1
    2e1a:	0001 0008      	orib #8,%d1
    2e1e:	1081           	moveb %d1,%a0@
    2e20:	2079 0002 2474 	moveal 22474 <spi_ctl>,%a0
    2e26:	1210           	moveb %a0@,%d1
    2e28:	0201 fff7      	andib #-9,%d1
    2e2c:	1081           	moveb %d1,%a0@
    2e2e:	2079 0002 2474 	moveal 22474 <spi_ctl>,%a0
    2e34:	1210           	moveb %a0@,%d1
    2e36:	0801 0005      	btst #5,%d1
    2e3a:	67f8           	beqs 2e34 <_ZN7GDClass4tuneEv+0x2a0>
    2e3c:	2079 0002 246c 	moveal 2246c <spi_data_out>,%a0
    2e42:	1210           	moveb %a0@,%d1
    2e44:	5203           	addqb #1,%d3
    2e46:	0c03 001f      	cmpib #31,%d3
    2e4a:	6600 fd6a      	bnew 2bb6 <_ZN7GDClass4tuneEv+0x22>
    2e4e:	223c 0030 200c 	movel #3153932,%d1
    2e54:	4a39 0002 2bb6 	tstb 22bb6 <ft8xx_model>
    2e5a:	6606           	bnes 2e62 <_ZN7GDClass4tuneEv+0x2ce>
    2e5c:	223c 0010 240c 	movel #1057804,%d1
    2e62:	2f00           	movel %d0,%sp@-
    2e64:	2f01           	movel %d1,%sp@-
    2e66:	4879 0002 2bb8 	pea 22bb8 <_ZL4GDTR>
    2e6c:	4eb9 0000 e1f6 	jsr e1f6 <_ZN11GDTransport4wr32Emm>
    2e72:	4fef 000c      	lea %sp@(12),%sp
    2e76:	4cdf 7cfc      	moveml %sp@+,%d2-%d7/%a2-%fp
    2e7a:	4e75           	rts
    2e7c:	7e25           	moveq #37,%d7
    2e7e:	726c           	moveq #108,%d1
    2e80:	7c90           	moveq #-112,%d6
    2e82:	2279 0002 2474 	moveal 22474 <spi_ctl>,%a1
    2e88:	1a11           	moveb %a1@,%d5
    2e8a:	0205 fffe      	andib #-2,%d5
    2e8e:	1285           	moveb %d5,%a1@
    2e90:	2279 0002 2474 	moveal 22474 <spi_ctl>,%a1
    2e96:	1a11           	moveb %a1@,%d5
    2e98:	0005 0001      	orib #1,%d5
    2e9c:	1285           	moveb %d5,%a1@
    2e9e:	2279 0002 2474 	moveal 22474 <spi_ctl>,%a1
    2ea4:	6000 fd8a      	braw 2c30 <_ZN7GDClass4tuneEv+0x9c>

00002ea8 <_ZN7GDClass7storageEv>:
    2ea8:	2f0a           	movel %a2,%sp@-
    2eaa:	2f02           	movel %d2,%sp@-
    2eac:	2079 0002 2474 	moveal 22474 <spi_ctl>,%a0
    2eb2:	1010           	moveb %a0@,%d0
    2eb4:	0200 fffe      	andib #-2,%d0
    2eb8:	1080           	moveb %d0,%a0@
    2eba:	4eb9 0001 17c6 	jsr 117c6 <FindDrive>
    2ec0:	2079 0002 2474 	moveal 22474 <spi_ctl>,%a0
    2ec6:	1010           	moveb %a0@,%d0
    2ec8:	0200 fffe      	andib #-2,%d0
    2ecc:	1080           	moveb %d0,%a0@
    2ece:	203c 0030 8000 	movel #3178496,%d0
    2ed4:	4a39 0002 2bb6 	tstb 22bb6 <ft8xx_model>
    2eda:	6606           	bnes 2ee2 <_ZN7GDClass7storageEv+0x3a>
    2edc:	203c 0010 8000 	movel #1081344,%d0
    2ee2:	3439 0002 2bbc 	movew 22bbc <_ZL4GDTR+0x4>,%d2
    2ee8:	0242 0fff      	andiw #4095,%d2
    2eec:	0282 0000 ffff 	andil #65535,%d2
    2ef2:	d480           	addl %d0,%d2
    2ef4:	2079 0002 2474 	moveal 22474 <spi_ctl>,%a0
    2efa:	1210           	moveb %a0@,%d1
    2efc:	0001 0001      	orib #1,%d1
    2f00:	1081           	moveb %d1,%a0@
    2f02:	4240           	clrw %d0
    2f04:	4840           	swap %d0
    2f06:	727f           	moveq #127,%d1
    2f08:	4601           	notb %d1
    2f0a:	8280           	orl %d0,%d1
    2f0c:	2f01           	movel %d1,%sp@-
    2f0e:	45fa e4aa      	lea %pc@(13ba <_ZN11GDTransport10transfer_bEh.constprop.2.isra.0>),%a2
    2f12:	4e92           	jsr %a2@
    2f14:	3002           	movew %d2,%d0
    2f16:	e048           	lsrw #8,%d0
    2f18:	7200           	moveq #0,%d1
    2f1a:	4601           	notb %d1
    2f1c:	c280           	andl %d0,%d1
    2f1e:	2f01           	movel %d1,%sp@-
    2f20:	4e92           	jsr %a2@
    2f22:	508f           	addql #8,%sp
    2f24:	7000           	moveq #0,%d0
    2f26:	4600           	notb %d0
    2f28:	c082           	andl %d2,%d0
    2f2a:	2f40 000c      	movel %d0,%sp@(12)
    2f2e:	241f           	movel %sp@+,%d2
    2f30:	245f           	moveal %sp@+,%a2
    2f32:	6000 e486      	braw 13ba <_ZN11GDTransport10transfer_bEh.constprop.2.isra.0>

00002f36 <_ZN7GDClass4seedEt>:
    2f36:	302f 000a      	movew %sp@(10),%d0
    2f3a:	6602           	bnes 2f3e <_ZN7GDClass4seedEt+0x8>
    2f3c:	7007           	moveq #7,%d0
    2f3e:	0280 0000 ffff 	andil #65535,%d0
    2f44:	206f 0004      	moveal %sp@(4),%a0
    2f48:	2140 0054      	movel %d0,%a0@(84)
    2f4c:	4e75           	rts

00002f4e <_ZN7GDClass6randomEv>:
    2f4e:	206f 0004      	moveal %sp@(4),%a0
    2f52:	2228 0054      	movel %a0@(84),%d1
    2f56:	2001           	movel %d1,%d0
    2f58:	d081           	addl %d1,%d0
    2f5a:	d080           	addl %d0,%d0
    2f5c:	b380           	eorl %d1,%d0
    2f5e:	2200           	movel %d0,%d1
    2f60:	ea89           	lsrl #5,%d1
    2f62:	b380           	eorl %d1,%d0
    2f64:	2200           	movel %d0,%d1
    2f66:	d280           	addl %d0,%d1
    2f68:	b380           	eorl %d1,%d0
    2f6a:	2140 0054      	movel %d0,%a0@(84)
    2f6e:	4e75           	rts

00002f70 <_ZN7GDClass6randomEm>:
    2f70:	2f02           	movel %d2,%sp@-
    2f72:	206f 0008      	moveal %sp@(8),%a0
    2f76:	242f 000c      	movel %sp@(12),%d2
    2f7a:	2228 0054      	movel %a0@(84),%d1
    2f7e:	2001           	movel %d1,%d0
    2f80:	d081           	addl %d1,%d0
    2f82:	d080           	addl %d0,%d0
    2f84:	b380           	eorl %d1,%d0
    2f86:	2200           	movel %d0,%d1
    2f88:	ea89           	lsrl #5,%d1
    2f8a:	b380           	eorl %d1,%d0
    2f8c:	2200           	movel %d0,%d1
    2f8e:	d280           	addl %d0,%d1
    2f90:	b181           	eorl %d0,%d1
    2f92:	2141 0054      	movel %d1,%a0@(84)
    2f96:	2002           	movel %d2,%d0
    2f98:	4480           	negl %d0
    2f9a:	c082           	andl %d2,%d0
    2f9c:	b480           	cmpl %d0,%d2
    2f9e:	6712           	beqs 2fb2 <_ZN7GDClass6randomEm+0x42>
    2fa0:	2f02           	movel %d2,%sp@-
    2fa2:	3f01           	movew %d1,%sp@-
    2fa4:	4267           	clrw %sp@-
    2fa6:	4eb9 0001 fce4 	jsr 1fce4 <__mulsi3>
    2fac:	508f           	addql #8,%sp
    2fae:	241f           	movel %sp@+,%d2
    2fb0:	4e75           	rts
    2fb2:	5380           	subql #1,%d0
    2fb4:	c081           	andl %d1,%d0
    2fb6:	0280 0000 ffff 	andil #65535,%d0
    2fbc:	241f           	movel %sp@+,%d2
    2fbe:	4e75           	rts

00002fc0 <_ZN7GDClass6randomEtt>:
    2fc0:	48e7 3c00      	moveml %d2-%d5,%sp@-
    2fc4:	206f 0014      	moveal %sp@(20),%a0
    2fc8:	282f 0018      	movel %sp@(24),%d4
    2fcc:	7a00           	moveq #0,%d5
    2fce:	3a2f 001e      	movew %sp@(30),%d5
    2fd2:	7400           	moveq #0,%d2
    2fd4:	3404           	movew %d4,%d2
    2fd6:	2005           	movel %d5,%d0
    2fd8:	9082           	subl %d2,%d0
    2fda:	2628 0054      	movel %a0@(84),%d3
    2fde:	2203           	movel %d3,%d1
    2fe0:	d283           	addl %d3,%d1
    2fe2:	d281           	addl %d1,%d1
    2fe4:	b781           	eorl %d3,%d1
    2fe6:	2601           	movel %d1,%d3
    2fe8:	ea8b           	lsrl #5,%d3
    2fea:	b781           	eorl %d3,%d1
    2fec:	2601           	movel %d1,%d3
    2fee:	d681           	addl %d1,%d3
    2ff0:	b781           	eorl %d3,%d1
    2ff2:	2141 0054      	movel %d1,%a0@(84)
    2ff6:	9485           	subl %d5,%d2
    2ff8:	c480           	andl %d0,%d2
    2ffa:	b480           	cmpl %d0,%d2
    2ffc:	6716           	beqs 3014 <_ZN7GDClass6randomEtt+0x54>
    2ffe:	2f00           	movel %d0,%sp@-
    3000:	3f01           	movew %d1,%sp@-
    3002:	4267           	clrw %sp@-
    3004:	4eb9 0001 fce4 	jsr 1fce4 <__mulsi3>
    300a:	508f           	addql #8,%sp
    300c:	d044           	addw %d4,%d0
    300e:	4cdf 003c      	moveml %sp@+,%d2-%d5
    3012:	4e75           	rts
    3014:	5380           	subql #1,%d0
    3016:	c081           	andl %d1,%d0
    3018:	0280 0000 ffff 	andil #65535,%d0
    301e:	d044           	addw %d4,%d0
    3020:	4cdf 003c      	moveml %sp@+,%d2-%d5
    3024:	4e75           	rts

00003026 <_ZN7GDClass4rsinEst>:
    3026:	2f03           	movel %d3,%sp@-
    3028:	2f02           	movel %d2,%sp@-
    302a:	222f 0010      	movel %sp@(16),%d1
    302e:	242f 0014      	movel %sp@(20),%d2
    3032:	ec4a           	lsrw #6,%d2
    3034:	2002           	movel %d2,%d0
    3036:	0280 0000 01ff 	andil #511,%d0
    303c:	0802 0008      	btst #8,%d2
    3040:	670a           	beqs 304c <_ZN7GDClass4rsinEst+0x26>
    3042:	263c 0000 0200 	movel #512,%d3
    3048:	9680           	subl %d0,%d3
    304a:	2003           	movel %d3,%d0
    304c:	d080           	addl %d0,%d0
    304e:	41f9 0002 1a52 	lea 21a52 <_ZL6sintab>,%a0
    3054:	3030 0800      	movew %a0@(0000000000000000,%d0:l),%d0
    3058:	0280 0000 ffff 	andil #65535,%d0
    305e:	3041           	moveaw %d1,%a0
    3060:	2f08           	movel %a0,%sp@-
    3062:	2f00           	movel %d0,%sp@-
    3064:	4eb9 0001 fce4 	jsr 1fce4 <__mulsi3>
    306a:	508f           	addql #8,%sp
    306c:	4240           	clrw %d0
    306e:	4840           	swap %d0
    3070:	0802 0009      	btst #9,%d2
    3074:	6702           	beqs 3078 <_ZN7GDClass4rsinEst+0x52>
    3076:	4440           	negw %d0
    3078:	241f           	movel %sp@+,%d2
    307a:	261f           	movel %sp@+,%d3
    307c:	4e75           	rts

0000307e <_ZN7GDClass4rcosEst>:
    307e:	2f03           	movel %d3,%sp@-
    3080:	2f02           	movel %d2,%sp@-
    3082:	222f 0010      	movel %sp@(16),%d1
    3086:	342f 0016      	movew %sp@(22),%d2
    308a:	0642 4000      	addiw #16384,%d2
    308e:	ec4a           	lsrw #6,%d2
    3090:	2002           	movel %d2,%d0
    3092:	0280 0000 01ff 	andil #511,%d0
    3098:	0802 0008      	btst #8,%d2
    309c:	670a           	beqs 30a8 <_ZN7GDClass4rcosEst+0x2a>
    309e:	263c 0000 0200 	movel #512,%d3
    30a4:	9680           	subl %d0,%d3
    30a6:	2003           	movel %d3,%d0
    30a8:	d080           	addl %d0,%d0
    30aa:	41f9 0002 1a52 	lea 21a52 <_ZL6sintab>,%a0
    30b0:	3030 0800      	movew %a0@(0000000000000000,%d0:l),%d0
    30b4:	0280 0000 ffff 	andil #65535,%d0
    30ba:	3041           	moveaw %d1,%a0
    30bc:	2f08           	movel %a0,%sp@-
    30be:	2f00           	movel %d0,%sp@-
    30c0:	4eb9 0001 fce4 	jsr 1fce4 <__mulsi3>
    30c6:	508f           	addql #8,%sp
    30c8:	4240           	clrw %d0
    30ca:	4840           	swap %d0
    30cc:	0802 0009      	btst #9,%d2
    30d0:	6702           	beqs 30d4 <_ZN7GDClass4rcosEst+0x56>
    30d2:	4440           	negw %d0
    30d4:	241f           	movel %sp@+,%d2
    30d6:	261f           	movel %sp@+,%d3
    30d8:	4e75           	rts

000030da <_ZN7GDClass5polarERiS0_st>:
    30da:	48e7 3038      	moveml %d2-%d3/%a2-%a4,%sp@-
    30de:	246f 0024      	moveal %sp@(36),%a2
    30e2:	242f 0028      	movel %sp@(40),%d2
    30e6:	3602           	movew %d2,%d3
    30e8:	ec4b           	lsrw #6,%d3
    30ea:	2003           	movel %d3,%d0
    30ec:	0280 0000 01ff 	andil #511,%d0
    30f2:	0803 0008      	btst #8,%d3
    30f6:	670a           	beqs 3102 <_ZN7GDClass5polarERiS0_st+0x28>
    30f8:	223c 0000 0200 	movel #512,%d1
    30fe:	9280           	subl %d0,%d1
    3100:	2001           	movel %d1,%d0
    3102:	344a           	moveaw %a2,%a2
    3104:	47f9 0002 1a52 	lea 21a52 <_ZL6sintab>,%a3
    310a:	d080           	addl %d0,%d0
    310c:	3033 0800      	movew %a3@(0000000000000000,%d0:l),%d0
    3110:	0280 0000 ffff 	andil #65535,%d0
    3116:	49f9 0001 fce4 	lea 1fce4 <__mulsi3>,%a4
    311c:	2f0a           	movel %a2,%sp@-
    311e:	2f00           	movel %d0,%sp@-
    3120:	4e94           	jsr %a4@
    3122:	508f           	addql #8,%sp
    3124:	4240           	clrw %d0
    3126:	4840           	swap %d0
    3128:	0803 0009      	btst #9,%d3
    312c:	6702           	beqs 3130 <_ZN7GDClass5polarERiS0_st+0x56>
    312e:	4440           	negw %d0
    3130:	48c0           	extl %d0
    3132:	206f 001c      	moveal %sp@(28),%a0
    3136:	4480           	negl %d0
    3138:	2080           	movel %d0,%a0@
    313a:	0642 4000      	addiw #16384,%d2
    313e:	ec4a           	lsrw #6,%d2
    3140:	2002           	movel %d2,%d0
    3142:	0280 0000 01ff 	andil #511,%d0
    3148:	0802 0008      	btst #8,%d2
    314c:	670a           	beqs 3158 <_ZN7GDClass5polarERiS0_st+0x7e>
    314e:	223c 0000 0200 	movel #512,%d1
    3154:	9280           	subl %d0,%d1
    3156:	2001           	movel %d1,%d0
    3158:	d080           	addl %d0,%d0
    315a:	3033 0800      	movew %a3@(0000000000000000,%d0:l),%d0
    315e:	0280 0000 ffff 	andil #65535,%d0
    3164:	2f0a           	movel %a2,%sp@-
    3166:	2f00           	movel %d0,%sp@-
    3168:	4e94           	jsr %a4@
    316a:	508f           	addql #8,%sp
    316c:	4240           	clrw %d0
    316e:	4840           	swap %d0
    3170:	0802 0009      	btst #9,%d2
    3174:	6702           	beqs 3178 <_ZN7GDClass5polarERiS0_st+0x9e>
    3176:	4440           	negw %d0
    3178:	206f 0020      	moveal %sp@(32),%a0
    317c:	3240           	moveaw %d0,%a1
    317e:	2089           	movel %a1,%a0@
    3180:	4cdf 1c0c      	moveml %sp@+,%d2-%d3/%a2-%a4
    3184:	4e75           	rts

00003186 <_ZN7GDClass5atan2Ess>:
    3186:	48e7 3800      	moveml %d2-%d4,%sp@-
    318a:	242f 0014      	movel %sp@(20),%d2
    318e:	262f 0018      	movel %sp@(24),%d3
    3192:	3802           	movew %d2,%d4
    3194:	3003           	movew %d3,%d0
    3196:	0c43 8001      	cmpiw #-32767,%d3
    319a:	6c04           	bges 31a0 <_ZN7GDClass5atan2Ess+0x1a>
    319c:	303c 8001      	movew #-32767,%d0
    31a0:	3202           	movew %d2,%d1
    31a2:	0c44 8001      	cmpiw #-32767,%d4
    31a6:	6c04           	bges 31ac <_ZN7GDClass5atan2Ess+0x26>
    31a8:	323c 8001      	movew #-32767,%d1
    31ac:	4a43           	tstw %d3
    31ae:	5fc3           	sle %d3
    31b0:	4a42           	tstw %d2
    31b2:	5ec2           	sgt %d2
    31b4:	b602           	cmpb %d2,%d3
    31b6:	6700 00aa      	beqw 3262 <_ZN7GDClass5atan2Ess+0xdc>
    31ba:	3041           	moveaw %d1,%a0
    31bc:	3200           	movew %d0,%d1
    31be:	3008           	movew %a0,%d0
    31c0:	363c c000      	movew #-16384,%d3
    31c4:	307c 4000      	moveaw #16384,%a0
    31c8:	4a40           	tstw %d0
    31ca:	6f00 008a      	blew 3256 <_ZN7GDClass5atan2Ess+0xd0>
    31ce:	4a41           	tstw %d1
    31d0:	6d7e           	blts 3250 <_ZN7GDClass5atan2Ess+0xca>
    31d2:	3401           	movew %d1,%d2
    31d4:	3800           	movew %d0,%d4
    31d6:	8841           	orw %d1,%d4
    31d8:	0284 0000 ff80 	andil #65408,%d4
    31de:	b240           	cmpw %d0,%d1
    31e0:	6c28           	bges 320a <_ZN7GDClass5atan2Ess+0x84>
    31e2:	0a43 3fff      	eoriw #16383,%d3
    31e6:	3400           	movew %d0,%d2
    31e8:	3001           	movew %d1,%d0
    31ea:	4a84           	tstl %d4
    31ec:	6736           	beqs 3224 <_ZN7GDClass5atan2Ess+0x9e>
    31ee:	e240           	asrw #1,%d0
    31f0:	e242           	asrw #1,%d2
    31f2:	3200           	movew %d0,%d1
    31f4:	8242           	orw %d2,%d1
    31f6:	0281 0000 ff80 	andil #65408,%d1
    31fc:	66f0           	bnes 31ee <_ZN7GDClass5atan2Ess+0x68>
    31fe:	4a42           	tstw %d2
    3200:	661e           	bnes 3220 <_ZN7GDClass5atan2Ess+0x9a>
    3202:	3003           	movew %d3,%d0
    3204:	4cdf 001c      	moveml %sp@+,%d2-%d4
    3208:	4e75           	rts
    320a:	4a84           	tstl %d4
    320c:	67f0           	beqs 31fe <_ZN7GDClass5atan2Ess+0x78>
    320e:	e240           	asrw #1,%d0
    3210:	e242           	asrw #1,%d2
    3212:	3200           	movew %d0,%d1
    3214:	8242           	orw %d2,%d1
    3216:	0281 0000 ff80 	andil #65408,%d1
    321c:	66d0           	bnes 31ee <_ZN7GDClass5atan2Ess+0x68>
    321e:	60de           	bras 31fe <_ZN7GDClass5atan2Ess+0x78>
    3220:	b042           	cmpw %d2,%d0
    3222:	674c           	beqs 3270 <_ZN7GDClass5atan2Ess+0xea>
    3224:	48c0           	extl %d0
    3226:	e188           	lsll #8,%d0
    3228:	3042           	moveaw %d2,%a0
    322a:	2f08           	movel %a0,%sp@-
    322c:	2f00           	movel %d0,%sp@-
    322e:	4eb9 0001 fd64 	jsr 1fd64 <__divsi3>
    3234:	508f           	addql #8,%sp
    3236:	41f9 0002 1952 	lea 21952 <_ZL5atan8>,%a0
    323c:	1030 0800      	moveb %a0@(0000000000000000,%d0:l),%d0
    3240:	0240 00ff      	andiw #255,%d0
    3244:	eb48           	lslw #5,%d0
    3246:	b143           	eorw %d0,%d3
    3248:	3003           	movew %d3,%d0
    324a:	4cdf 001c      	moveml %sp@+,%d2-%d4
    324e:	4e75           	rts
    3250:	4441           	negw %d1
    3252:	6000 ff7e      	braw 31d2 <_ZN7GDClass5atan2Ess+0x4c>
    3256:	4440           	negw %d0
    3258:	3608           	movew %a0,%d3
    325a:	4a41           	tstw %d1
    325c:	6c00 ff74      	bgew 31d2 <_ZN7GDClass5atan2Ess+0x4c>
    3260:	60ee           	bras 3250 <_ZN7GDClass5atan2Ess+0xca>
    3262:	363c 8000      	movew #-32768,%d3
    3266:	91c8           	subal %a0,%a0
    3268:	4a40           	tstw %d0
    326a:	6e00 ff62      	bgtw 31ce <_ZN7GDClass5atan2Ess+0x48>
    326e:	60e6           	bras 3256 <_ZN7GDClass5atan2Ess+0xd0>
    3270:	0a43 2000      	eoriw #8192,%d3
    3274:	3003           	movew %d3,%d0
    3276:	4cdf 001c      	moveml %sp@+,%d2-%d4
    327a:	4e75           	rts

0000327c <_ZN7GDClass5alignEh>:
    327c:	48e7 3020      	moveml %d2-%d3/%a2,%sp@-
    3280:	142f 0013      	moveb %sp@(19),%d2
    3284:	5202           	addqb #1,%d2
    3286:	102f 0013      	moveb %sp@(19),%d0
    328a:	0200 0003      	andib #3,%d0
    328e:	263c 0002 2bb8 	movel #142264,%d3
    3294:	45f9 0000 ea30 	lea ea30 <_ZN11GDTransport7getfreeEt>,%a2
    329a:	4a00           	tstb %d0
    329c:	6700 009c      	beqw 333a <_ZN7GDClass5alignEh+0xbe>
    32a0:	3039 0002 2bbe 	movew 22bbe <_ZL4GDTR+0x6>,%d0
    32a6:	676c           	beqs 3314 <_ZN7GDClass5alignEh+0x98>
    32a8:	5279 0002 2bbc 	addqw #1,22bbc <_ZL4GDTR+0x4>
    32ae:	5340           	subqw #1,%d0
    32b0:	33c0 0002 2bbe 	movew %d0,22bbe <_ZL4GDTR+0x6>
    32b6:	2079 0002 2474 	moveal 22474 <spi_ctl>,%a0
    32bc:	1010           	moveb %a0@,%d0
    32be:	0800 0005      	btst #5,%d0
    32c2:	67f8           	beqs 32bc <_ZN7GDClass5alignEh+0x40>
    32c4:	2079 0002 2470 	moveal 22470 <spi_data_in>,%a0
    32ca:	10bc 0000      	moveb #0,%a0@
    32ce:	2079 0002 2474 	moveal 22474 <spi_ctl>,%a0
    32d4:	1010           	moveb %a0@,%d0
    32d6:	0000 0008      	orib #8,%d0
    32da:	1080           	moveb %d0,%a0@
    32dc:	2079 0002 2474 	moveal 22474 <spi_ctl>,%a0
    32e2:	1010           	moveb %a0@,%d0
    32e4:	0200 fff7      	andib #-9,%d0
    32e8:	1080           	moveb %d0,%a0@
    32ea:	2079 0002 2474 	moveal 22474 <spi_ctl>,%a0
    32f0:	1010           	moveb %a0@,%d0
    32f2:	0800 0005      	btst #5,%d0
    32f6:	67f8           	beqs 32f0 <_ZN7GDClass5alignEh+0x74>
    32f8:	2079 0002 246c 	moveal 2246c <spi_data_out>,%a0
    32fe:	1010           	moveb %a0@,%d0
    3300:	1002           	moveb %d2,%d0
    3302:	5200           	addqb #1,%d0
    3304:	0202 0003      	andib #3,%d2
    3308:	6730           	beqs 333a <_ZN7GDClass5alignEh+0xbe>
    330a:	1400           	moveb %d0,%d2
    330c:	3039 0002 2bbe 	movew 22bbe <_ZL4GDTR+0x6>,%d0
    3312:	6694           	bnes 32a8 <_ZN7GDClass5alignEh+0x2c>
    3314:	4878 0001      	pea 1 <ADD>
    3318:	2f03           	movel %d3,%sp@-
    331a:	4e92           	jsr %a2@
    331c:	3039 0002 2bbe 	movew 22bbe <_ZL4GDTR+0x6>,%d0
    3322:	508f           	addql #8,%sp
    3324:	5279 0002 2bbc 	addqw #1,22bbc <_ZL4GDTR+0x4>
    332a:	5340           	subqw #1,%d0
    332c:	33c0 0002 2bbe 	movew %d0,22bbe <_ZL4GDTR+0x6>
    3332:	2079 0002 2474 	moveal 22474 <spi_ctl>,%a0
    3338:	6082           	bras 32bc <_ZN7GDClass5alignEh+0x40>
    333a:	4cdf 040c      	moveml %sp@+,%d2-%d3/%a2
    333e:	4e75           	rts

00003340 <_ZN7GDClass2cHEt>:
    3340:	48e7 3800      	moveml %d2-%d4,%sp@-
    3344:	242f 0010      	movel %sp@(16),%d2
    3348:	7600           	moveq #0,%d3
    334a:	1602           	moveb %d2,%d3
    334c:	283c 0002 2bb8 	movel #142264,%d4
    3352:	3039 0002 2bbe 	movew 22bbe <_ZL4GDTR+0x6>,%d0
    3358:	6774           	beqs 33ce <_ZN7GDClass2cHEt+0x8e>
    335a:	5279 0002 2bbc 	addqw #1,22bbc <_ZL4GDTR+0x4>
    3360:	5340           	subqw #1,%d0
    3362:	33c0 0002 2bbe 	movew %d0,22bbe <_ZL4GDTR+0x6>
    3368:	2f03           	movel %d3,%sp@-
    336a:	4eba dfb4      	jsr %pc@(1320 <_ZN11GDTransport10transfer_bEh.constprop.0>)
    336e:	e04a           	lsrw #8,%d2
    3370:	3039 0002 2bbe 	movew 22bbe <_ZL4GDTR+0x6>,%d0
    3376:	588f           	addql #4,%sp
    3378:	6720           	beqs 339a <_ZN7GDClass2cHEt+0x5a>
    337a:	5279 0002 2bbc 	addqw #1,22bbc <_ZL4GDTR+0x4>
    3380:	5340           	subqw #1,%d0
    3382:	33c0 0002 2bbe 	movew %d0,22bbe <_ZL4GDTR+0x6>
    3388:	7000           	moveq #0,%d0
    338a:	4600           	notb %d0
    338c:	c082           	andl %d2,%d0
    338e:	2f40 0010      	movel %d0,%sp@(16)
    3392:	4cdf 001c      	moveml %sp@+,%d2-%d4
    3396:	6000 df88      	braw 1320 <_ZN11GDTransport10transfer_bEh.constprop.0>
    339a:	4878 0001      	pea 1 <ADD>
    339e:	2f04           	movel %d4,%sp@-
    33a0:	4eb9 0000 ea30 	jsr ea30 <_ZN11GDTransport7getfreeEt>
    33a6:	3039 0002 2bbe 	movew 22bbe <_ZL4GDTR+0x6>,%d0
    33ac:	508f           	addql #8,%sp
    33ae:	5279 0002 2bbc 	addqw #1,22bbc <_ZL4GDTR+0x4>
    33b4:	5340           	subqw #1,%d0
    33b6:	33c0 0002 2bbe 	movew %d0,22bbe <_ZL4GDTR+0x6>
    33bc:	7000           	moveq #0,%d0
    33be:	4600           	notb %d0
    33c0:	c082           	andl %d2,%d0
    33c2:	2f40 0010      	movel %d0,%sp@(16)
    33c6:	4cdf 001c      	moveml %sp@+,%d2-%d4
    33ca:	6000 df54      	braw 1320 <_ZN11GDTransport10transfer_bEh.constprop.0>
    33ce:	4878 0001      	pea 1 <ADD>
    33d2:	2f04           	movel %d4,%sp@-
    33d4:	4eb9 0000 ea30 	jsr ea30 <_ZN11GDTransport7getfreeEt>
    33da:	3039 0002 2bbe 	movew 22bbe <_ZL4GDTR+0x6>,%d0
    33e0:	508f           	addql #8,%sp
    33e2:	5279 0002 2bbc 	addqw #1,22bbc <_ZL4GDTR+0x4>
    33e8:	5340           	subqw #1,%d0
    33ea:	33c0 0002 2bbe 	movew %d0,22bbe <_ZL4GDTR+0x6>
    33f0:	2f03           	movel %d3,%sp@-
    33f2:	4eba df2c      	jsr %pc@(1320 <_ZN11GDTransport10transfer_bEh.constprop.0>)
    33f6:	e04a           	lsrw #8,%d2
    33f8:	3039 0002 2bbe 	movew 22bbe <_ZL4GDTR+0x6>,%d0
    33fe:	588f           	addql #4,%sp
    3400:	6600 ff78      	bnew 337a <_ZN7GDClass2cHEt+0x3a>
    3404:	6094           	bras 339a <_ZN7GDClass2cHEt+0x5a>

00003406 <_ZN7GDClass2chEs>:
    3406:	7000           	moveq #0,%d0
    3408:	302f 0006      	movew %sp@(6),%d0
    340c:	2f40 0004      	movel %d0,%sp@(4)
    3410:	6000 ff2e      	braw 3340 <_ZN7GDClass2cHEt>

00003414 <_ZN7GDClass2cIEm>:
    3414:	2f0a           	movel %a2,%sp@-
    3416:	2f02           	movel %d2,%sp@-
    3418:	242f 000c      	movel %sp@(12),%d2
    341c:	3039 0002 2bbe 	movew 22bbe <_ZL4GDTR+0x6>,%d0
    3422:	0c40 0003      	cmpiw #3,%d0
    3426:	6350           	blss 3478 <_ZN7GDClass2cIEm+0x64>
    3428:	5879 0002 2bbc 	addqw #4,22bbc <_ZL4GDTR+0x4>
    342e:	5940           	subqw #4,%d0
    3430:	33c0 0002 2bbe 	movew %d0,22bbe <_ZL4GDTR+0x6>
    3436:	7000           	moveq #0,%d0
    3438:	4600           	notb %d0
    343a:	c082           	andl %d2,%d0
    343c:	2f00           	movel %d0,%sp@-
    343e:	45fa dee0      	lea %pc@(1320 <_ZN11GDTransport10transfer_bEh.constprop.0>),%a2
    3442:	4e92           	jsr %a2@
    3444:	2002           	movel %d2,%d0
    3446:	e088           	lsrl #8,%d0
    3448:	7200           	moveq #0,%d1
    344a:	4601           	notb %d1
    344c:	c280           	andl %d0,%d1
    344e:	2f01           	movel %d1,%sp@-
    3450:	4e92           	jsr %a2@
    3452:	2002           	movel %d2,%d0
    3454:	4240           	clrw %d0
    3456:	4840           	swap %d0
    3458:	7200           	moveq #0,%d1
    345a:	4601           	notb %d1
    345c:	c280           	andl %d0,%d1
    345e:	2f01           	movel %d1,%sp@-
    3460:	4e92           	jsr %a2@
    3462:	4fef 000c      	lea %sp@(12),%sp
    3466:	4242           	clrw %d2
    3468:	4842           	swap %d2
    346a:	e04a           	lsrw #8,%d2
    346c:	2f42 000c      	movel %d2,%sp@(12)
    3470:	241f           	movel %sp@+,%d2
    3472:	245f           	moveal %sp@+,%a2
    3474:	6000 deaa      	braw 1320 <_ZN11GDTransport10transfer_bEh.constprop.0>
    3478:	4878 0004      	pea 4 <NEGATE>
    347c:	4879 0002 2bb8 	pea 22bb8 <_ZL4GDTR>
    3482:	4eb9 0000 ea30 	jsr ea30 <_ZN11GDTransport7getfreeEt>
    3488:	3039 0002 2bbe 	movew 22bbe <_ZL4GDTR+0x6>,%d0
    348e:	508f           	addql #8,%sp
    3490:	5879 0002 2bbc 	addqw #4,22bbc <_ZL4GDTR+0x4>
    3496:	5940           	subqw #4,%d0
    3498:	33c0 0002 2bbe 	movew %d0,22bbe <_ZL4GDTR+0x6>
    349e:	7000           	moveq #0,%d0
    34a0:	4600           	notb %d0
    34a2:	c082           	andl %d2,%d0
    34a4:	2f00           	movel %d0,%sp@-
    34a6:	45fa de78      	lea %pc@(1320 <_ZN11GDTransport10transfer_bEh.constprop.0>),%a2
    34aa:	4e92           	jsr %a2@
    34ac:	2002           	movel %d2,%d0
    34ae:	e088           	lsrl #8,%d0
    34b0:	7200           	moveq #0,%d1
    34b2:	4601           	notb %d1
    34b4:	c280           	andl %d0,%d1
    34b6:	2f01           	movel %d1,%sp@-
    34b8:	4e92           	jsr %a2@
    34ba:	2002           	movel %d2,%d0
    34bc:	4240           	clrw %d0
    34be:	4840           	swap %d0
    34c0:	7200           	moveq #0,%d1
    34c2:	4601           	notb %d1
    34c4:	c280           	andl %d0,%d1
    34c6:	2f01           	movel %d1,%sp@-
    34c8:	4e92           	jsr %a2@
    34ca:	4fef 000c      	lea %sp@(12),%sp
    34ce:	4242           	clrw %d2
    34d0:	4842           	swap %d2
    34d2:	e04a           	lsrw #8,%d2
    34d4:	2f42 000c      	movel %d2,%sp@(12)
    34d8:	241f           	movel %sp@+,%d2
    34da:	245f           	moveal %sp@+,%a2
    34dc:	6000 de42      	braw 1320 <_ZN11GDTransport10transfer_bEh.constprop.0>

000034e0 <_ZN7GDClass7cFFFFFFEh>:
    34e0:	2f0a           	movel %a2,%sp@-
    34e2:	2f02           	movel %d2,%sp@-
    34e4:	7400           	moveq #0,%d2
    34e6:	142f 000f      	moveb %sp@(15),%d2
    34ea:	70ff           	moveq #-1,%d0
    34ec:	4600           	notb %d0
    34ee:	8480           	orl %d0,%d2
    34f0:	3039 0002 2bbe 	movew 22bbe <_ZL4GDTR+0x6>,%d0
    34f6:	0c40 0003      	cmpiw #3,%d0
    34fa:	634c           	blss 3548 <_ZN7GDClass7cFFFFFFEh+0x68>
    34fc:	5879 0002 2bbc 	addqw #4,22bbc <_ZL4GDTR+0x4>
    3502:	5940           	subqw #4,%d0
    3504:	33c0 0002 2bbe 	movew %d0,22bbe <_ZL4GDTR+0x6>
    350a:	7200           	moveq #0,%d1
    350c:	4601           	notb %d1
    350e:	c282           	andl %d2,%d1
    3510:	2f01           	movel %d1,%sp@-
    3512:	45fa de0c      	lea %pc@(1320 <_ZN11GDTransport10transfer_bEh.constprop.0>),%a2
    3516:	4e92           	jsr %a2@
    3518:	2002           	movel %d2,%d0
    351a:	e088           	lsrl #8,%d0
    351c:	7200           	moveq #0,%d1
    351e:	4601           	notb %d1
    3520:	c280           	andl %d0,%d1
    3522:	2f01           	movel %d1,%sp@-
    3524:	4e92           	jsr %a2@
    3526:	2002           	movel %d2,%d0
    3528:	4240           	clrw %d0
    352a:	4840           	swap %d0
    352c:	e048           	lsrw #8,%d0
    352e:	2f00           	movel %d0,%sp@-
    3530:	4e92           	jsr %a2@
    3532:	4fef 000c      	lea %sp@(12),%sp
    3536:	4242           	clrw %d2
    3538:	4842           	swap %d2
    353a:	e04a           	lsrw #8,%d2
    353c:	2f42 000c      	movel %d2,%sp@(12)
    3540:	241f           	movel %sp@+,%d2
    3542:	245f           	moveal %sp@+,%a2
    3544:	6000 ddda      	braw 1320 <_ZN11GDTransport10transfer_bEh.constprop.0>
    3548:	4878 0004      	pea 4 <NEGATE>
    354c:	4879 0002 2bb8 	pea 22bb8 <_ZL4GDTR>
    3552:	4eb9 0000 ea30 	jsr ea30 <_ZN11GDTransport7getfreeEt>
    3558:	3039 0002 2bbe 	movew 22bbe <_ZL4GDTR+0x6>,%d0
    355e:	508f           	addql #8,%sp
    3560:	5879 0002 2bbc 	addqw #4,22bbc <_ZL4GDTR+0x4>
    3566:	5940           	subqw #4,%d0
    3568:	33c0 0002 2bbe 	movew %d0,22bbe <_ZL4GDTR+0x6>
    356e:	7200           	moveq #0,%d1
    3570:	4601           	notb %d1
    3572:	c282           	andl %d2,%d1
    3574:	2f01           	movel %d1,%sp@-
    3576:	45fa dda8      	lea %pc@(1320 <_ZN11GDTransport10transfer_bEh.constprop.0>),%a2
    357a:	4e92           	jsr %a2@
    357c:	2002           	movel %d2,%d0
    357e:	e088           	lsrl #8,%d0
    3580:	7200           	moveq #0,%d1
    3582:	4601           	notb %d1
    3584:	c280           	andl %d0,%d1
    3586:	2f01           	movel %d1,%sp@-
    3588:	4e92           	jsr %a2@
    358a:	2002           	movel %d2,%d0
    358c:	4240           	clrw %d0
    358e:	4840           	swap %d0
    3590:	e048           	lsrw #8,%d0
    3592:	2f00           	movel %d0,%sp@-
    3594:	4e92           	jsr %a2@
    3596:	4fef 000c      	lea %sp@(12),%sp
    359a:	4242           	clrw %d2
    359c:	4842           	swap %d2
    359e:	e04a           	lsrw #8,%d2
    35a0:	2f42 000c      	movel %d2,%sp@(12)
    35a4:	241f           	movel %sp@+,%d2
    35a6:	245f           	moveal %sp@+,%a2
    35a8:	6000 dd76      	braw 1320 <_ZN11GDTransport10transfer_bEh.constprop.0>

000035ac <_ZN7GDClass2ciEl>:
    35ac:	2f0a           	movel %a2,%sp@-
    35ae:	2f02           	movel %d2,%sp@-
    35b0:	242f 000c      	movel %sp@(12),%d2
    35b4:	3039 0002 2bbe 	movew 22bbe <_ZL4GDTR+0x6>,%d0
    35ba:	0c40 0003      	cmpiw #3,%d0
    35be:	6350           	blss 3610 <_ZN7GDClass2ciEl+0x64>
    35c0:	5879 0002 2bbc 	addqw #4,22bbc <_ZL4GDTR+0x4>
    35c6:	5940           	subqw #4,%d0
    35c8:	33c0 0002 2bbe 	movew %d0,22bbe <_ZL4GDTR+0x6>
    35ce:	7000           	moveq #0,%d0
    35d0:	4600           	notb %d0
    35d2:	c082           	andl %d2,%d0
    35d4:	2f00           	movel %d0,%sp@-
    35d6:	45fa dd48      	lea %pc@(1320 <_ZN11GDTransport10transfer_bEh.constprop.0>),%a2
    35da:	4e92           	jsr %a2@
    35dc:	2002           	movel %d2,%d0
    35de:	e088           	lsrl #8,%d0
    35e0:	7200           	moveq #0,%d1
    35e2:	4601           	notb %d1
    35e4:	c280           	andl %d0,%d1
    35e6:	2f01           	movel %d1,%sp@-
    35e8:	4e92           	jsr %a2@
    35ea:	2002           	movel %d2,%d0
    35ec:	4240           	clrw %d0
    35ee:	4840           	swap %d0
    35f0:	7200           	moveq #0,%d1
    35f2:	4601           	notb %d1
    35f4:	c280           	andl %d0,%d1
    35f6:	2f01           	movel %d1,%sp@-
    35f8:	4e92           	jsr %a2@
    35fa:	4fef 000c      	lea %sp@(12),%sp
    35fe:	4242           	clrw %d2
    3600:	4842           	swap %d2
    3602:	e04a           	lsrw #8,%d2
    3604:	2f42 000c      	movel %d2,%sp@(12)
    3608:	241f           	movel %sp@+,%d2
    360a:	245f           	moveal %sp@+,%a2
    360c:	6000 dd12      	braw 1320 <_ZN11GDTransport10transfer_bEh.constprop.0>
    3610:	4878 0004      	pea 4 <NEGATE>
    3614:	4879 0002 2bb8 	pea 22bb8 <_ZL4GDTR>
    361a:	4eb9 0000 ea30 	jsr ea30 <_ZN11GDTransport7getfreeEt>
    3620:	3039 0002 2bbe 	movew 22bbe <_ZL4GDTR+0x6>,%d0
    3626:	508f           	addql #8,%sp
    3628:	5879 0002 2bbc 	addqw #4,22bbc <_ZL4GDTR+0x4>
    362e:	5940           	subqw #4,%d0
    3630:	33c0 0002 2bbe 	movew %d0,22bbe <_ZL4GDTR+0x6>
    3636:	7000           	moveq #0,%d0
    3638:	4600           	notb %d0
    363a:	c082           	andl %d2,%d0
    363c:	2f00           	movel %d0,%sp@-
    363e:	45fa dce0      	lea %pc@(1320 <_ZN11GDTransport10transfer_bEh.constprop.0>),%a2
    3642:	4e92           	jsr %a2@
    3644:	2002           	movel %d2,%d0
    3646:	e088           	lsrl #8,%d0
    3648:	7200           	moveq #0,%d1
    364a:	4601           	notb %d1
    364c:	c280           	andl %d0,%d1
    364e:	2f01           	movel %d1,%sp@-
    3650:	4e92           	jsr %a2@
    3652:	2002           	movel %d2,%d0
    3654:	4240           	clrw %d0
    3656:	4840           	swap %d0
    3658:	7200           	moveq #0,%d1
    365a:	4601           	notb %d1
    365c:	c280           	andl %d0,%d1
    365e:	2f01           	movel %d1,%sp@-
    3660:	4e92           	jsr %a2@
    3662:	4fef 000c      	lea %sp@(12),%sp
    3666:	4242           	clrw %d2
    3668:	4842           	swap %d2
    366a:	e04a           	lsrw #8,%d2
    366c:	2f42 000c      	movel %d2,%sp@(12)
    3670:	241f           	movel %sp@+,%d2
    3672:	245f           	moveal %sp@+,%a2
    3674:	6000 dcaa      	braw 1320 <_ZN11GDTransport10transfer_bEh.constprop.0>

00003678 <_ZN7GDClass2csEPKc>:
    3678:	48e7 3830      	moveml %d2-%d4/%a2-%a3,%sp@-
    367c:	266f 0018      	moveal %sp@(24),%a3
    3680:	1813           	moveb %a3@,%d4
    3682:	6700 01be      	beqw 3842 <_ZN7GDClass2csEPKc+0x1ca>
    3686:	7400           	moveq #0,%d2
    3688:	263c 0002 2bb8 	movel #142264,%d3
    368e:	45f9 0000 ea30 	lea ea30 <_ZN11GDTransport7getfreeEt>,%a2
    3694:	3039 0002 2bbe 	movew 22bbe <_ZL4GDTR+0x6>,%d0
    369a:	6700 0116      	beqw 37b2 <_ZN7GDClass2csEPKc+0x13a>
    369e:	5279 0002 2bbc 	addqw #1,22bbc <_ZL4GDTR+0x4>
    36a4:	5340           	subqw #1,%d0
    36a6:	33c0 0002 2bbe 	movew %d0,22bbe <_ZL4GDTR+0x6>
    36ac:	2079 0002 2474 	moveal 22474 <spi_ctl>,%a0
    36b2:	1010           	moveb %a0@,%d0
    36b4:	0800 0005      	btst #5,%d0
    36b8:	67f8           	beqs 36b2 <_ZN7GDClass2csEPKc+0x3a>
    36ba:	2079 0002 2470 	moveal 22470 <spi_data_in>,%a0
    36c0:	1084           	moveb %d4,%a0@
    36c2:	2079 0002 2474 	moveal 22474 <spi_ctl>,%a0
    36c8:	1010           	moveb %a0@,%d0
    36ca:	0000 0008      	orib #8,%d0
    36ce:	1080           	moveb %d0,%a0@
    36d0:	2079 0002 2474 	moveal 22474 <spi_ctl>,%a0
    36d6:	1010           	moveb %a0@,%d0
    36d8:	0200 fff7      	andib #-9,%d0
    36dc:	1080           	moveb %d0,%a0@
    36de:	2079 0002 2474 	moveal 22474 <spi_ctl>,%a0
    36e4:	1010           	moveb %a0@,%d0
    36e6:	0800 0005      	btst #5,%d0
    36ea:	67f8           	beqs 36e4 <_ZN7GDClass2csEPKc+0x6c>
    36ec:	2079 0002 246c 	moveal 2246c <spi_data_out>,%a0
    36f2:	1010           	moveb %a0@,%d0
    36f4:	5282           	addql #1,%d2
    36f6:	1833 2800      	moveb %a3@(0000000000000000,%d2:l),%d4
    36fa:	6698           	bnes 3694 <_ZN7GDClass2csEPKc+0x1c>
    36fc:	3039 0002 2bbe 	movew 22bbe <_ZL4GDTR+0x6>,%d0
    3702:	1602           	moveb %d2,%d3
    3704:	5203           	addqb #1,%d3
    3706:	0203 0003      	andib #3,%d3
    370a:	5402           	addqb #2,%d2
    370c:	4a40           	tstw %d0
    370e:	6700 00fc      	beqw 380c <_ZN7GDClass2csEPKc+0x194>
    3712:	5279 0002 2bbc 	addqw #1,22bbc <_ZL4GDTR+0x4>
    3718:	5340           	subqw #1,%d0
    371a:	33c0 0002 2bbe 	movew %d0,22bbe <_ZL4GDTR+0x6>
    3720:	42a7           	clrl %sp@-
    3722:	4eba dbfc      	jsr %pc@(1320 <_ZN11GDTransport10transfer_bEh.constprop.0>)
    3726:	588f           	addql #4,%sp
    3728:	4a03           	tstb %d3
    372a:	6700 00d6      	beqw 3802 <_ZN7GDClass2csEPKc+0x18a>
    372e:	263c 0002 2bb8 	movel #142264,%d3
    3734:	45f9 0000 ea30 	lea ea30 <_ZN11GDTransport7getfreeEt>,%a2
    373a:	3039 0002 2bbe 	movew 22bbe <_ZL4GDTR+0x6>,%d0
    3740:	6700 0098      	beqw 37da <_ZN7GDClass2csEPKc+0x162>
    3744:	5279 0002 2bbc 	addqw #1,22bbc <_ZL4GDTR+0x4>
    374a:	5340           	subqw #1,%d0
    374c:	33c0 0002 2bbe 	movew %d0,22bbe <_ZL4GDTR+0x6>
    3752:	2079 0002 2474 	moveal 22474 <spi_ctl>,%a0
    3758:	1010           	moveb %a0@,%d0
    375a:	0800 0005      	btst #5,%d0
    375e:	67f8           	beqs 3758 <_ZN7GDClass2csEPKc+0xe0>
    3760:	2079 0002 2470 	moveal 22470 <spi_data_in>,%a0
    3766:	10bc 0000      	moveb #0,%a0@
    376a:	2079 0002 2474 	moveal 22474 <spi_ctl>,%a0
    3770:	1010           	moveb %a0@,%d0
    3772:	0000 0008      	orib #8,%d0
    3776:	1080           	moveb %d0,%a0@
    3778:	2079 0002 2474 	moveal 22474 <spi_ctl>,%a0
    377e:	1010           	moveb %a0@,%d0
    3780:	0200 fff7      	andib #-9,%d0
    3784:	1080           	moveb %d0,%a0@
    3786:	2079 0002 2474 	moveal 22474 <spi_ctl>,%a0
    378c:	1010           	moveb %a0@,%d0
    378e:	0800 0005      	btst #5,%d0
    3792:	67f8           	beqs 378c <_ZN7GDClass2csEPKc+0x114>
    3794:	2079 0002 246c 	moveal 2246c <spi_data_out>,%a0
    379a:	1010           	moveb %a0@,%d0
    379c:	1002           	moveb %d2,%d0
    379e:	5200           	addqb #1,%d0
    37a0:	0202 0003      	andib #3,%d2
    37a4:	675c           	beqs 3802 <_ZN7GDClass2csEPKc+0x18a>
    37a6:	1400           	moveb %d0,%d2
    37a8:	3039 0002 2bbe 	movew 22bbe <_ZL4GDTR+0x6>,%d0
    37ae:	6694           	bnes 3744 <_ZN7GDClass2csEPKc+0xcc>
    37b0:	6028           	bras 37da <_ZN7GDClass2csEPKc+0x162>
    37b2:	4878 0001      	pea 1 <ADD>
    37b6:	2f03           	movel %d3,%sp@-
    37b8:	4e92           	jsr %a2@
    37ba:	3039 0002 2bbe 	movew 22bbe <_ZL4GDTR+0x6>,%d0
    37c0:	508f           	addql #8,%sp
    37c2:	5279 0002 2bbc 	addqw #1,22bbc <_ZL4GDTR+0x4>
    37c8:	5340           	subqw #1,%d0
    37ca:	33c0 0002 2bbe 	movew %d0,22bbe <_ZL4GDTR+0x6>
    37d0:	2079 0002 2474 	moveal 22474 <spi_ctl>,%a0
    37d6:	6000 feda      	braw 36b2 <_ZN7GDClass2csEPKc+0x3a>
    37da:	4878 0001      	pea 1 <ADD>
    37de:	2f03           	movel %d3,%sp@-
    37e0:	4e92           	jsr %a2@
    37e2:	3039 0002 2bbe 	movew 22bbe <_ZL4GDTR+0x6>,%d0
    37e8:	508f           	addql #8,%sp
    37ea:	5279 0002 2bbc 	addqw #1,22bbc <_ZL4GDTR+0x4>
    37f0:	5340           	subqw #1,%d0
    37f2:	33c0 0002 2bbe 	movew %d0,22bbe <_ZL4GDTR+0x6>
    37f8:	2079 0002 2474 	moveal 22474 <spi_ctl>,%a0
    37fe:	6000 ff58      	braw 3758 <_ZN7GDClass2csEPKc+0xe0>
    3802:	4cdf 0c1c      	moveml %sp@+,%d2-%d4/%a2-%a3
    3806:	4e75           	rts
    3808:	7402           	moveq #2,%d2
    380a:	7601           	moveq #1,%d3
    380c:	4878 0001      	pea 1 <ADD>
    3810:	4879 0002 2bb8 	pea 22bb8 <_ZL4GDTR>
    3816:	4eb9 0000 ea30 	jsr ea30 <_ZN11GDTransport7getfreeEt>
    381c:	3039 0002 2bbe 	movew 22bbe <_ZL4GDTR+0x6>,%d0
    3822:	508f           	addql #8,%sp
    3824:	5279 0002 2bbc 	addqw #1,22bbc <_ZL4GDTR+0x4>
    382a:	5340           	subqw #1,%d0
    382c:	33c0 0002 2bbe 	movew %d0,22bbe <_ZL4GDTR+0x6>
    3832:	42a7           	clrl %sp@-
    3834:	4eba daea      	jsr %pc@(1320 <_ZN11GDTransport10transfer_bEh.constprop.0>)
    3838:	588f           	addql #4,%sp
    383a:	4a03           	tstb %d3
    383c:	6600 fef0      	bnew 372e <_ZN7GDClass2csEPKc+0xb6>
    3840:	60c0           	bras 3802 <_ZN7GDClass2csEPKc+0x18a>
    3842:	3039 0002 2bbe 	movew 22bbe <_ZL4GDTR+0x6>,%d0
    3848:	67be           	beqs 3808 <_ZN7GDClass2csEPKc+0x190>
    384a:	5279 0002 2bbc 	addqw #1,22bbc <_ZL4GDTR+0x4>
    3850:	5340           	subqw #1,%d0
    3852:	33c0 0002 2bbe 	movew %d0,22bbe <_ZL4GDTR+0x6>
    3858:	42a7           	clrl %sp@-
    385a:	4eba dac4      	jsr %pc@(1320 <_ZN11GDTransport10transfer_bEh.constprop.0>)
    385e:	588f           	addql #4,%sp
    3860:	7402           	moveq #2,%d2
    3862:	263c 0002 2bb8 	movel #142264,%d3
    3868:	45f9 0000 ea30 	lea ea30 <_ZN11GDTransport7getfreeEt>,%a2
    386e:	6000 feca      	braw 373a <_ZN7GDClass2csEPKc+0xc2>

00003872 <_ZN6Bitmap8fromtextEiPKc>:
    3872:	48e7 3f3e      	moveml %d2-%d7/%a2-%fp,%sp@-
    3876:	246f 0030      	moveal %sp@(48),%a2
    387a:	2e2f 0034      	movel %sp@(52),%d7
    387e:	2c2f 0038      	movel %sp@(56),%d6
    3882:	2f06           	movel %d6,%sp@-
    3884:	2f07           	movel %d7,%sp@-
    3886:	486a 0004      	pea %a2@(4)
    388a:	2f0a           	movel %a2,%sp@-
    388c:	4879 0002 2b5c 	pea 22b5c <GD>
    3892:	4eba eb46      	jsr %pc@(23da <_ZN7GDClass8textsizeERiS0_iPKc>)
    3896:	4fef 0014      	lea %sp@(20),%sp
    389a:	203c 0030 2070 	movel #3154032,%d0
    38a0:	4a39 0002 2bb6 	tstb 22bb6 <ft8xx_model>
    38a6:	6606           	bnes 38ae <_ZN6Bitmap8fromtextEiPKc+0x3c>
    38a8:	203c 0010 246c 	movel #1057900,%d0
    38ae:	2f00           	movel %d0,%sp@-
    38b0:	47fa de08      	lea %pc@(16ba <_ZN11GDTransport4rd16Em.constprop.0>),%a3
    38b4:	4e93           	jsr %a3@
    38b6:	3600           	movew %d0,%d3
    38b8:	588f           	addql #4,%sp
    38ba:	203c 0030 2048 	movel #3153992,%d0
    38c0:	4a39 0002 2bb6 	tstb 22bb6 <ft8xx_model>
    38c6:	6606           	bnes 38ce <_ZN6Bitmap8fromtextEiPKc+0x5c>
    38c8:	203c 0010 2444 	movel #1057860,%d0
    38ce:	2f00           	movel %d0,%sp@-
    38d0:	4e93           	jsr %a3@
    38d2:	3800           	movew %d0,%d4
    38d4:	588f           	addql #4,%sp
    38d6:	203c 0030 2034 	movel #3153972,%d0
    38dc:	4a39 0002 2bb6 	tstb 22bb6 <ft8xx_model>
    38e2:	6606           	bnes 38ea <_ZN6Bitmap8fromtextEiPKc+0x78>
    38e4:	203c 0010 2430 	movel #1057840,%d0
    38ea:	2f00           	movel %d0,%sp@-
    38ec:	4e93           	jsr %a3@
    38ee:	3a00           	movew %d0,%d5
    38f0:	49fa df9e      	lea %pc@(1890 <_ZN11GDTransport6finishEv.constprop.0>),%a4
    38f4:	4e94           	jsr %a4@
    38f6:	588f           	addql #4,%sp
    38f8:	4a39 0002 2bb6 	tstb 22bb6 <ft8xx_model>
    38fe:	6600 023a      	bnew 3b3a <_ZN6Bitmap8fromtextEiPKc+0x2c8>
    3902:	746c           	moveq #108,%d2
    3904:	3a7c 0024      	moveaw #36,%a5
    3908:	726f           	moveq #111,%d1
    390a:	4601           	notb %d1
    390c:	2079 0002 2474 	moveal 22474 <spi_ctl>,%a0
    3912:	1010           	moveb %a0@,%d0
    3914:	0200 fffe      	andib #-2,%d0
    3918:	1080           	moveb %d0,%a0@
    391a:	2079 0002 2474 	moveal 22474 <spi_ctl>,%a0
    3920:	1010           	moveb %a0@,%d0
    3922:	0000 0001      	orib #1,%d0
    3926:	1080           	moveb %d0,%a0@
    3928:	2f01           	movel %d1,%sp@-
    392a:	47fa da8e      	lea %pc@(13ba <_ZN11GDTransport10transfer_bEh.constprop.2.isra.0>),%a3
    392e:	4e93           	jsr %a3@
    3930:	2f0d           	movel %a5,%sp@-
    3932:	4e93           	jsr %a3@
    3934:	2f02           	movel %d2,%sp@-
    3936:	4e93           	jsr %a3@
    3938:	42a7           	clrl %sp@-
    393a:	4eba d9e4      	jsr %pc@(1320 <_ZN11GDTransport10transfer_bEh.constprop.0>)
    393e:	2079 0002 2474 	moveal 22474 <spi_ctl>,%a0
    3944:	1010           	moveb %a0@,%d0
    3946:	0200 fffe      	andib #-2,%d0
    394a:	1080           	moveb %d0,%a0@
    394c:	4fef 0010      	lea %sp@(16),%sp
    3950:	203c 0030 8000 	movel #3178496,%d0
    3956:	4a39 0002 2bb6 	tstb 22bb6 <ft8xx_model>
    395c:	6606           	bnes 3964 <_ZN6Bitmap8fromtextEiPKc+0xf2>
    395e:	203c 0010 8000 	movel #1081344,%d0
    3964:	3439 0002 2bbc 	movew 22bbc <_ZL4GDTR+0x4>,%d2
    396a:	0242 0fff      	andiw #4095,%d2
    396e:	0282 0000 ffff 	andil #65535,%d2
    3974:	d480           	addl %d0,%d2
    3976:	2079 0002 2474 	moveal 22474 <spi_ctl>,%a0
    397c:	1210           	moveb %a0@,%d1
    397e:	0001 0001      	orib #1,%d1
    3982:	1081           	moveb %d1,%a0@
    3984:	4240           	clrw %d0
    3986:	4840           	swap %d0
    3988:	727f           	moveq #127,%d1
    398a:	4601           	notb %d1
    398c:	8280           	orl %d0,%d1
    398e:	2f01           	movel %d1,%sp@-
    3990:	4e93           	jsr %a3@
    3992:	3002           	movew %d2,%d0
    3994:	e048           	lsrw #8,%d0
    3996:	7200           	moveq #0,%d1
    3998:	4601           	notb %d1
    399a:	c280           	andl %d0,%d1
    399c:	2f01           	movel %d1,%sp@-
    399e:	4e93           	jsr %a3@
    39a0:	7000           	moveq #0,%d0
    39a2:	4600           	notb %d0
    39a4:	c082           	andl %d2,%d0
    39a6:	2f00           	movel %d0,%sp@-
    39a8:	4e93           	jsr %a3@
    39aa:	4fef 000c      	lea %sp@(12),%sp
    39ae:	7200           	moveq #0,%d1
    39b0:	4a81           	tstl %d1
    39b2:	6e0a           	bgts 39be <_ZN6Bitmap8fromtextEiPKc+0x14c>
    39b4:	4e71           	nop
    39b6:	5281           	addql #1,%d1
    39b8:	7001           	moveq #1,%d0
    39ba:	b081           	cmpl %d1,%d0
    39bc:	66f6           	bnes 39b4 <_ZN6Bitmap8fromtextEiPKc+0x142>
    39be:	2212           	movel %a2@,%d1
    39c0:	0281 0000 ffff 	andil #65535,%d1
    39c6:	203c 0030 2034 	movel #3153972,%d0
    39cc:	4a39 0002 2bb6 	tstb 22bb6 <ft8xx_model>
    39d2:	6606           	bnes 39da <_ZN6Bitmap8fromtextEiPKc+0x168>
    39d4:	203c 0010 2430 	movel #1057840,%d0
    39da:	2f01           	movel %d1,%sp@-
    39dc:	2f00           	movel %d0,%sp@-
    39de:	4bfa dbf4      	lea %pc@(15d4 <_ZN11GDTransport4wr16Emm.constprop.0>),%a5
    39e2:	4e95           	jsr %a5@
    39e4:	222a 0004      	movel %a2@(4),%d1
    39e8:	0281 0000 ffff 	andil #65535,%d1
    39ee:	508f           	addql #8,%sp
    39f0:	203c 0030 2048 	movel #3153992,%d0
    39f6:	4a39 0002 2bb6 	tstb 22bb6 <ft8xx_model>
    39fc:	6606           	bnes 3a04 <_ZN6Bitmap8fromtextEiPKc+0x192>
    39fe:	203c 0010 2444 	movel #1057860,%d0
    3a04:	2f01           	movel %d1,%sp@-
    3a06:	2f00           	movel %d0,%sp@-
    3a08:	4e95           	jsr %a5@
    3a0a:	4878 ff00      	pea ffffff00 <LESS+0xffffff01>
    3a0e:	47fa e2b6      	lea %pc@(1cc6 <_ZN11GDTransport5cmd32Em.constprop.0>),%a3
    3a12:	4e93           	jsr %a3@
    3a14:	50f9 0002 2bb4 	st 22bb4 <GD+0x58>
    3a1a:	13fc 0004 0002 	moveb #4,22b68 <GD+0xc>
    3a20:	2b68 
    3a22:	2f3c 2600 0007 	movel #637534215,%sp@-
    3a28:	4e93           	jsr %a3@
    3a2a:	2f3c 0b00 0009 	movel #184549385,%sp@-
    3a30:	4e93           	jsr %a3@
    3a32:	4878 ff0c      	pea ffffff0c <LESS+0xffffff0d>
    3a36:	4e93           	jsr %a3@
    3a38:	42a7           	clrl %sp@-
    3a3a:	4dfa f904      	lea %pc@(3340 <_ZN7GDClass2cHEt>),%fp
    3a3e:	4e96           	jsr %fp@
    3a40:	42a7           	clrl %sp@-
    3a42:	4e96           	jsr %fp@
    3a44:	4fef 0020      	lea %sp@(32),%sp
    3a48:	7200           	moveq #0,%d1
    3a4a:	4601           	notb %d1
    3a4c:	c287           	andl %d7,%d1
    3a4e:	2f01           	movel %d1,%sp@-
    3a50:	4e96           	jsr %fp@
    3a52:	42a7           	clrl %sp@-
    3a54:	4e96           	jsr %fp@
    3a56:	2f06           	movel %d6,%sp@-
    3a58:	4eba fc1e      	jsr %pc@(3678 <_ZN7GDClass2csEPKc>)
    3a5c:	13fc 0001 0002 	moveb #1,22bb4 <GD+0x58>
    3a62:	2bb4 
    3a64:	4879 0002 2b5c 	pea 22b5c <GD>
    3a6a:	4eba eff6      	jsr %pc@(2a62 <_ZN7GDClass4swapEv>)
    3a6e:	2439 0002 2b64 	movel 22b64 <GD+0x8>,%d2
    3a74:	5282           	addql #1,%d2
    3a76:	70fe           	moveq #-2,%d0
    3a78:	c480           	andl %d0,%d2
    3a7a:	23c2 0002 2b64 	movel %d2,22b64 <GD+0x8>
    3a80:	4878 ff1f      	pea ffffff1f <LESS+0xffffff20>
    3a84:	4e93           	jsr %a3@
    3a86:	2f02           	movel %d2,%sp@-
    3a88:	4e93           	jsr %a3@
    3a8a:	4e94           	jsr %a4@
    3a8c:	4fef 0018      	lea %sp@(24),%sp
    3a90:	203c 0030 2034 	movel #3153972,%d0
    3a96:	4a39 0002 2bb6 	tstb 22bb6 <ft8xx_model>
    3a9c:	6606           	bnes 3aa4 <_ZN6Bitmap8fromtextEiPKc+0x232>
    3a9e:	203c 0010 2430 	movel #1057840,%d0
    3aa4:	3f05           	movew %d5,%sp@-
    3aa6:	4267           	clrw %sp@-
    3aa8:	2f00           	movel %d0,%sp@-
    3aaa:	4e95           	jsr %a5@
    3aac:	508f           	addql #8,%sp
    3aae:	203c 0030 2048 	movel #3153992,%d0
    3ab4:	4a39 0002 2bb6 	tstb 22bb6 <ft8xx_model>
    3aba:	6606           	bnes 3ac2 <_ZN6Bitmap8fromtextEiPKc+0x250>
    3abc:	203c 0010 2444 	movel #1057860,%d0
    3ac2:	3f04           	movew %d4,%sp@-
    3ac4:	4267           	clrw %sp@-
    3ac6:	2f00           	movel %d0,%sp@-
    3ac8:	4e95           	jsr %a5@
    3aca:	508f           	addql #8,%sp
    3acc:	203c 0030 2070 	movel #3154032,%d0
    3ad2:	4a39 0002 2bb6 	tstb 22bb6 <ft8xx_model>
    3ad8:	6606           	bnes 3ae0 <_ZN6Bitmap8fromtextEiPKc+0x26e>
    3ada:	203c 0010 246c 	movel #1057900,%d0
    3ae0:	3f03           	movew %d3,%sp@-
    3ae2:	4267           	clrw %sp@-
    3ae4:	2f00           	movel %d0,%sp@-
    3ae6:	4e95           	jsr %a5@
    3ae8:	2639 0002 2b64 	movel 22b64 <GD+0x8>,%d3
    3aee:	2543 0010      	movel %d3,%a2@(16)
    3af2:	357c 0006 0014 	movew #6,%a2@(20)
    3af8:	50ea 0016      	st %a2@(22)
    3afc:	2012           	movel %a2@,%d0
    3afe:	2200           	movel %d0,%d1
    3b00:	6a02           	bpls 3b04 <_ZN6Bitmap8fromtextEiPKc+0x292>
    3b02:	5281           	addql #1,%d1
    3b04:	e281           	asrl #1,%d1
    3b06:	2541 0008      	movel %d1,%a2@(8)
    3b0a:	222a 0004      	movel %a2@(4),%d1
    3b0e:	2401           	movel %d1,%d2
    3b10:	6a02           	bpls 3b14 <_ZN6Bitmap8fromtextEiPKc+0x2a2>
    3b12:	5282           	addql #1,%d2
    3b14:	e282           	asrl #1,%d2
    3b16:	2542 000c      	movel %d2,%a2@(12)
    3b1a:	d040           	addw %d0,%d0
    3b1c:	2f01           	movel %d1,%sp@-
    3b1e:	3f00           	movew %d0,%sp@-
    3b20:	4267           	clrw %sp@-
    3b22:	4eb9 0001 fce4 	jsr 1fce4 <__mulsi3>
    3b28:	d083           	addl %d3,%d0
    3b2a:	23c0 0002 2b64 	movel %d0,22b64 <GD+0x8>
    3b30:	4fef 0010      	lea %sp@(16),%sp
    3b34:	4cdf 7cfc      	moveml %sp@+,%d2-%d7/%a2-%fp
    3b38:	4e75           	rts
    3b3a:	7470           	moveq #112,%d2
    3b3c:	3a7c 0020      	moveaw #32,%a5
    3b40:	724f           	moveq #79,%d1
    3b42:	4601           	notb %d1
    3b44:	6000 fdc6      	braw 390c <_ZN6Bitmap8fromtextEiPKc+0x9a>

00003b48 <_ZN7GDClass4copyEPKhi>:
    3b48:	48e7 3c30      	moveml %d2-%d5/%a2-%a3,%sp@-
    3b4c:	242f 0024      	movel %sp@(36),%d2
    3b50:	1802           	moveb %d2,%d4
    3b52:	0204 0003      	andib #3,%d4
    3b56:	4a82           	tstl %d2
    3b58:	6778           	beqs 3bd2 <_ZN7GDClass4copyEPKhi+0x8a>
    3b5a:	266f 0020      	moveal %sp@(32),%a3
    3b5e:	263c 0002 2bb8 	movel #142264,%d3
    3b64:	d48b           	addl %a3,%d2
    3b66:	45f9 0000 ea30 	lea ea30 <_ZN11GDTransport7getfreeEt>,%a2
    3b6c:	1a1b           	moveb %a3@+,%d5
    3b6e:	3039 0002 2bbe 	movew 22bbe <_ZL4GDTR+0x6>,%d0
    3b74:	6700 00ea      	beqw 3c60 <_ZN7GDClass4copyEPKhi+0x118>
    3b78:	5279 0002 2bbc 	addqw #1,22bbc <_ZL4GDTR+0x4>
    3b7e:	5340           	subqw #1,%d0
    3b80:	33c0 0002 2bbe 	movew %d0,22bbe <_ZL4GDTR+0x6>
    3b86:	2079 0002 2474 	moveal 22474 <spi_ctl>,%a0
    3b8c:	1010           	moveb %a0@,%d0
    3b8e:	0800 0005      	btst #5,%d0
    3b92:	67f8           	beqs 3b8c <_ZN7GDClass4copyEPKhi+0x44>
    3b94:	2079 0002 2470 	moveal 22470 <spi_data_in>,%a0
    3b9a:	1085           	moveb %d5,%a0@
    3b9c:	2079 0002 2474 	moveal 22474 <spi_ctl>,%a0
    3ba2:	1010           	moveb %a0@,%d0
    3ba4:	0000 0008      	orib #8,%d0
    3ba8:	1080           	moveb %d0,%a0@
    3baa:	2079 0002 2474 	moveal 22474 <spi_ctl>,%a0
    3bb0:	1010           	moveb %a0@,%d0
    3bb2:	0200 fff7      	andib #-9,%d0
    3bb6:	1080           	moveb %d0,%a0@
    3bb8:	2079 0002 2474 	moveal 22474 <spi_ctl>,%a0
    3bbe:	1010           	moveb %a0@,%d0
    3bc0:	0800 0005      	btst #5,%d0
    3bc4:	67f8           	beqs 3bbe <_ZN7GDClass4copyEPKhi+0x76>
    3bc6:	2079 0002 246c 	moveal 2246c <spi_data_out>,%a0
    3bcc:	1010           	moveb %a0@,%d0
    3bce:	b7c2           	cmpal %d2,%a3
    3bd0:	669a           	bnes 3b6c <_ZN7GDClass4copyEPKhi+0x24>
    3bd2:	1404           	moveb %d4,%d2
    3bd4:	5202           	addqb #1,%d2
    3bd6:	263c 0002 2bb8 	movel #142264,%d3
    3bdc:	45f9 0000 ea30 	lea ea30 <_ZN11GDTransport7getfreeEt>,%a2
    3be2:	4a04           	tstb %d4
    3be4:	6700 00ca      	beqw 3cb0 <_ZN7GDClass4copyEPKhi+0x168>
    3be8:	3039 0002 2bbe 	movew 22bbe <_ZL4GDTR+0x6>,%d0
    3bee:	6700 0098      	beqw 3c88 <_ZN7GDClass4copyEPKhi+0x140>
    3bf2:	5279 0002 2bbc 	addqw #1,22bbc <_ZL4GDTR+0x4>
    3bf8:	5340           	subqw #1,%d0
    3bfa:	33c0 0002 2bbe 	movew %d0,22bbe <_ZL4GDTR+0x6>
    3c00:	2079 0002 2474 	moveal 22474 <spi_ctl>,%a0
    3c06:	1010           	moveb %a0@,%d0
    3c08:	0800 0005      	btst #5,%d0
    3c0c:	67f8           	beqs 3c06 <_ZN7GDClass4copyEPKhi+0xbe>
    3c0e:	2079 0002 2470 	moveal 22470 <spi_data_in>,%a0
    3c14:	10bc 0000      	moveb #0,%a0@
    3c18:	2079 0002 2474 	moveal 22474 <spi_ctl>,%a0
    3c1e:	1010           	moveb %a0@,%d0
    3c20:	0000 0008      	orib #8,%d0
    3c24:	1080           	moveb %d0,%a0@
    3c26:	2079 0002 2474 	moveal 22474 <spi_ctl>,%a0
    3c2c:	1010           	moveb %a0@,%d0
    3c2e:	0200 fff7      	andib #-9,%d0
    3c32:	1080           	moveb %d0,%a0@
    3c34:	2079 0002 2474 	moveal 22474 <spi_ctl>,%a0
    3c3a:	1010           	moveb %a0@,%d0
    3c3c:	0800 0005      	btst #5,%d0
    3c40:	67f8           	beqs 3c3a <_ZN7GDClass4copyEPKhi+0xf2>
    3c42:	2079 0002 246c 	moveal 2246c <spi_data_out>,%a0
    3c48:	1010           	moveb %a0@,%d0
    3c4a:	1002           	moveb %d2,%d0
    3c4c:	5200           	addqb #1,%d0
    3c4e:	0202 0003      	andib #3,%d2
    3c52:	675c           	beqs 3cb0 <_ZN7GDClass4copyEPKhi+0x168>
    3c54:	1400           	moveb %d0,%d2
    3c56:	3039 0002 2bbe 	movew 22bbe <_ZL4GDTR+0x6>,%d0
    3c5c:	6694           	bnes 3bf2 <_ZN7GDClass4copyEPKhi+0xaa>
    3c5e:	6028           	bras 3c88 <_ZN7GDClass4copyEPKhi+0x140>
    3c60:	4878 0001      	pea 1 <ADD>
    3c64:	2f03           	movel %d3,%sp@-
    3c66:	4e92           	jsr %a2@
    3c68:	3039 0002 2bbe 	movew 22bbe <_ZL4GDTR+0x6>,%d0
    3c6e:	508f           	addql #8,%sp
    3c70:	5279 0002 2bbc 	addqw #1,22bbc <_ZL4GDTR+0x4>
    3c76:	5340           	subqw #1,%d0
    3c78:	33c0 0002 2bbe 	movew %d0,22bbe <_ZL4GDTR+0x6>
    3c7e:	2079 0002 2474 	moveal 22474 <spi_ctl>,%a0
    3c84:	6000 ff06      	braw 3b8c <_ZN7GDClass4copyEPKhi+0x44>
    3c88:	4878 0001      	pea 1 <ADD>
    3c8c:	2f03           	movel %d3,%sp@-
    3c8e:	4e92           	jsr %a2@
    3c90:	3039 0002 2bbe 	movew 22bbe <_ZL4GDTR+0x6>,%d0
    3c96:	508f           	addql #8,%sp
    3c98:	5279 0002 2bbc 	addqw #1,22bbc <_ZL4GDTR+0x4>
    3c9e:	5340           	subqw #1,%d0
    3ca0:	33c0 0002 2bbe 	movew %d0,22bbe <_ZL4GDTR+0x6>
    3ca6:	2079 0002 2474 	moveal 22474 <spi_ctl>,%a0
    3cac:	6000 ff58      	braw 3c06 <_ZN7GDClass4copyEPKhi+0xbe>
    3cb0:	4cdf 0c3c      	moveml %sp@+,%d2-%d5/%a2-%a3
    3cb4:	4e75           	rts

00003cb6 <_ZN7GDClass5alertEv>:
    3cb6:	2f02           	movel %d2,%sp@-
    3cb8:	242f 0008      	movel %sp@(8),%d2
    3cbc:	4879 0002 2bb8 	pea 22bb8 <_ZL4GDTR>
    3cc2:	4eb9 0000 e37a 	jsr e37a <_ZN11GDTransport20coprocsssor_recoveryEv>
    3cc8:	588f           	addql #4,%sp
    3cca:	0c39 0001 0002 	cmpib #1,22bb6 <ft8xx_model>
    3cd0:	2bb6 
    3cd2:	6322           	blss 3cf6 <_ZN7GDClass5alertEv+0x40>
    3cd4:	4878 0038      	pea 38 <DBL_MANT_DIG+0x3>
    3cd8:	4879 0002 1c92 	pea 21c92 <_ZL10__bsod_815>
    3cde:	2f02           	movel %d2,%sp@-
    3ce0:	4eba fe66      	jsr %pc@(3b48 <_ZN7GDClass4copyEPKhi>)
    3ce4:	4fef 000c      	lea %sp@(12),%sp
    3ce8:	2f02           	movel %d2,%sp@-
    3cea:	4eba ed76      	jsr %pc@(2a62 <_ZN7GDClass4swapEv>)
    3cee:	4eba dba0      	jsr %pc@(1890 <_ZN11GDTransport6finishEv.constprop.0>)
    3cf2:	588f           	addql #4,%sp
    3cf4:	60fe           	bras 3cf4 <_ZN7GDClass5alertEv+0x3e>
    3cf6:	4878 0030      	pea 30 <OPER2+0x1c>
    3cfa:	4879 0002 1cca 	pea 21cca <_ZL6__bsod>
    3d00:	2f02           	movel %d2,%sp@-
    3d02:	4eba fe44      	jsr %pc@(3b48 <_ZN7GDClass4copyEPKhi>)
    3d06:	4fef 000c      	lea %sp@(12),%sp
    3d0a:	2f02           	movel %d2,%sp@-
    3d0c:	4eba ed54      	jsr %pc@(2a62 <_ZN7GDClass4swapEv>)
    3d10:	4eba db7e      	jsr %pc@(1890 <_ZN11GDTransport6finishEv.constprop.0>)
    3d14:	588f           	addql #4,%sp
    3d16:	60dc           	bras 3cf4 <_ZN7GDClass5alertEv+0x3e>

00003d18 <_ZN7GDClass7copyramEPhi>:
    3d18:	48e7 3e30      	moveml %d2-%d6/%a2-%a3,%sp@-
    3d1c:	246f 0024      	moveal %sp@(36),%a2
    3d20:	262f 0028      	movel %sp@(40),%d3
    3d24:	1803           	moveb %d3,%d4
    3d26:	0204 0003      	andib #3,%d4
    3d2a:	3a03           	movew %d3,%d5
    3d2c:	243c 0002 2bb8 	movel #142264,%d2
    3d32:	3039 0002 2bbe 	movew 22bbe <_ZL4GDTR+0x6>,%d0
    3d38:	b043           	cmpw %d3,%d0
    3d3a:	6500 0372      	bcsw 40ae <_ZN7GDClass7copyramEPhi+0x396>
    3d3e:	d779 0002 2bbc 	addw %d3,22bbc <_ZL4GDTR+0x4>
    3d44:	9043           	subw %d3,%d0
    3d46:	33c0 0002 2bbe 	movew %d0,22bbe <_ZL4GDTR+0x6>
    3d4c:	0c45 0008      	cmpiw #8,%d5
    3d50:	6300 0386      	blsw 40d8 <_ZN7GDClass7copyramEPhi+0x3c0>
    3d54:	2079 0002 2474 	moveal 22474 <spi_ctl>,%a0
    3d5a:	3203           	movew %d3,%d1
    3d5c:	0641 fff7      	addiw #-9,%d1
    3d60:	3601           	movew %d1,%d3
    3d62:	e64b           	lsrw #3,%d3
    3d64:	3003           	movew %d3,%d0
    3d66:	5240           	addqw #1,%d0
    3d68:	0280 0000 ffff 	andil #65535,%d0
    3d6e:	e788           	lsll #3,%d0
    3d70:	d08a           	addl %a2,%d0
    3d72:	1c12           	moveb %a2@,%d6
    3d74:	1a10           	moveb %a0@,%d5
    3d76:	0805 0005      	btst #5,%d5
    3d7a:	67f8           	beqs 3d74 <_ZN7GDClass7copyramEPhi+0x5c>
    3d7c:	2079 0002 2470 	moveal 22470 <spi_data_in>,%a0
    3d82:	1086           	moveb %d6,%a0@
    3d84:	2079 0002 2474 	moveal 22474 <spi_ctl>,%a0
    3d8a:	1a10           	moveb %a0@,%d5
    3d8c:	0005 0008      	orib #8,%d5
    3d90:	1085           	moveb %d5,%a0@
    3d92:	2079 0002 2474 	moveal 22474 <spi_ctl>,%a0
    3d98:	1a10           	moveb %a0@,%d5
    3d9a:	0205 fff7      	andib #-9,%d5
    3d9e:	1085           	moveb %d5,%a0@
    3da0:	2279 0002 2474 	moveal 22474 <spi_ctl>,%a1
    3da6:	1a11           	moveb %a1@,%d5
    3da8:	0805 0005      	btst #5,%d5
    3dac:	67f8           	beqs 3da6 <_ZN7GDClass7copyramEPhi+0x8e>
    3dae:	2079 0002 246c 	moveal 2246c <spi_data_out>,%a0
    3db4:	1a10           	moveb %a0@,%d5
    3db6:	1c2a 0001      	moveb %a2@(1),%d6
    3dba:	1a11           	moveb %a1@,%d5
    3dbc:	0805 0005      	btst #5,%d5
    3dc0:	67f8           	beqs 3dba <_ZN7GDClass7copyramEPhi+0xa2>
    3dc2:	2079 0002 2470 	moveal 22470 <spi_data_in>,%a0
    3dc8:	1086           	moveb %d6,%a0@
    3dca:	2079 0002 2474 	moveal 22474 <spi_ctl>,%a0
    3dd0:	1a10           	moveb %a0@,%d5
    3dd2:	0005 0008      	orib #8,%d5
    3dd6:	1085           	moveb %d5,%a0@
    3dd8:	2079 0002 2474 	moveal 22474 <spi_ctl>,%a0
    3dde:	1a10           	moveb %a0@,%d5
    3de0:	0205 fff7      	andib #-9,%d5
    3de4:	1085           	moveb %d5,%a0@
    3de6:	2279 0002 2474 	moveal 22474 <spi_ctl>,%a1
    3dec:	1a11           	moveb %a1@,%d5
    3dee:	0805 0005      	btst #5,%d5
    3df2:	67f8           	beqs 3dec <_ZN7GDClass7copyramEPhi+0xd4>
    3df4:	2079 0002 246c 	moveal 2246c <spi_data_out>,%a0
    3dfa:	1a10           	moveb %a0@,%d5
    3dfc:	1c2a 0002      	moveb %a2@(2),%d6
    3e00:	1a11           	moveb %a1@,%d5
    3e02:	0805 0005      	btst #5,%d5
    3e06:	67f8           	beqs 3e00 <_ZN7GDClass7copyramEPhi+0xe8>
    3e08:	2079 0002 2470 	moveal 22470 <spi_data_in>,%a0
    3e0e:	1086           	moveb %d6,%a0@
    3e10:	2079 0002 2474 	moveal 22474 <spi_ctl>,%a0
    3e16:	1a10           	moveb %a0@,%d5
    3e18:	0005 0008      	orib #8,%d5
    3e1c:	1085           	moveb %d5,%a0@
    3e1e:	2079 0002 2474 	moveal 22474 <spi_ctl>,%a0
    3e24:	1a10           	moveb %a0@,%d5
    3e26:	0205 fff7      	andib #-9,%d5
    3e2a:	1085           	moveb %d5,%a0@
    3e2c:	2279 0002 2474 	moveal 22474 <spi_ctl>,%a1
    3e32:	1a11           	moveb %a1@,%d5
    3e34:	0805 0005      	btst #5,%d5
    3e38:	67f8           	beqs 3e32 <_ZN7GDClass7copyramEPhi+0x11a>
    3e3a:	2079 0002 246c 	moveal 2246c <spi_data_out>,%a0
    3e40:	1a10           	moveb %a0@,%d5
    3e42:	1c2a 0003      	moveb %a2@(3),%d6
    3e46:	1a11           	moveb %a1@,%d5
    3e48:	0805 0005      	btst #5,%d5
    3e4c:	67f8           	beqs 3e46 <_ZN7GDClass7copyramEPhi+0x12e>
    3e4e:	2079 0002 2470 	moveal 22470 <spi_data_in>,%a0
    3e54:	1086           	moveb %d6,%a0@
    3e56:	2079 0002 2474 	moveal 22474 <spi_ctl>,%a0
    3e5c:	1a10           	moveb %a0@,%d5
    3e5e:	0005 0008      	orib #8,%d5
    3e62:	1085           	moveb %d5,%a0@
    3e64:	2079 0002 2474 	moveal 22474 <spi_ctl>,%a0
    3e6a:	1a10           	moveb %a0@,%d5
    3e6c:	0205 fff7      	andib #-9,%d5
    3e70:	1085           	moveb %d5,%a0@
    3e72:	2279 0002 2474 	moveal 22474 <spi_ctl>,%a1
    3e78:	1a11           	moveb %a1@,%d5
    3e7a:	0805 0005      	btst #5,%d5
    3e7e:	67f8           	beqs 3e78 <_ZN7GDClass7copyramEPhi+0x160>
    3e80:	2079 0002 246c 	moveal 2246c <spi_data_out>,%a0
    3e86:	1a10           	moveb %a0@,%d5
    3e88:	1c2a 0004      	moveb %a2@(4),%d6
    3e8c:	1a11           	moveb %a1@,%d5
    3e8e:	0805 0005      	btst #5,%d5
    3e92:	67f8           	beqs 3e8c <_ZN7GDClass7copyramEPhi+0x174>
    3e94:	2079 0002 2470 	moveal 22470 <spi_data_in>,%a0
    3e9a:	1086           	moveb %d6,%a0@
    3e9c:	2079 0002 2474 	moveal 22474 <spi_ctl>,%a0
    3ea2:	1a10           	moveb %a0@,%d5
    3ea4:	0005 0008      	orib #8,%d5
    3ea8:	1085           	moveb %d5,%a0@
    3eaa:	2079 0002 2474 	moveal 22474 <spi_ctl>,%a0
    3eb0:	1a10           	moveb %a0@,%d5
    3eb2:	0205 fff7      	andib #-9,%d5
    3eb6:	1085           	moveb %d5,%a0@
    3eb8:	2079 0002 2474 	moveal 22474 <spi_ctl>,%a0
    3ebe:	1a10           	moveb %a0@,%d5
    3ec0:	0805 0005      	btst #5,%d5
    3ec4:	67f8           	beqs 3ebe <_ZN7GDClass7copyramEPhi+0x1a6>
    3ec6:	2279 0002 246c 	moveal 2246c <spi_data_out>,%a1
    3ecc:	1a11           	moveb %a1@,%d5
    3ece:	1c2a 0005      	moveb %a2@(5),%d6
    3ed2:	1a10           	moveb %a0@,%d5
    3ed4:	0805 0005      	btst #5,%d5
    3ed8:	67f8           	beqs 3ed2 <_ZN7GDClass7copyramEPhi+0x1ba>
    3eda:	2079 0002 2470 	moveal 22470 <spi_data_in>,%a0
    3ee0:	1086           	moveb %d6,%a0@
    3ee2:	2079 0002 2474 	moveal 22474 <spi_ctl>,%a0
    3ee8:	1a10           	moveb %a0@,%d5
    3eea:	0005 0008      	orib #8,%d5
    3eee:	1085           	moveb %d5,%a0@
    3ef0:	2079 0002 2474 	moveal 22474 <spi_ctl>,%a0
    3ef6:	1a10           	moveb %a0@,%d5
    3ef8:	0205 fff7      	andib #-9,%d5
    3efc:	1085           	moveb %d5,%a0@
    3efe:	2079 0002 2474 	moveal 22474 <spi_ctl>,%a0
    3f04:	1a10           	moveb %a0@,%d5
    3f06:	0805 0005      	btst #5,%d5
    3f0a:	67f8           	beqs 3f04 <_ZN7GDClass7copyramEPhi+0x1ec>
    3f0c:	2279 0002 246c 	moveal 2246c <spi_data_out>,%a1
    3f12:	1a11           	moveb %a1@,%d5
    3f14:	1c2a 0006      	moveb %a2@(6),%d6
    3f18:	1a10           	moveb %a0@,%d5
    3f1a:	0805 0005      	btst #5,%d5
    3f1e:	67f8           	beqs 3f18 <_ZN7GDClass7copyramEPhi+0x200>
    3f20:	2079 0002 2470 	moveal 22470 <spi_data_in>,%a0
    3f26:	1086           	moveb %d6,%a0@
    3f28:	2079 0002 2474 	moveal 22474 <spi_ctl>,%a0
    3f2e:	1a10           	moveb %a0@,%d5
    3f30:	0005 0008      	orib #8,%d5
    3f34:	1085           	moveb %d5,%a0@
    3f36:	2079 0002 2474 	moveal 22474 <spi_ctl>,%a0
    3f3c:	1a10           	moveb %a0@,%d5
    3f3e:	0205 fff7      	andib #-9,%d5
    3f42:	1085           	moveb %d5,%a0@
    3f44:	2079 0002 2474 	moveal 22474 <spi_ctl>,%a0
    3f4a:	1a10           	moveb %a0@,%d5
    3f4c:	0805 0005      	btst #5,%d5
    3f50:	67f8           	beqs 3f4a <_ZN7GDClass7copyramEPhi+0x232>
    3f52:	2279 0002 246c 	moveal 2246c <spi_data_out>,%a1
    3f58:	1a11           	moveb %a1@,%d5
    3f5a:	508a           	addql #8,%a2
    3f5c:	1c2a ffff      	moveb %a2@(-1),%d6
    3f60:	1a10           	moveb %a0@,%d5
    3f62:	0805 0005      	btst #5,%d5
    3f66:	67f8           	beqs 3f60 <_ZN7GDClass7copyramEPhi+0x248>
    3f68:	2079 0002 2470 	moveal 22470 <spi_data_in>,%a0
    3f6e:	1086           	moveb %d6,%a0@
    3f70:	2079 0002 2474 	moveal 22474 <spi_ctl>,%a0
    3f76:	1a10           	moveb %a0@,%d5
    3f78:	0005 0008      	orib #8,%d5
    3f7c:	1085           	moveb %d5,%a0@
    3f7e:	2079 0002 2474 	moveal 22474 <spi_ctl>,%a0
    3f84:	1a10           	moveb %a0@,%d5
    3f86:	0205 fff7      	andib #-9,%d5
    3f8a:	1085           	moveb %d5,%a0@
    3f8c:	2079 0002 2474 	moveal 22474 <spi_ctl>,%a0
    3f92:	1a10           	moveb %a0@,%d5
    3f94:	0805 0005      	btst #5,%d5
    3f98:	67f8           	beqs 3f92 <_ZN7GDClass7copyramEPhi+0x27a>
    3f9a:	2279 0002 246c 	moveal 2246c <spi_data_out>,%a1
    3fa0:	1a11           	moveb %a1@,%d5
    3fa2:	b5c0           	cmpal %d0,%a2
    3fa4:	6600 fdcc      	bnew 3d72 <_ZN7GDClass7copyramEPhi+0x5a>
    3fa8:	e74b           	lslw #3,%d3
    3faa:	9243           	subw %d3,%d1
    3fac:	0281 0000 ffff 	andil #65535,%d1
    3fb2:	47f2 1801      	lea %a2@(0000000000000001,%d1:l),%a3
    3fb6:	121a           	moveb %a2@+,%d1
    3fb8:	1010           	moveb %a0@,%d0
    3fba:	0800 0005      	btst #5,%d0
    3fbe:	67f8           	beqs 3fb8 <_ZN7GDClass7copyramEPhi+0x2a0>
    3fc0:	2079 0002 2470 	moveal 22470 <spi_data_in>,%a0
    3fc6:	1081           	moveb %d1,%a0@
    3fc8:	2079 0002 2474 	moveal 22474 <spi_ctl>,%a0
    3fce:	1010           	moveb %a0@,%d0
    3fd0:	0000 0008      	orib #8,%d0
    3fd4:	1080           	moveb %d0,%a0@
    3fd6:	2079 0002 2474 	moveal 22474 <spi_ctl>,%a0
    3fdc:	1010           	moveb %a0@,%d0
    3fde:	0200 fff7      	andib #-9,%d0
    3fe2:	1080           	moveb %d0,%a0@
    3fe4:	2079 0002 2474 	moveal 22474 <spi_ctl>,%a0
    3fea:	1010           	moveb %a0@,%d0
    3fec:	0800 0005      	btst #5,%d0
    3ff0:	67f8           	beqs 3fea <_ZN7GDClass7copyramEPhi+0x2d2>
    3ff2:	2279 0002 246c 	moveal 2246c <spi_data_out>,%a1
    3ff8:	1011           	moveb %a1@,%d0
    3ffa:	b5cb           	cmpal %a3,%a2
    3ffc:	66b8           	bnes 3fb6 <_ZN7GDClass7copyramEPhi+0x29e>
    3ffe:	1604           	moveb %d4,%d3
    4000:	5203           	addqb #1,%d3
    4002:	45f9 0000 ea30 	lea ea30 <_ZN11GDTransport7getfreeEt>,%a2
    4008:	4a04           	tstb %d4
    400a:	6700 009c      	beqw 40a8 <_ZN7GDClass7copyramEPhi+0x390>
    400e:	3039 0002 2bbe 	movew 22bbe <_ZL4GDTR+0x6>,%d0
    4014:	676c           	beqs 4082 <_ZN7GDClass7copyramEPhi+0x36a>
    4016:	5279 0002 2bbc 	addqw #1,22bbc <_ZL4GDTR+0x4>
    401c:	5340           	subqw #1,%d0
    401e:	33c0 0002 2bbe 	movew %d0,22bbe <_ZL4GDTR+0x6>
    4024:	2079 0002 2474 	moveal 22474 <spi_ctl>,%a0
    402a:	1010           	moveb %a0@,%d0
    402c:	0800 0005      	btst #5,%d0
    4030:	67f8           	beqs 402a <_ZN7GDClass7copyramEPhi+0x312>
    4032:	2079 0002 2470 	moveal 22470 <spi_data_in>,%a0
    4038:	10bc 0000      	moveb #0,%a0@
    403c:	2079 0002 2474 	moveal 22474 <spi_ctl>,%a0
    4042:	1010           	moveb %a0@,%d0
    4044:	0000 0008      	orib #8,%d0
    4048:	1080           	moveb %d0,%a0@
    404a:	2079 0002 2474 	moveal 22474 <spi_ctl>,%a0
    4050:	1010           	moveb %a0@,%d0
    4052:	0200 fff7      	andib #-9,%d0
    4056:	1080           	moveb %d0,%a0@
    4058:	2079 0002 2474 	moveal 22474 <spi_ctl>,%a0
    405e:	1010           	moveb %a0@,%d0
    4060:	0800 0005      	btst #5,%d0
    4064:	67f8           	beqs 405e <_ZN7GDClass7copyramEPhi+0x346>
    4066:	2079 0002 246c 	moveal 2246c <spi_data_out>,%a0
    406c:	1010           	moveb %a0@,%d0
    406e:	1003           	moveb %d3,%d0
    4070:	5200           	addqb #1,%d0
    4072:	0203 0003      	andib #3,%d3
    4076:	6730           	beqs 40a8 <_ZN7GDClass7copyramEPhi+0x390>
    4078:	1600           	moveb %d0,%d3
    407a:	3039 0002 2bbe 	movew 22bbe <_ZL4GDTR+0x6>,%d0
    4080:	6694           	bnes 4016 <_ZN7GDClass7copyramEPhi+0x2fe>
    4082:	4878 0001      	pea 1 <ADD>
    4086:	2f02           	movel %d2,%sp@-
    4088:	4e92           	jsr %a2@
    408a:	3039 0002 2bbe 	movew 22bbe <_ZL4GDTR+0x6>,%d0
    4090:	508f           	addql #8,%sp
    4092:	5279 0002 2bbc 	addqw #1,22bbc <_ZL4GDTR+0x4>
    4098:	5340           	subqw #1,%d0
    409a:	33c0 0002 2bbe 	movew %d0,22bbe <_ZL4GDTR+0x6>
    40a0:	2079 0002 2474 	moveal 22474 <spi_ctl>,%a0
    40a6:	6082           	bras 402a <_ZN7GDClass7copyramEPhi+0x312>
    40a8:	4cdf 0c7c      	moveml %sp@+,%d2-%d6/%a2-%a3
    40ac:	4e75           	rts
    40ae:	3f03           	movew %d3,%sp@-
    40b0:	4267           	clrw %sp@-
    40b2:	2f02           	movel %d2,%sp@-
    40b4:	4eb9 0000 ea30 	jsr ea30 <_ZN11GDTransport7getfreeEt>
    40ba:	3039 0002 2bbe 	movew 22bbe <_ZL4GDTR+0x6>,%d0
    40c0:	508f           	addql #8,%sp
    40c2:	d779 0002 2bbc 	addw %d3,22bbc <_ZL4GDTR+0x4>
    40c8:	9043           	subw %d3,%d0
    40ca:	33c0 0002 2bbe 	movew %d0,22bbe <_ZL4GDTR+0x6>
    40d0:	0c45 0008      	cmpiw #8,%d5
    40d4:	6200 fc7e      	bhiw 3d54 <_ZN7GDClass7copyramEPhi+0x3c>
    40d8:	4a45           	tstw %d5
    40da:	6700 ff22      	beqw 3ffe <_ZN7GDClass7copyramEPhi+0x2e6>
    40de:	3203           	movew %d3,%d1
    40e0:	5341           	subqw #1,%d1
    40e2:	2079 0002 2474 	moveal 22474 <spi_ctl>,%a0
    40e8:	0281 0000 ffff 	andil #65535,%d1
    40ee:	47f2 1801      	lea %a2@(0000000000000001,%d1:l),%a3
    40f2:	6000 fec2      	braw 3fb6 <_ZN7GDClass7copyramEPhi+0x29e>

000040f6 <_ZN7GDClass5beginEhii>:
    40f6:	4e56 ff78      	linkw %fp,#-136
    40fa:	48e7 3f3c      	moveml %d2-%d7/%a2-%a5,%sp@-
    40fe:	2a6e 0008      	moveal %fp@(8),%a5
    4102:	1a2e 000f      	moveb %fp@(15),%d5
    4106:	4239 0002 2bb8 	clrb 22bb8 <_ZL4GDTR>
    410c:	41f9 0002 2bc0 	lea 22bc0 <_ZL4ASPI>,%a0
    4112:	2250           	moveal %a0@,%a1
    4114:	1011           	moveb %a1@,%d0
    4116:	0200 fffe      	andib #-2,%d0
    411a:	1280           	moveb %d0,%a1@
    411c:	2250           	moveal %a0@,%a1
    411e:	1011           	moveb %a1@,%d0
    4120:	0200 fffd      	andib #-3,%d0
    4124:	1280           	moveb %d0,%a1@
    4126:	2050           	moveal %a0@,%a0
    4128:	1010           	moveb %a0@,%d0
    412a:	0200 fffb      	andib #-5,%d0
    412e:	1080           	moveb %d0,%a0@
    4130:	2079 0002 2474 	moveal 22474 <spi_ctl>,%a0
    4136:	1010           	moveb %a0@,%d0
    4138:	0000 0001      	orib #1,%d0
    413c:	1080           	moveb %d0,%a0@
    413e:	4878 0042      	pea 42 <DBL_MANT_DIG+0xd>
    4142:	45fa d276      	lea %pc@(13ba <_ZN11GDTransport10transfer_bEh.constprop.2.isra.0>),%a2
    4146:	4e92           	jsr %a2@
    4148:	49fa d224      	lea %pc@(136e <_ZN11GDTransport10transfer_bEh.constprop.1>),%a4
    414c:	4e94           	jsr %a4@
    414e:	4e94           	jsr %a4@
    4150:	2079 0002 2474 	moveal 22474 <spi_ctl>,%a0
    4156:	1010           	moveb %a0@,%d0
    4158:	0200 fffe      	andib #-2,%d0
    415c:	1080           	moveb %d0,%a0@
    415e:	2079 0002 2474 	moveal 22474 <spi_ctl>,%a0
    4164:	1010           	moveb %a0@,%d0
    4166:	0000 0001      	orib #1,%d0
    416a:	1080           	moveb %d0,%a0@
    416c:	42a7           	clrl %sp@-
    416e:	4e92           	jsr %a2@
    4170:	4e94           	jsr %a4@
    4172:	4e94           	jsr %a4@
    4174:	2079 0002 2474 	moveal 22474 <spi_ctl>,%a0
    417a:	1010           	moveb %a0@,%d0
    417c:	0200 fffe      	andib #-2,%d0
    4180:	1080           	moveb %d0,%a0@
    4182:	2079 0002 2474 	moveal 22474 <spi_ctl>,%a0
    4188:	1010           	moveb %a0@,%d0
    418a:	0000 0001      	orib #1,%d0
    418e:	1080           	moveb %d0,%a0@
    4190:	4878 0068      	pea 68 <DBL_MANT_DIG+0x33>
    4194:	4e92           	jsr %a2@
    4196:	4e94           	jsr %a4@
    4198:	4e94           	jsr %a4@
    419a:	2079 0002 2474 	moveal 22474 <spi_ctl>,%a0
    41a0:	1010           	moveb %a0@,%d0
    41a2:	0200 fffe      	andib #-2,%d0
    41a6:	1080           	moveb %d0,%a0@
    41a8:	4fef 000c      	lea %sp@(12),%sp
    41ac:	7202           	moveq #2,%d1
    41ae:	2d41 ff78      	movel %d1,%fp@(-136)
    41b2:	263c 0002 2bb8 	movel #142264,%d3
    41b8:	47fa db0c      	lea %pc@(1cc6 <_ZN11GDTransport5cmd32Em.constprop.0>),%a3
    41bc:	243c 0030 8000 	movel #3178496,%d2
    41c2:	283c 0010 8000 	movel #1081344,%d4
    41c8:	2079 0002 2474 	moveal 22474 <spi_ctl>,%a0
    41ce:	1010           	moveb %a0@,%d0
    41d0:	0200 fffe      	andib #-2,%d0
    41d4:	1080           	moveb %d0,%a0@
    41d6:	2079 0002 2474 	moveal 22474 <spi_ctl>,%a0
    41dc:	1010           	moveb %a0@,%d0
    41de:	0000 0001      	orib #1,%d0
    41e2:	1080           	moveb %d0,%a0@
    41e4:	4878 000c      	pea c <OPER1>
    41e8:	4e92           	jsr %a2@
    41ea:	42a7           	clrl %sp@-
    41ec:	4e92           	jsr %a2@
    41ee:	42a7           	clrl %sp@-
    41f0:	4e92           	jsr %a2@
    41f2:	2079 0002 2474 	moveal 22474 <spi_ctl>,%a0
    41f8:	4fef 000c      	lea %sp@(12),%sp
    41fc:	1010           	moveb %a0@,%d0
    41fe:	0800 0005      	btst #5,%d0
    4202:	67f8           	beqs 41fc <_ZN7GDClass5beginEhii+0x106>
    4204:	2079 0002 2470 	moveal 22470 <spi_data_in>,%a0
    420a:	10bc 0000      	moveb #0,%a0@
    420e:	2079 0002 2474 	moveal 22474 <spi_ctl>,%a0
    4214:	1010           	moveb %a0@,%d0
    4216:	0000 0008      	orib #8,%d0
    421a:	1080           	moveb %d0,%a0@
    421c:	2079 0002 2474 	moveal 22474 <spi_ctl>,%a0
    4222:	1010           	moveb %a0@,%d0
    4224:	0200 fff7      	andib #-9,%d0
    4228:	1080           	moveb %d0,%a0@
    422a:	2079 0002 2474 	moveal 22474 <spi_ctl>,%a0
    4230:	1010           	moveb %a0@,%d0
    4232:	0800 0005      	btst #5,%d0
    4236:	67f8           	beqs 4230 <_ZN7GDClass5beginEhii+0x13a>
    4238:	2279 0002 246c 	moveal 2246c <spi_data_out>,%a1
    423e:	1011           	moveb %a1@,%d0
    4240:	1010           	moveb %a0@,%d0
    4242:	0800 0005      	btst #5,%d0
    4246:	67f8           	beqs 4240 <_ZN7GDClass5beginEhii+0x14a>
    4248:	2079 0002 2470 	moveal 22470 <spi_data_in>,%a0
    424e:	10bc 0000      	moveb #0,%a0@
    4252:	2079 0002 2474 	moveal 22474 <spi_ctl>,%a0
    4258:	1010           	moveb %a0@,%d0
    425a:	0000 0008      	orib #8,%d0
    425e:	1080           	moveb %d0,%a0@
    4260:	2079 0002 2474 	moveal 22474 <spi_ctl>,%a0
    4266:	1010           	moveb %a0@,%d0
    4268:	0200 fff7      	andib #-9,%d0
    426c:	1080           	moveb %d0,%a0@
    426e:	2079 0002 2474 	moveal 22474 <spi_ctl>,%a0
    4274:	1010           	moveb %a0@,%d0
    4276:	0800 0005      	btst #5,%d0
    427a:	67f8           	beqs 4274 <_ZN7GDClass5beginEhii+0x17e>
    427c:	2279 0002 246c 	moveal 2246c <spi_data_out>,%a1
    4282:	1211           	moveb %a1@,%d1
    4284:	1010           	moveb %a0@,%d0
    4286:	0800 0005      	btst #5,%d0
    428a:	67f8           	beqs 4284 <_ZN7GDClass5beginEhii+0x18e>
    428c:	2079 0002 2470 	moveal 22470 <spi_data_in>,%a0
    4292:	10bc 0000      	moveb #0,%a0@
    4296:	2079 0002 2474 	moveal 22474 <spi_ctl>,%a0
    429c:	1010           	moveb %a0@,%d0
    429e:	0000 0008      	orib #8,%d0
    42a2:	1080           	moveb %d0,%a0@
    42a4:	2079 0002 2474 	moveal 22474 <spi_ctl>,%a0
    42aa:	1010           	moveb %a0@,%d0
    42ac:	0200 fff7      	andib #-9,%d0
    42b0:	1080           	moveb %d0,%a0@
    42b2:	2079 0002 2474 	moveal 22474 <spi_ctl>,%a0
    42b8:	1010           	moveb %a0@,%d0
    42ba:	0800 0005      	btst #5,%d0
    42be:	67f8           	beqs 42b8 <_ZN7GDClass5beginEhii+0x1c2>
    42c0:	2279 0002 246c 	moveal 2246c <spi_data_out>,%a1
    42c6:	1c11           	moveb %a1@,%d6
    42c8:	e14e           	lslw #8,%d6
    42ca:	0241 00ff      	andiw #255,%d1
    42ce:	8c41           	orw %d1,%d6
    42d0:	1010           	moveb %a0@,%d0
    42d2:	0200 fffe      	andib #-2,%d0
    42d6:	1080           	moveb %d0,%a0@
    42d8:	2002           	movel %d2,%d0
    42da:	4a39 0002 2bb6 	tstb 22bb6 <ft8xx_model>
    42e0:	6602           	bnes 42e4 <_ZN7GDClass5beginEhii+0x1ee>
    42e2:	2004           	movel %d4,%d0
    42e4:	3e39 0002 2bbc 	movew 22bbc <_ZL4GDTR+0x4>,%d7
    42ea:	0247 0fff      	andiw #4095,%d7
    42ee:	0287 0000 ffff 	andil #65535,%d7
    42f4:	de80           	addl %d0,%d7
    42f6:	2079 0002 2474 	moveal 22474 <spi_ctl>,%a0
    42fc:	1210           	moveb %a0@,%d1
    42fe:	0001 0001      	orib #1,%d1
    4302:	1081           	moveb %d1,%a0@
    4304:	4240           	clrw %d0
    4306:	4840           	swap %d0
    4308:	727f           	moveq #127,%d1
    430a:	4601           	notb %d1
    430c:	8280           	orl %d0,%d1
    430e:	2f01           	movel %d1,%sp@-
    4310:	4e92           	jsr %a2@
    4312:	3007           	movew %d7,%d0
    4314:	e048           	lsrw #8,%d0
    4316:	7200           	moveq #0,%d1
    4318:	4601           	notb %d1
    431a:	c280           	andl %d0,%d1
    431c:	2f01           	movel %d1,%sp@-
    431e:	4e92           	jsr %a2@
    4320:	7000           	moveq #0,%d0
    4322:	4600           	notb %d0
    4324:	c087           	andl %d7,%d0
    4326:	2f00           	movel %d0,%sp@-
    4328:	4e92           	jsr %a2@
    432a:	4fef 000c      	lea %sp@(12),%sp
    432e:	0c06 0008      	cmpib #8,%d6
    4332:	6700 0170      	beqw 44a4 <_ZN7GDClass5beginEhii+0x3ae>
    4336:	2079 0002 2474 	moveal 22474 <spi_ctl>,%a0
    433c:	1010           	moveb %a0@,%d0
    433e:	0200 fffe      	andib #-2,%d0
    4342:	1080           	moveb %d0,%a0@
    4344:	2079 0002 2474 	moveal 22474 <spi_ctl>,%a0
    434a:	1010           	moveb %a0@,%d0
    434c:	0000 0001      	orib #1,%d0
    4350:	1080           	moveb %d0,%a0@
    4352:	4878 000c      	pea c <OPER1>
    4356:	4e92           	jsr %a2@
    4358:	42a7           	clrl %sp@-
    435a:	4e92           	jsr %a2@
    435c:	42a7           	clrl %sp@-
    435e:	4e92           	jsr %a2@
    4360:	2079 0002 2474 	moveal 22474 <spi_ctl>,%a0
    4366:	4fef 000c      	lea %sp@(12),%sp
    436a:	1010           	moveb %a0@,%d0
    436c:	0800 0005      	btst #5,%d0
    4370:	67f8           	beqs 436a <_ZN7GDClass5beginEhii+0x274>
    4372:	2079 0002 2470 	moveal 22470 <spi_data_in>,%a0
    4378:	10bc 0000      	moveb #0,%a0@
    437c:	2079 0002 2474 	moveal 22474 <spi_ctl>,%a0
    4382:	1010           	moveb %a0@,%d0
    4384:	0000 0008      	orib #8,%d0
    4388:	1080           	moveb %d0,%a0@
    438a:	2079 0002 2474 	moveal 22474 <spi_ctl>,%a0
    4390:	1010           	moveb %a0@,%d0
    4392:	0200 fff7      	andib #-9,%d0
    4396:	1080           	moveb %d0,%a0@
    4398:	2079 0002 2474 	moveal 22474 <spi_ctl>,%a0
    439e:	1010           	moveb %a0@,%d0
    43a0:	0800 0005      	btst #5,%d0
    43a4:	67f8           	beqs 439e <_ZN7GDClass5beginEhii+0x2a8>
    43a6:	2279 0002 246c 	moveal 2246c <spi_data_out>,%a1
    43ac:	1011           	moveb %a1@,%d0
    43ae:	1010           	moveb %a0@,%d0
    43b0:	0800 0005      	btst #5,%d0
    43b4:	67f8           	beqs 43ae <_ZN7GDClass5beginEhii+0x2b8>
    43b6:	2079 0002 2470 	moveal 22470 <spi_data_in>,%a0
    43bc:	10bc 0000      	moveb #0,%a0@
    43c0:	2079 0002 2474 	moveal 22474 <spi_ctl>,%a0
    43c6:	1010           	moveb %a0@,%d0
    43c8:	0000 0008      	orib #8,%d0
    43cc:	1080           	moveb %d0,%a0@
    43ce:	2079 0002 2474 	moveal 22474 <spi_ctl>,%a0
    43d4:	1010           	moveb %a0@,%d0
    43d6:	0200 fff7      	andib #-9,%d0
    43da:	1080           	moveb %d0,%a0@
    43dc:	2079 0002 2474 	moveal 22474 <spi_ctl>,%a0
    43e2:	1010           	moveb %a0@,%d0
    43e4:	0800 0005      	btst #5,%d0
    43e8:	67f8           	beqs 43e2 <_ZN7GDClass5beginEhii+0x2ec>
    43ea:	2279 0002 246c 	moveal 2246c <spi_data_out>,%a1
    43f0:	1211           	moveb %a1@,%d1
    43f2:	1010           	moveb %a0@,%d0
    43f4:	0800 0005      	btst #5,%d0
    43f8:	67f8           	beqs 43f2 <_ZN7GDClass5beginEhii+0x2fc>
    43fa:	2079 0002 2470 	moveal 22470 <spi_data_in>,%a0
    4400:	10bc 0000      	moveb #0,%a0@
    4404:	2079 0002 2474 	moveal 22474 <spi_ctl>,%a0
    440a:	1010           	moveb %a0@,%d0
    440c:	0000 0008      	orib #8,%d0
    4410:	1080           	moveb %d0,%a0@
    4412:	2079 0002 2474 	moveal 22474 <spi_ctl>,%a0
    4418:	1010           	moveb %a0@,%d0
    441a:	0200 fff7      	andib #-9,%d0
    441e:	1080           	moveb %d0,%a0@
    4420:	2079 0002 2474 	moveal 22474 <spi_ctl>,%a0
    4426:	1010           	moveb %a0@,%d0
    4428:	0800 0005      	btst #5,%d0
    442c:	67f8           	beqs 4426 <_ZN7GDClass5beginEhii+0x330>
    442e:	2279 0002 246c 	moveal 2246c <spi_data_out>,%a1
    4434:	1c11           	moveb %a1@,%d6
    4436:	e14e           	lslw #8,%d6
    4438:	0241 00ff      	andiw #255,%d1
    443c:	8c41           	orw %d1,%d6
    443e:	1010           	moveb %a0@,%d0
    4440:	0200 fffe      	andib #-2,%d0
    4444:	1080           	moveb %d0,%a0@
    4446:	2002           	movel %d2,%d0
    4448:	4a39 0002 2bb6 	tstb 22bb6 <ft8xx_model>
    444e:	6602           	bnes 4452 <_ZN7GDClass5beginEhii+0x35c>
    4450:	2004           	movel %d4,%d0
    4452:	3e39 0002 2bbc 	movew 22bbc <_ZL4GDTR+0x4>,%d7
    4458:	0247 0fff      	andiw #4095,%d7
    445c:	0287 0000 ffff 	andil #65535,%d7
    4462:	de80           	addl %d0,%d7
    4464:	2079 0002 2474 	moveal 22474 <spi_ctl>,%a0
    446a:	1210           	moveb %a0@,%d1
    446c:	0001 0001      	orib #1,%d1
    4470:	1081           	moveb %d1,%a0@
    4472:	4240           	clrw %d0
    4474:	4840           	swap %d0
    4476:	727f           	moveq #127,%d1
    4478:	4601           	notb %d1
    447a:	8280           	orl %d0,%d1
    447c:	2f01           	movel %d1,%sp@-
    447e:	4e92           	jsr %a2@
    4480:	3007           	movew %d7,%d0
    4482:	e048           	lsrw #8,%d0
    4484:	7200           	moveq #0,%d1
    4486:	4601           	notb %d1
    4488:	c280           	andl %d0,%d1
    448a:	2f01           	movel %d1,%sp@-
    448c:	4e92           	jsr %a2@
    448e:	7000           	moveq #0,%d0
    4490:	4600           	notb %d0
    4492:	c087           	andl %d7,%d0
    4494:	2f00           	movel %d0,%sp@-
    4496:	4e92           	jsr %a2@
    4498:	4fef 000c      	lea %sp@(12),%sp
    449c:	0c06 0015      	cmpib #21,%d6
    44a0:	6600 fd26      	bnew 41c8 <_ZN7GDClass5beginEhii+0xd2>
    44a4:	2079 0002 2474 	moveal 22474 <spi_ctl>,%a0
    44aa:	1010           	moveb %a0@,%d0
    44ac:	0200 fffe      	andib #-2,%d0
    44b0:	1080           	moveb %d0,%a0@
    44b2:	2079 0002 2474 	moveal 22474 <spi_ctl>,%a0
    44b8:	1010           	moveb %a0@,%d0
    44ba:	0000 0001      	orib #1,%d0
    44be:	1080           	moveb %d0,%a0@
    44c0:	4878 000c      	pea c <OPER1>
    44c4:	4e92           	jsr %a2@
    44c6:	42a7           	clrl %sp@-
    44c8:	4e92           	jsr %a2@
    44ca:	42a7           	clrl %sp@-
    44cc:	4e92           	jsr %a2@
    44ce:	4e94           	jsr %a4@
    44d0:	4e94           	jsr %a4@
    44d2:	1e00           	moveb %d0,%d7
    44d4:	4e94           	jsr %a4@
    44d6:	3c00           	movew %d0,%d6
    44d8:	e14e           	lslw #8,%d6
    44da:	0247 00ff      	andiw #255,%d7
    44de:	8c47           	orw %d7,%d6
    44e0:	2079 0002 2474 	moveal 22474 <spi_ctl>,%a0
    44e6:	1010           	moveb %a0@,%d0
    44e8:	0200 fffe      	andib #-2,%d0
    44ec:	1080           	moveb %d0,%a0@
    44ee:	4fef 000c      	lea %sp@(12),%sp
    44f2:	2002           	movel %d2,%d0
    44f4:	4a39 0002 2bb6 	tstb 22bb6 <ft8xx_model>
    44fa:	6602           	bnes 44fe <_ZN7GDClass5beginEhii+0x408>
    44fc:	2004           	movel %d4,%d0
    44fe:	3e39 0002 2bbc 	movew 22bbc <_ZL4GDTR+0x4>,%d7
    4504:	0247 0fff      	andiw #4095,%d7
    4508:	0287 0000 ffff 	andil #65535,%d7
    450e:	de80           	addl %d0,%d7
    4510:	2079 0002 2474 	moveal 22474 <spi_ctl>,%a0
    4516:	1210           	moveb %a0@,%d1
    4518:	0001 0001      	orib #1,%d1
    451c:	1081           	moveb %d1,%a0@
    451e:	4240           	clrw %d0
    4520:	4840           	swap %d0
    4522:	727f           	moveq #127,%d1
    4524:	4601           	notb %d1
    4526:	8280           	orl %d0,%d1
    4528:	2f01           	movel %d1,%sp@-
    452a:	4e92           	jsr %a2@
    452c:	3007           	movew %d7,%d0
    452e:	e048           	lsrw #8,%d0
    4530:	7200           	moveq #0,%d1
    4532:	4601           	notb %d1
    4534:	c280           	andl %d0,%d1
    4536:	2f01           	movel %d1,%sp@-
    4538:	4e92           	jsr %a2@
    453a:	7000           	moveq #0,%d0
    453c:	4600           	notb %d0
    453e:	c087           	andl %d7,%d0
    4540:	2f00           	movel %d0,%sp@-
    4542:	4e92           	jsr %a2@
    4544:	7000           	moveq #0,%d0
    4546:	3006           	movew %d6,%d0
    4548:	e088           	lsrl #8,%d0
    454a:	4fef 000c      	lea %sp@(12),%sp
    454e:	7201           	moveq #1,%d1
    4550:	b280           	cmpl %d0,%d1
    4552:	6500 0704      	bcsw 4c58 <_ZN7GDClass5beginEhii+0xb62>
    4556:	4239 0002 2bb6 	clrb 22bb6 <ft8xx_model>
    455c:	23fc 0000 0ffc 	movel #4092,22bbc <_ZL4GDTR+0x4>
    4562:	0002 2bbc 
    4566:	2f03           	movel %d3,%sp@-
    4568:	4eb9 0000 e2fa 	jsr e2fa <_ZN11GDTransport6streamEv>
    456e:	2f3c 2600 0007 	movel #637534215,%sp@-
    4574:	4e93           	jsr %a3@
    4576:	2f0d           	movel %a5,%sp@-
    4578:	4eba e4e8      	jsr %pc@(2a62 <_ZN7GDClass4swapEv>)
    457c:	4eba d312      	jsr %pc@(1890 <_ZN11GDTransport6finishEv.constprop.0>)
    4580:	4fef 000c      	lea %sp@(12),%sp
    4584:	203c 0030 20d4 	movel #3154132,%d0
    458a:	4a39 0002 2bb6 	tstb 22bb6 <ft8xx_model>
    4590:	6606           	bnes 4598 <_ZN7GDClass5beginEhii+0x4a2>
    4592:	203c 0010 24c4 	movel #1057988,%d0
    4598:	42a7           	clrl %sp@-
    459a:	2f00           	movel %d0,%sp@-
    459c:	4eba cf5e      	jsr %pc@(14fc <_ZN11GDTransport2wrEmh.constprop.0>)
    45a0:	508f           	addql #8,%sp
    45a2:	203c 0030 2090 	movel #3154064,%d0
    45a8:	4a39 0002 2bb6 	tstb 22bb6 <ft8xx_model>
    45ae:	6606           	bnes 45b6 <_ZN7GDClass5beginEhii+0x4c0>
    45b0:	203c 0010 248c 	movel #1057932,%d0
    45b6:	4878 0083      	pea 83 <DBL_MANT_DIG+0x4e>
    45ba:	2f00           	movel %d0,%sp@-
    45bc:	4eba cf3e      	jsr %pc@(14fc <_ZN11GDTransport2wrEmh.constprop.0>)
    45c0:	508f           	addql #8,%sp
    45c2:	4a39 0002 2bb6 	tstb 22bb6 <ft8xx_model>
    45c8:	6600 0720      	bnew 4cea <_ZN7GDClass5beginEhii+0xbf4>
    45cc:	7c6f           	moveq #111,%d6
    45ce:	4606           	notb %d6
    45d0:	7e24           	moveq #36,%d7
    45d2:	7210           	moveq #16,%d1
    45d4:	2079 0002 2474 	moveal 22474 <spi_ctl>,%a0
    45da:	1010           	moveb %a0@,%d0
    45dc:	0200 fffe      	andib #-2,%d0
    45e0:	1080           	moveb %d0,%a0@
    45e2:	2079 0002 2474 	moveal 22474 <spi_ctl>,%a0
    45e8:	1010           	moveb %a0@,%d0
    45ea:	0000 0001      	orib #1,%d0
    45ee:	1080           	moveb %d0,%a0@
    45f0:	2f01           	movel %d1,%sp@-
    45f2:	4e92           	jsr %a2@
    45f4:	2f07           	movel %d7,%sp@-
    45f6:	4e92           	jsr %a2@
    45f8:	2f06           	movel %d6,%sp@-
    45fa:	4e92           	jsr %a2@
    45fc:	42a7           	clrl %sp@-
    45fe:	4eba cd20      	jsr %pc@(1320 <_ZN11GDTransport10transfer_bEh.constprop.0>)
    4602:	42a7           	clrl %sp@-
    4604:	4eba cd1a      	jsr %pc@(1320 <_ZN11GDTransport10transfer_bEh.constprop.0>)
    4608:	1c00           	moveb %d0,%d6
    460a:	2079 0002 2474 	moveal 22474 <spi_ctl>,%a0
    4610:	1010           	moveb %a0@,%d0
    4612:	0200 fffe      	andib #-2,%d0
    4616:	1080           	moveb %d0,%a0@
    4618:	4fef 0014      	lea %sp@(20),%sp
    461c:	2002           	movel %d2,%d0
    461e:	4a39 0002 2bb6 	tstb 22bb6 <ft8xx_model>
    4624:	6602           	bnes 4628 <_ZN7GDClass5beginEhii+0x532>
    4626:	2004           	movel %d4,%d0
    4628:	3e39 0002 2bbc 	movew 22bbc <_ZL4GDTR+0x4>,%d7
    462e:	0247 0fff      	andiw #4095,%d7
    4632:	0287 0000 ffff 	andil #65535,%d7
    4638:	de80           	addl %d0,%d7
    463a:	2079 0002 2474 	moveal 22474 <spi_ctl>,%a0
    4640:	1210           	moveb %a0@,%d1
    4642:	0001 0001      	orib #1,%d1
    4646:	1081           	moveb %d1,%a0@
    4648:	4240           	clrw %d0
    464a:	4840           	swap %d0
    464c:	727f           	moveq #127,%d1
    464e:	4601           	notb %d1
    4650:	8280           	orl %d0,%d1
    4652:	2f01           	movel %d1,%sp@-
    4654:	4e92           	jsr %a2@
    4656:	3007           	movew %d7,%d0
    4658:	e048           	lsrw #8,%d0
    465a:	7200           	moveq #0,%d1
    465c:	4601           	notb %d1
    465e:	c280           	andl %d0,%d1
    4660:	2f01           	movel %d1,%sp@-
    4662:	4e92           	jsr %a2@
    4664:	7000           	moveq #0,%d0
    4666:	4600           	notb %d0
    4668:	c087           	andl %d7,%d0
    466a:	2f00           	movel %d0,%sp@-
    466c:	4e92           	jsr %a2@
    466e:	0006 ff80      	orib #-128,%d6
    4672:	0286 0000 00ff 	andil #255,%d6
    4678:	4fef 000c      	lea %sp@(12),%sp
    467c:	223c 0030 2094 	movel #3154068,%d1
    4682:	4a39 0002 2bb6 	tstb 22bb6 <ft8xx_model>
    4688:	6606           	bnes 4690 <_ZN7GDClass5beginEhii+0x59a>
    468a:	223c 0010 2490 	movel #1057936,%d1
    4690:	2f06           	movel %d6,%sp@-
    4692:	2f01           	movel %d1,%sp@-
    4694:	4eba ce66      	jsr %pc@(14fc <_ZN11GDTransport2wrEmh.constprop.0>)
    4698:	2f3c 2600 0007 	movel #637534215,%sp@-
    469e:	4e93           	jsr %a3@
    46a0:	2f0d           	movel %a5,%sp@-
    46a2:	4eba e3be      	jsr %pc@(2a62 <_ZN7GDClass4swapEv>)
    46a6:	1039 0002 2bb6 	moveb 22bb6 <ft8xx_model>,%d0
    46ac:	4fef 0010      	lea %sp@(16),%sp
    46b0:	0c00 0001      	cmpib #1,%d0
    46b4:	6700 0728      	beqw 4dde <_ZN7GDClass5beginEhii+0xce8>
    46b8:	0c00 0002      	cmpib #2,%d0
    46bc:	664c           	bnes 470a <_ZN7GDClass5beginEhii+0x614>
    46be:	4878 ff4a      	pea ffffff4a <LESS+0xffffff4b>
    46c2:	4e93           	jsr %a3@
    46c4:	588f           	addql #4,%sp
    46c6:	203c 0030 8000 	movel #3178496,%d0
    46cc:	4a39 0002 2bb6 	tstb 22bb6 <ft8xx_model>
    46d2:	6700 0870      	beqw 4f44 <_ZN7GDClass5beginEhii+0xe4e>
    46d6:	3439 0002 2bbc 	movew 22bbc <_ZL4GDTR+0x4>,%d2
    46dc:	0242 0ffc      	andiw #4092,%d2
    46e0:	0282 0000 ffff 	andil #65535,%d2
    46e6:	d480           	addl %d0,%d2
    46e8:	2f3c dead beef 	movel #-559038737,%sp@-
    46ee:	4e93           	jsr %a3@
    46f0:	4eba d19e      	jsr %pc@(1890 <_ZN11GDTransport6finishEv.constprop.0>)
    46f4:	2f02           	movel %d2,%sp@-
    46f6:	45fa d09e      	lea %pc@(1796 <_ZN11GDTransport4rd32Em.constprop.0>),%a2
    46fa:	4e92           	jsr %a2@
    46fc:	508f           	addql #8,%sp
    46fe:	4a80           	tstl %d0
    4700:	6700 0876      	beqw 4f78 <_ZN7GDClass5beginEhii+0xe82>
    4704:	1039 0002 2bb6 	moveb 22bb6 <ft8xx_model>,%d0
    470a:	223c 0030 205c 	movel #3154012,%d1
    4710:	4a00           	tstb %d0
    4712:	6700 0690      	beqw 4da4 <_ZN7GDClass5beginEhii+0xcae>
    4716:	4878 01b6      	pea 1b6 <LINKIT+0xb9>
    471a:	2f01           	movel %d1,%sp@-
    471c:	49fa d674      	lea %pc@(1d92 <_ZN7GDClass12cmd_regwriteEmm.constprop.0>),%a4
    4720:	4e94           	jsr %a4@
    4722:	508f           	addql #8,%sp
    4724:	203c 0030 2060 	movel #3154016,%d0
    472a:	4a39 0002 2bb6 	tstb 22bb6 <ft8xx_model>
    4730:	6700 0650      	beqw 4d82 <_ZN7GDClass5beginEhii+0xc8c>
    4734:	4878 0001      	pea 1 <ADD>
    4738:	2f00           	movel %d0,%sp@-
    473a:	4e94           	jsr %a4@
    473c:	508f           	addql #8,%sp
    473e:	203c 0030 2058 	movel #3154008,%d0
    4744:	4a39 0002 2bb6 	tstb 22bb6 <ft8xx_model>
    474a:	6700 0614      	beqw 4d60 <_ZN7GDClass5beginEhii+0xc6a>
    474e:	4878 0001      	pea 1 <ADD>
    4752:	2f00           	movel %d0,%sp@-
    4754:	4e94           	jsr %a4@
    4756:	508f           	addql #8,%sp
    4758:	203c 0030 2064 	movel #3154020,%d0
    475e:	4a39 0002 2bb6 	tstb 22bb6 <ft8xx_model>
    4764:	6700 05d8      	beqw 4d3e <_ZN7GDClass5beginEhii+0xc48>
    4768:	4878 0003      	pea 3 <DIVIDE>
    476c:	2f00           	movel %d0,%sp@-
    476e:	4e94           	jsr %a4@
    4770:	508f           	addql #8,%sp
    4772:	203c 0030 206c 	movel #3154028,%d0
    4778:	4a39 0002 2bb6 	tstb 22bb6 <ft8xx_model>
    477e:	6700 059c      	beqw 4d1c <_ZN7GDClass5beginEhii+0xc26>
    4782:	4878 0001      	pea 1 <ADD>
    4786:	2f00           	movel %d0,%sp@-
    4788:	4e94           	jsr %a4@
    478a:	508f           	addql #8,%sp
    478c:	203c 0030 2070 	movel #3154032,%d0
    4792:	4a39 0002 2bb6 	tstb 22bb6 <ft8xx_model>
    4798:	6700 0568      	beqw 4d02 <_ZN7GDClass5beginEhii+0xc0c>
    479c:	4878 0005      	pea 5 <COMPARE>
    47a0:	2f00           	movel %d0,%sp@-
    47a2:	4e94           	jsr %a4@
    47a4:	1805           	moveb %d5,%d4
    47a6:	0204 0002      	andib #2,%d4
    47aa:	508f           	addql #8,%sp
    47ac:	4eba d0e2      	jsr %pc@(1890 <_ZN11GDTransport6finishEv.constprop.0>)
    47b0:	203c 0030 2034 	movel #3153972,%d0
    47b6:	4a39 0002 2bb6 	tstb 22bb6 <ft8xx_model>
    47bc:	6606           	bnes 47c4 <_ZN7GDClass5beginEhii+0x6ce>
    47be:	203c 0010 2430 	movel #1057840,%d0
    47c4:	2f00           	movel %d0,%sp@-
    47c6:	45fa cef2      	lea %pc@(16ba <_ZN11GDTransport4rd16Em.constprop.0>),%a2
    47ca:	4e92           	jsr %a2@
    47cc:	0280 0000 ffff 	andil #65535,%d0
    47d2:	2a80           	movel %d0,%a5@
    47d4:	588f           	addql #4,%sp
    47d6:	203c 0030 2048 	movel #3153992,%d0
    47dc:	4a39 0002 2bb6 	tstb 22bb6 <ft8xx_model>
    47e2:	6606           	bnes 47ea <_ZN7GDClass5beginEhii+0x6f4>
    47e4:	203c 0010 2444 	movel #1057860,%d0
    47ea:	2f00           	movel %d0,%sp@-
    47ec:	4e92           	jsr %a2@
    47ee:	0280 0000 ffff 	andil #65535,%d0
    47f4:	2b40 0004      	movel %d0,%a5@(4)
    47f8:	42ad 0008      	clrl %a5@(8)
    47fc:	588f           	addql #4,%sp
    47fe:	7400           	moveq #0,%d2
    4800:	45f9 0000 ea30 	lea ea30 <_ZN11GDTransport7getfreeEt>,%a2
    4806:	1c02           	moveb %d2,%d6
    4808:	2a02           	movel %d2,%d5
    480a:	0085 0500 0000 	oril #83886080,%d5
    4810:	3039 0002 2bbe 	movew 22bbe <_ZL4GDTR+0x6>,%d0
    4816:	0c40 0003      	cmpiw #3,%d0
    481a:	6300 04a6      	blsw 4cc2 <_ZN7GDClass5beginEhii+0xbcc>
    481e:	5879 0002 2bbc 	addqw #4,22bbc <_ZL4GDTR+0x4>
    4824:	5940           	subqw #4,%d0
    4826:	33c0 0002 2bbe 	movew %d0,22bbe <_ZL4GDTR+0x6>
    482c:	2079 0002 2474 	moveal 22474 <spi_ctl>,%a0
    4832:	1010           	moveb %a0@,%d0
    4834:	0800 0005      	btst #5,%d0
    4838:	67f8           	beqs 4832 <_ZN7GDClass5beginEhii+0x73c>
    483a:	2079 0002 2470 	moveal 22470 <spi_data_in>,%a0
    4840:	1086           	moveb %d6,%a0@
    4842:	2079 0002 2474 	moveal 22474 <spi_ctl>,%a0
    4848:	1010           	moveb %a0@,%d0
    484a:	0000 0008      	orib #8,%d0
    484e:	1080           	moveb %d0,%a0@
    4850:	2079 0002 2474 	moveal 22474 <spi_ctl>,%a0
    4856:	1010           	moveb %a0@,%d0
    4858:	0200 fff7      	andib #-9,%d0
    485c:	1080           	moveb %d0,%a0@
    485e:	2279 0002 2474 	moveal 22474 <spi_ctl>,%a1
    4864:	1011           	moveb %a1@,%d0
    4866:	0800 0005      	btst #5,%d0
    486a:	67f8           	beqs 4864 <_ZN7GDClass5beginEhii+0x76e>
    486c:	2079 0002 246c 	moveal 2246c <spi_data_out>,%a0
    4872:	1010           	moveb %a0@,%d0
    4874:	2205           	movel %d5,%d1
    4876:	e089           	lsrl #8,%d1
    4878:	1011           	moveb %a1@,%d0
    487a:	0800 0005      	btst #5,%d0
    487e:	67f8           	beqs 4878 <_ZN7GDClass5beginEhii+0x782>
    4880:	2079 0002 2470 	moveal 22470 <spi_data_in>,%a0
    4886:	1081           	moveb %d1,%a0@
    4888:	2079 0002 2474 	moveal 22474 <spi_ctl>,%a0
    488e:	1010           	moveb %a0@,%d0
    4890:	0000 0008      	orib #8,%d0
    4894:	1080           	moveb %d0,%a0@
    4896:	2079 0002 2474 	moveal 22474 <spi_ctl>,%a0
    489c:	1010           	moveb %a0@,%d0
    489e:	0200 fff7      	andib #-9,%d0
    48a2:	1080           	moveb %d0,%a0@
    48a4:	2279 0002 2474 	moveal 22474 <spi_ctl>,%a1
    48aa:	1011           	moveb %a1@,%d0
    48ac:	0800 0005      	btst #5,%d0
    48b0:	67f8           	beqs 48aa <_ZN7GDClass5beginEhii+0x7b4>
    48b2:	2079 0002 246c 	moveal 2246c <spi_data_out>,%a0
    48b8:	1010           	moveb %a0@,%d0
    48ba:	2205           	movel %d5,%d1
    48bc:	4241           	clrw %d1
    48be:	4841           	swap %d1
    48c0:	1011           	moveb %a1@,%d0
    48c2:	0800 0005      	btst #5,%d0
    48c6:	67f8           	beqs 48c0 <_ZN7GDClass5beginEhii+0x7ca>
    48c8:	2079 0002 2470 	moveal 22470 <spi_data_in>,%a0
    48ce:	1081           	moveb %d1,%a0@
    48d0:	2079 0002 2474 	moveal 22474 <spi_ctl>,%a0
    48d6:	1010           	moveb %a0@,%d0
    48d8:	0000 0008      	orib #8,%d0
    48dc:	1080           	moveb %d0,%a0@
    48de:	2079 0002 2474 	moveal 22474 <spi_ctl>,%a0
    48e4:	1010           	moveb %a0@,%d0
    48e6:	0200 fff7      	andib #-9,%d0
    48ea:	1080           	moveb %d0,%a0@
    48ec:	2279 0002 2474 	moveal 22474 <spi_ctl>,%a1
    48f2:	1011           	moveb %a1@,%d0
    48f4:	0800 0005      	btst #5,%d0
    48f8:	67f8           	beqs 48f2 <_ZN7GDClass5beginEhii+0x7fc>
    48fa:	2079 0002 246c 	moveal 2246c <spi_data_out>,%a0
    4900:	1010           	moveb %a0@,%d0
    4902:	4245           	clrw %d5
    4904:	4845           	swap %d5
    4906:	e04d           	lsrw #8,%d5
    4908:	1011           	moveb %a1@,%d0
    490a:	0800 0005      	btst #5,%d0
    490e:	67f8           	beqs 4908 <_ZN7GDClass5beginEhii+0x812>
    4910:	2079 0002 2470 	moveal 22470 <spi_data_in>,%a0
    4916:	1085           	moveb %d5,%a0@
    4918:	2079 0002 2474 	moveal 22474 <spi_ctl>,%a0
    491e:	1010           	moveb %a0@,%d0
    4920:	0000 0008      	orib #8,%d0
    4924:	1080           	moveb %d0,%a0@
    4926:	2079 0002 2474 	moveal 22474 <spi_ctl>,%a0
    492c:	1010           	moveb %a0@,%d0
    492e:	0200 fff7      	andib #-9,%d0
    4932:	1080           	moveb %d0,%a0@
    4934:	2079 0002 2474 	moveal 22474 <spi_ctl>,%a0
    493a:	1010           	moveb %a0@,%d0
    493c:	0800 0005      	btst #5,%d0
    4940:	67f8           	beqs 493a <_ZN7GDClass5beginEhii+0x844>
    4942:	2279 0002 246c 	moveal 2246c <spi_data_out>,%a1
    4948:	1011           	moveb %a1@,%d0
    494a:	3039 0002 2bbe 	movew 22bbe <_ZL4GDTR+0x6>,%d0
    4950:	0c40 0003      	cmpiw #3,%d0
    4954:	6300 0344      	blsw 4c9a <_ZN7GDClass5beginEhii+0xba4>
    4958:	5879 0002 2bbc 	addqw #4,22bbc <_ZL4GDTR+0x4>
    495e:	5940           	subqw #4,%d0
    4960:	33c0 0002 2bbe 	movew %d0,22bbe <_ZL4GDTR+0x6>
    4966:	1010           	moveb %a0@,%d0
    4968:	0800 0005      	btst #5,%d0
    496c:	67f8           	beqs 4966 <_ZN7GDClass5beginEhii+0x870>
    496e:	2079 0002 2470 	moveal 22470 <spi_data_in>,%a0
    4974:	10bc 0000      	moveb #0,%a0@
    4978:	2079 0002 2474 	moveal 22474 <spi_ctl>,%a0
    497e:	1010           	moveb %a0@,%d0
    4980:	0000 0008      	orib #8,%d0
    4984:	1080           	moveb %d0,%a0@
    4986:	2079 0002 2474 	moveal 22474 <spi_ctl>,%a0
    498c:	1010           	moveb %a0@,%d0
    498e:	0200 fff7      	andib #-9,%d0
    4992:	1080           	moveb %d0,%a0@
    4994:	2279 0002 2474 	moveal 22474 <spi_ctl>,%a1
    499a:	1011           	moveb %a1@,%d0
    499c:	0800 0005      	btst #5,%d0
    49a0:	67f8           	beqs 499a <_ZN7GDClass5beginEhii+0x8a4>
