#NO_APP
	.file	"mandel.c"
	.text
.Ltext0:
	.cfi_sections	.debug_frame
	.section	.rodata.str1.1,"aMS",@progbits,1
.LC0:
	.string	"\r\nInitialising GD\r"
	.text
	.align	2
	.globl	_Z5setupv
	.type	_Z5setupv, @function
_Z5setupv:
.LFB994:
	.file 1 "mandel.c"
	.loc 1 37 1 view -0
	.cfi_startproc
	movem.l #8252,-(%sp)
	.cfi_def_cfa_offset 24
	.cfi_offset 2, -24
	.cfi_offset 10, -20
	.cfi_offset 11, -16
	.cfi_offset 12, -12
	.cfi_offset 13, -8
	.loc 1 38 5 view .LVU1
	.loc 1 38 11 is_stmt 0 view .LVU2
	pea .LC0
	.cfi_def_cfa_offset 28
	jsr puts
.LVL0:
	.loc 1 39 5 is_stmt 1 view .LVU3
	.loc 1 39 13 is_stmt 0 view .LVU4
	clr.l -(%sp)
	.cfi_def_cfa_offset 32
	clr.l -(%sp)
	.cfi_def_cfa_offset 36
	clr.l -(%sp)
	.cfi_def_cfa_offset 40
	pea GD
	.cfi_def_cfa_offset 44
	jsr _ZN7GDClass5beginEhii
.LVL1:
	.loc 1 41 5 is_stmt 1 view .LVU5
	.loc 1 41 21 is_stmt 0 view .LVU6
	clr.l -(%sp)
	.cfi_def_cfa_offset 48
	pea GD
	.cfi_def_cfa_offset 52
	jsr _ZN7GDClass13ClearColorRGBEm
.LVL2:
	.loc 1 42 5 is_stmt 1 view .LVU7
	.loc 1 42 13 is_stmt 0 view .LVU8
	pea GD
	.cfi_def_cfa_offset 56
	jsr _ZN7GDClass5ClearEv
.LVL3:
	.loc 1 44 5 is_stmt 1 view .LVU9
	.loc 1 44 20 is_stmt 0 view .LVU10
	lea (32,%sp),%sp
	.cfi_def_cfa_offset 24
	.loc 1 44 41 view .LVU11
	lea GD,%a2
	.loc 1 44 20 view .LVU12
	move.l GD+4,%d0
	and.l #65535,%d0
	move.l %d0,-(%sp)
	.cfi_def_cfa_offset 28
	move.l (%a2),%d0
	and.l #65535,%d0
	move.l %d0,-(%sp)
	.cfi_def_cfa_offset 32
	pea 16.w
	.cfi_def_cfa_offset 36
	move.l %a2,-(%sp)
	.cfi_def_cfa_offset 40
	jsr _ZN7GDClass12BitmapLayoutEhtt
.LVL4:
	.loc 1 45 5 is_stmt 1 view .LVU13
	.loc 1 45 18 is_stmt 0 view .LVU14
	move.l GD+4,%d0
	and.l #65535,%d0
	move.l %d0,-(%sp)
	.cfi_def_cfa_offset 44
	move.l (%a2),%d0
	and.l #65535,%d0
	move.l %d0,-(%sp)
	.cfi_def_cfa_offset 48
	clr.l -(%sp)
	.cfi_def_cfa_offset 52
	clr.l -(%sp)
	.cfi_def_cfa_offset 56
	clr.l -(%sp)
	.cfi_def_cfa_offset 60
	move.l %a2,-(%sp)
	.cfi_def_cfa_offset 64
	jsr _ZN7GDClass10BitmapSizeEhhhtt
.LVL5:
	.loc 1 46 5 is_stmt 1 view .LVU15
	.loc 1 46 20 is_stmt 0 view .LVU16
	lea (36,%sp),%sp
	.cfi_def_cfa_offset 28
	clr.l (%sp)
	move.l %a2,-(%sp)
	.cfi_def_cfa_offset 32
	jsr _ZN7GDClass12BitmapSourceEm
.LVL6:
	.loc 1 47 5 is_stmt 1 view .LVU17
	.loc 1 47 13 is_stmt 0 view .LVU18
	pea 1.w
	.cfi_def_cfa_offset 36
	move.l %a2,-(%sp)
	.cfi_def_cfa_offset 40
	jsr _ZN7GDClass5BeginE9Primitive
.LVL7:
	.loc 1 48 5 is_stmt 1 view .LVU19
	.loc 1 48 17 is_stmt 0 view .LVU20
	clr.l -(%sp)
	.cfi_def_cfa_offset 44
	pea 1.w
	.cfi_def_cfa_offset 48
	move.l %a2,-(%sp)
	.cfi_def_cfa_offset 52
	jsr _ZN7GDClass9BlendFuncEhh
.LVL8:
	.loc 1 50 5 is_stmt 1 view .LVU21
	.loc 1 50 17 is_stmt 0 view .LVU22
	pea 1.w
	.cfi_def_cfa_offset 56
	clr.l -(%sp)
	.cfi_def_cfa_offset 60
	clr.l -(%sp)
	.cfi_def_cfa_offset 64
	clr.l -(%sp)
	.cfi_def_cfa_offset 68
	move.l %a2,-(%sp)
	.cfi_def_cfa_offset 72
	lea _ZN7GDClass9ColorMaskEhhhh,%a5
	jsr (%a5)
.LVL9:
	.loc 1 51 5 is_stmt 1 view .LVU23
	.loc 1 51 21 is_stmt 0 view .LVU24
	lea (48,%sp),%sp
	.cfi_def_cfa_offset 24
	move.l addr_pal,%d0
	addq.l #3,%d0
	move.l %d0,-(%sp)
	.cfi_def_cfa_offset 28
	move.l %a2,-(%sp)
	.cfi_def_cfa_offset 32
	lea _ZN7GDClass13PaletteSourceEm,%a4
	jsr (%a4)
.LVL10:
	.loc 1 52 5 is_stmt 1 view .LVU25
	.loc 1 52 16 is_stmt 0 view .LVU26
	clr.l -(%sp)
	.cfi_def_cfa_offset 36
	clr.l -(%sp)
	.cfi_def_cfa_offset 40
	move.l %a2,-(%sp)
	.cfi_def_cfa_offset 44
	lea _ZN7GDClass8Vertex2fEss,%a3
	jsr (%a3)
.LVL11:
	.loc 1 54 5 is_stmt 1 view .LVU27
	.loc 1 54 17 is_stmt 0 view .LVU28
	clr.l -(%sp)
	.cfi_def_cfa_offset 48
	clr.l -(%sp)
	.cfi_def_cfa_offset 52
	clr.l -(%sp)
	.cfi_def_cfa_offset 56
	pea 1.w
	.cfi_def_cfa_offset 60
	move.l %a2,-(%sp)
	.cfi_def_cfa_offset 64
	jsr (%a5)
.LVL12:
	.loc 1 55 5 is_stmt 1 view .LVU29
	.loc 1 55 21 is_stmt 0 view .LVU30
	lea (40,%sp),%sp
	.cfi_def_cfa_offset 24
	move.l addr_pal,%d0
	addq.l #2,%d0
	move.l %d0,-(%sp)
	.cfi_def_cfa_offset 28
	move.l %a2,-(%sp)
	.cfi_def_cfa_offset 32
	jsr (%a4)
.LVL13:
	.loc 1 56 5 is_stmt 1 view .LVU31
	.loc 1 56 16 is_stmt 0 view .LVU32
	clr.l -(%sp)
	.cfi_def_cfa_offset 36
	clr.l -(%sp)
	.cfi_def_cfa_offset 40
	move.l %a2,-(%sp)
	.cfi_def_cfa_offset 44
	jsr (%a3)
.LVL14:
	.loc 1 58 5 is_stmt 1 view .LVU33
	.loc 1 58 17 is_stmt 0 view .LVU34
	clr.l -(%sp)
	.cfi_def_cfa_offset 48
	clr.l -(%sp)
	.cfi_def_cfa_offset 52
	pea 1.w
	.cfi_def_cfa_offset 56
	clr.l -(%sp)
	.cfi_def_cfa_offset 60
	move.l %a2,-(%sp)
	.cfi_def_cfa_offset 64
	jsr (%a5)
.LVL15:
	.loc 1 59 5 is_stmt 1 view .LVU35
	.loc 1 59 21 is_stmt 0 view .LVU36
	lea (40,%sp),%sp
	.cfi_def_cfa_offset 24
	move.l addr_pal,%d0
	addq.l #1,%d0
	move.l %d0,-(%sp)
	.cfi_def_cfa_offset 28
	move.l %a2,-(%sp)
	.cfi_def_cfa_offset 32
	jsr (%a4)
.LVL16:
	.loc 1 60 5 is_stmt 1 view .LVU37
	.loc 1 60 16 is_stmt 0 view .LVU38
	clr.l -(%sp)
	.cfi_def_cfa_offset 36
	clr.l -(%sp)
	.cfi_def_cfa_offset 40
	move.l %a2,-(%sp)
	.cfi_def_cfa_offset 44
	jsr (%a3)
.LVL17:
	.loc 1 62 5 is_stmt 1 view .LVU39
	.loc 1 62 17 is_stmt 0 view .LVU40
	clr.l -(%sp)
	.cfi_def_cfa_offset 48
	pea 1.w
	.cfi_def_cfa_offset 52
	clr.l -(%sp)
	.cfi_def_cfa_offset 56
	clr.l -(%sp)
	.cfi_def_cfa_offset 60
	move.l %a2,-(%sp)
	.cfi_def_cfa_offset 64
	jsr (%a5)
.LVL18:
	.loc 1 63 5 is_stmt 1 view .LVU41
	.loc 1 63 21 is_stmt 0 view .LVU42
	lea (36,%sp),%sp
	.cfi_def_cfa_offset 28
	move.l addr_pal,(%sp)
	move.l %a2,-(%sp)
	.cfi_def_cfa_offset 32
	jsr (%a4)
.LVL19:
	.loc 1 64 5 is_stmt 1 view .LVU43
	.loc 1 64 16 is_stmt 0 view .LVU44
	clr.l -(%sp)
	.cfi_def_cfa_offset 36
	clr.l -(%sp)
	.cfi_def_cfa_offset 40
	move.l %a2,-(%sp)
	.cfi_def_cfa_offset 44
	jsr (%a3)
.LVL20:
	.loc 1 65 5 is_stmt 1 view .LVU45
	.loc 1 65 12 is_stmt 0 view .LVU46
	move.l %a2,-(%sp)
	.cfi_def_cfa_offset 48
	jsr _ZN7GDClass4swapEv
.LVL21:
	.loc 1 67 5 is_stmt 1 view .LVU47
.LBB10:
	.loc 1 67 23 view .LVU48
	lea (24,%sp),%sp
	.cfi_def_cfa_offset 24
.LBE10:
	.loc 1 65 12 is_stmt 0 view .LVU49
	lea pal,%a2
	move.l %a2,%d2
	not.l %d2
	lea _ZN7GDClass2wrEmh,%a3
.LVL22:
.L2:
.LBB11:
	.loc 1 69 9 is_stmt 1 discriminator 2 view .LVU50
	.loc 1 69 14 is_stmt 0 discriminator 2 view .LVU51
	moveq #0,%d0
	move.b (%a2)+,%d0
.LVL23:
	.loc 1 69 14 discriminator 2 view .LVU52
	move.l %d0,-(%sp)
	.cfi_def_cfa_offset 28
	move.l %d2,%d0
	add.l %a2,%d0
	add.l addr_pal,%d0
	move.l %d0,-(%sp)
	.cfi_def_cfa_offset 32
	pea GD
	.cfi_def_cfa_offset 36
	jsr (%a3)
.LVL24:
	.loc 1 67 5 is_stmt 1 discriminator 2 view .LVU53
	.loc 1 67 23 discriminator 2 view .LVU54
	lea (12,%sp),%sp
	.cfi_def_cfa_offset 24
	cmp.l #pal+836,%a2
	jne .L2
.LBE11:
	.loc 1 71 1 is_stmt 0 view .LVU55
	movem.l (%sp)+,#15364
.LVL25:
	.loc 1 71 1 view .LVU56
	rts
	.cfi_endproc
.LFE994:
	.size	_Z5setupv, .-_Z5setupv
	.section	.rodata.str1.1
.LC1:
	.string	"\r\nDrawing\r"
	.globl	__floatsidf
	.globl	__muldf3
	.globl	__subdf3
	.globl	__adddf3
	.globl	__ltdf2
.LC2:
	.string	"\r\nx= %d, y=%d, i=%ld"
	.section	.text.startup,"ax",@progbits
	.align	2
	.globl	main
	.type	main, @function
main:
.LFB996:
	.loc 1 87 1 is_stmt 1 view -0
	.cfi_startproc
	lea (-28,%sp),%sp
	.cfi_def_cfa_offset 32
	movem.l #16190,-(%sp)
	.cfi_def_cfa_offset 76
	.cfi_offset 2, -76
	.cfi_offset 3, -72
	.cfi_offset 4, -68
	.cfi_offset 5, -64
	.cfi_offset 6, -60
	.cfi_offset 7, -56
	.cfi_offset 10, -52
	.cfi_offset 11, -48
	.cfi_offset 12, -44
	.cfi_offset 13, -40
	.cfi_offset 14, -36
	.loc 1 89 5 view .LVU58
.LVL26:
	.loc 1 90 5 view .LVU59
	.loc 1 91 5 view .LVU60
	.loc 1 92 5 view .LVU61
	.loc 1 94 5 view .LVU62
	.loc 1 95 5 view .LVU63
	.loc 1 96 5 view .LVU64
	.loc 1 98 5 view .LVU65
	.loc 1 98 10 is_stmt 0 view .LVU66
	jsr _Z5setupv
.LVL27:
	.loc 1 100 5 is_stmt 1 view .LVU67
	.loc 1 100 11 is_stmt 0 view .LVU68
	pea .LC1
	.cfi_def_cfa_offset 80
	jsr puts
.LVL28:
	.loc 1 102 5 is_stmt 1 view .LVU69
	.loc 1 103 5 view .LVU70
	.loc 1 105 5 view .LVU71
	.loc 1 107 5 view .LVU72
	.loc 1 108 5 view .LVU73
	.loc 1 109 5 view .LVU74
.LBB18:
	.loc 1 109 19 view .LVU75
.LBE18:
	.loc 1 100 11 is_stmt 0 view .LVU76
	addq.l #4,%sp
	.cfi_def_cfa_offset 76
	clr.l 68(%sp)
.LBB24:
	.loc 1 109 12 view .LVU77
	clr.l 64(%sp)
	lea __muldf3,%a5
	lea __adddf3,%a6
.LVL29:
.L12:
.LBB19:
	.loc 1 111 9 is_stmt 1 view .LVU78
	.loc 1 111 22 is_stmt 0 view .LVU79
	move.l 64(%sp),-(%sp)
	.cfi_def_cfa_offset 80
	jsr __floatsidf
.LVL30:
	move.l #1275219695,(%sp)
	move.l #1049604279,-(%sp)
	.cfi_def_cfa_offset 84
	move.l %d1,-(%sp)
	.cfi_def_cfa_offset 88
	move.l %d0,-(%sp)
	.cfi_def_cfa_offset 92
	jsr (%a5)
.LVL31:
	.loc 1 111 11 view .LVU80
	lea (12,%sp),%sp
	.cfi_def_cfa_offset 80
	move.l %d1,(%sp)
	move.l %d0,-(%sp)
	.cfi_def_cfa_offset 84
	move.l #-1961253866,-(%sp)
	.cfi_def_cfa_offset 88
	move.l #1064547238,-(%sp)
	.cfi_def_cfa_offset 92
	jsr __subdf3
.LVL32:
	lea (16,%sp),%sp
	.cfi_def_cfa_offset 76
	move.l %d0,%a0
	move.l %d1,%a1
	move.l %a0,52(%sp)
	move.l %a1,56(%sp)
.LVL33:
	.loc 1 112 9 is_stmt 1 view .LVU81
.LBB20:
	.loc 1 112 23 view .LVU82
	.loc 1 112 16 is_stmt 0 view .LVU83
	clr.l 60(%sp)
.LVL34:
.L11:
.LBB21:
	.loc 1 114 13 is_stmt 1 view .LVU84
	.loc 1 115 13 view .LVU85
	.loc 1 116 13 view .LVU86
	.loc 1 117 13 view .LVU87
	.loc 1 118 13 view .LVU88
	.loc 1 118 34 is_stmt 0 view .LVU89
	move.l 60(%sp),-(%sp)
	.cfi_def_cfa_offset 80
	jsr __floatsidf
.LVL35:
	move.l #1297426022,(%sp)
	move.l #1048540432,-(%sp)
	.cfi_def_cfa_offset 84
	move.l %d1,-(%sp)
	.cfi_def_cfa_offset 88
	move.l %d0,-(%sp)
	.cfi_def_cfa_offset 92
	jsr (%a5)
.LVL36:
	.loc 1 118 15 view .LVU90
	lea (12,%sp),%sp
	.cfi_def_cfa_offset 80
	move.l #1023920203,(%sp)
	move.l #1070683547,-(%sp)
	.cfi_def_cfa_offset 84
	move.l %d1,-(%sp)
	.cfi_def_cfa_offset 88
	move.l %d0,-(%sp)
	.cfi_def_cfa_offset 92
	jsr (%a6)
.LVL37:
	lea (16,%sp),%sp
	.cfi_def_cfa_offset 76
	move.l %d0,%a0
	move.l %d1,%a1
	move.l %a0,44(%sp)
	move.l %a1,48(%sp)
.LVL38:
	.loc 1 120 13 is_stmt 1 view .LVU91
	.loc 1 120 37 view .LVU92
	.loc 1 117 20 is_stmt 0 view .LVU93
	clr.l %d6
	clr.l %d7
	.loc 1 116 20 view .LVU94
	sub.l %a2,%a2
	sub.l %a3,%a3
	.loc 1 115 20 view .LVU95
	clr.l %d4
	clr.l %d5
	.loc 1 114 20 view .LVU96
	clr.l %d2
	clr.l %d3
	.loc 1 120 20 view .LVU97
	move.w #1,%a4
.LVL39:
.L7:
	.loc 1 122 17 is_stmt 1 discriminator 3 view .LVU98
	.loc 1 122 23 is_stmt 0 discriminator 3 view .LVU99
	move.l %d3,-(%sp)
	.cfi_def_cfa_offset 80
	move.l %d2,-(%sp)
	.cfi_def_cfa_offset 84
	move.l %d3,-(%sp)
	.cfi_def_cfa_offset 88
	move.l %d2,-(%sp)
	.cfi_def_cfa_offset 92
	jsr (%a6)
.LVL40:
	.loc 1 122 27 discriminator 3 view .LVU100
	lea (12,%sp),%sp
	.cfi_def_cfa_offset 80
	move.l %d5,(%sp)
	move.l %d4,-(%sp)
	.cfi_def_cfa_offset 84
	move.l %d1,-(%sp)
	.cfi_def_cfa_offset 88
	move.l %d0,-(%sp)
	.cfi_def_cfa_offset 92
	jsr (%a5)
.LVL41:
	lea (16,%sp),%sp
	.cfi_def_cfa_offset 76
	.loc 1 122 19 discriminator 3 view .LVU101
	move.l 56(%sp),-(%sp)
	.cfi_def_cfa_offset 80
	move.l 56(%sp),-(%sp)
	.cfi_def_cfa_offset 84
	move.l %d1,-(%sp)
	.cfi_def_cfa_offset 88
	move.l %d0,-(%sp)
	.cfi_def_cfa_offset 92
	jsr (%a6)
.LVL42:
	lea (16,%sp),%sp
	.cfi_def_cfa_offset 76
	move.l %d0,%d4
.LVL43:
	.loc 1 122 19 discriminator 3 view .LVU102
	move.l %d1,%d5
.LVL44:
	.loc 1 123 17 is_stmt 1 discriminator 3 view .LVU103
	.loc 1 123 24 is_stmt 0 discriminator 3 view .LVU104
	move.l %d7,-(%sp)
	.cfi_def_cfa_offset 80
	move.l %d6,-(%sp)
	.cfi_def_cfa_offset 84
	move.l %a3,-(%sp)
	.cfi_def_cfa_offset 88
	move.l %a2,-(%sp)
	.cfi_def_cfa_offset 92
	jsr __subdf3
.LVL45:
	lea (16,%sp),%sp
	.cfi_def_cfa_offset 76
	.loc 1 123 19 discriminator 3 view .LVU105
	move.l 48(%sp),-(%sp)
	.cfi_def_cfa_offset 80
	move.l 48(%sp),-(%sp)
	.cfi_def_cfa_offset 84
	move.l %d1,-(%sp)
	.cfi_def_cfa_offset 88
	move.l %d0,-(%sp)
	.cfi_def_cfa_offset 92
	jsr (%a6)
.LVL46:
	lea (16,%sp),%sp
	.cfi_def_cfa_offset 76
	move.l %d0,%d2
.LVL47:
	.loc 1 123 19 discriminator 3 view .LVU106
	move.l %d1,%d3
.LVL48:
	.loc 1 124 17 is_stmt 1 discriminator 3 view .LVU107
	.loc 1 124 20 is_stmt 0 discriminator 3 view .LVU108
	move.l %d1,-(%sp)
	.cfi_def_cfa_offset 80
	move.l %d2,-(%sp)
	.cfi_def_cfa_offset 84
	move.l %d1,-(%sp)
	.cfi_def_cfa_offset 88
	move.l %d2,-(%sp)
	.cfi_def_cfa_offset 92
	jsr (%a5)
.LVL49:
	lea (16,%sp),%sp
	.cfi_def_cfa_offset 76
	move.l %d0,%a2
.LVL50:
	.loc 1 124 20 discriminator 3 view .LVU109
	move.l %d1,%a3
.LVL51:
	.loc 1 125 17 is_stmt 1 discriminator 3 view .LVU110
	.loc 1 125 20 is_stmt 0 discriminator 3 view .LVU111
	move.l %d5,-(%sp)
	.cfi_def_cfa_offset 80
	move.l %d4,-(%sp)
	.cfi_def_cfa_offset 84
	move.l %d5,-(%sp)
	.cfi_def_cfa_offset 88
	move.l %d4,-(%sp)
	.cfi_def_cfa_offset 92
	jsr (%a5)
.LVL52:
	lea (16,%sp),%sp
	.cfi_def_cfa_offset 76
	move.l %d0,%d6
.LVL53:
	.loc 1 125 20 discriminator 3 view .LVU112
	move.l %d1,%d7
.LVL54:
	.loc 1 120 13 is_stmt 1 discriminator 3 view .LVU113
	addq.l #1,%a4
.LVL55:
	.loc 1 120 37 discriminator 3 view .LVU114
	cmp.w #255,%a4
	jeq .L13
	.loc 1 120 44 is_stmt 0 discriminator 2 view .LVU115
	move.l %d7,-(%sp)
	.cfi_def_cfa_offset 80
	move.l %d6,-(%sp)
	.cfi_def_cfa_offset 84
	move.l %a3,-(%sp)
	.cfi_def_cfa_offset 88
	move.l %a2,-(%sp)
	.cfi_def_cfa_offset 92
	jsr (%a6)
.LVL56:
	.loc 1 120 37 discriminator 2 view .LVU116
	lea (12,%sp),%sp
	.cfi_def_cfa_offset 80
	clr.l (%sp)
	move.l #1074790400,-(%sp)
	.cfi_def_cfa_offset 84
	move.l %d1,-(%sp)
	.cfi_def_cfa_offset 88
	move.l %d0,-(%sp)
	.cfi_def_cfa_offset 92
	jsr __ltdf2
.LVL57:
	lea (16,%sp),%sp
	.cfi_def_cfa_offset 76
	tst.l %d0
	jlt .L7
	.loc 1 126 14 is_stmt 1 view .LVU117
	.loc 1 129 13 view .LVU118
	.loc 1 131 17 view .LVU119
.LVL58:
.LBB22:
.LBI22:
	.loc 1 73 13 view .LVU120
.LBB23:
	.loc 1 75 5 view .LVU121
	.loc 1 76 9 view .LVU122
	.loc 1 76 14 is_stmt 0 view .LVU123
	move.l %a4,-(%sp)
	.cfi_def_cfa_offset 80
	move.l 64(%sp),%a0
	move.l 72(%sp),%d0
	pea (%a0,%d0.l)
	.cfi_def_cfa_offset 84
	pea GD
	.cfi_def_cfa_offset 88
	jsr _ZN7GDClass2wrEmh
.LVL59:
	.loc 1 77 9 is_stmt 1 view .LVU124
	.loc 1 77 15 is_stmt 0 view .LVU125
	move.l %a4,-(%sp)
	.cfi_def_cfa_offset 92
	move.l 80(%sp),-(%sp)
	.cfi_def_cfa_offset 96
	move.l 80(%sp),-(%sp)
	.cfi_def_cfa_offset 100
	pea .LC2
	.cfi_def_cfa_offset 104
	jsr printf
.LVL60:
	lea (28,%sp),%sp
	.cfi_def_cfa_offset 76
.LVL61:
.L13:
	.loc 1 77 15 view .LVU126
.LBE23:
.LBE22:
	.loc 1 132 14 is_stmt 1 discriminator 2 view .LVU127
.LBE21:
	.loc 1 112 9 discriminator 2 view .LVU128
	addq.l #1,60(%sp)
.LVL62:
	.loc 1 112 23 discriminator 2 view .LVU129
	cmp.l #1280,60(%sp)
	jne .L11
.LBE20:
.LBE19:
	.loc 1 109 5 discriminator 2 view .LVU130
	addq.l #1,64(%sp)
.LVL63:
	.loc 1 109 19 discriminator 2 view .LVU131
	add.l #1280,68(%sp)
	cmp.l #720,64(%sp)
	jne .L12
.LBE24:
	.loc 1 135 1 is_stmt 0 view .LVU132
	moveq #0,%d0
	movem.l (%sp)+,#31996
.LVL64:
	.loc 1 135 1 view .LVU133
	lea (28,%sp),%sp
	rts
	.cfi_endproc
.LFE996:
	.size	main, .-main
	.align	2
	.type	_GLOBAL__sub_I_addr_pal, @function
_GLOBAL__sub_I_addr_pal:
.LFB1001:
	.loc 1 135 1 is_stmt 1 view -0
	.cfi_startproc
.LVL65:
.LBB25:
.LBI25:
	.loc 1 135 1 view .LVU135
.LBB26:
.LBI26:
	.file 2 "GD2.h"
	.loc 2 54 7 view .LVU136
	.loc 2 54 7 is_stmt 0 view .LVU137
.LBE26:
.LBE25:
	.loc 1 135 1 view .LVU138
	rts
	.cfi_endproc
.LFE1001:
	.size	_GLOBAL__sub_I_addr_pal, .-_GLOBAL__sub_I_addr_pal
	.globl	pal
	.data
	.type	pal, @object
	.size	pal, 1024
pal:
	.ascii	"x\234%\323qL[U\024\307\361\353\234i\224dM\234X\026#\255b\254"
	.ascii	"\246aeC\254\3110\017V\264J\343\252-\354-e\263S\034dT\363@F*a"
	.ascii	"\332.\004\212\214\244f:\273\205h\315\026-n#\335B\266f\341\217"
	.ascii	"\262\211\0036c\301d\231B\030[F\304d\342\324D\226\350\037_\017"
	.ascii	"\232\227\317\037/\357\336\223\373~\347\\\200\225\225\025\226"
	.ascii	"\227\227Y\\\\dvv\226\231\231\031&''\311\345rd\263Y2\231\f\351"
	.ascii	"t\232T*E2\231$\221H\020\217\307\211F\243D\"\021\f\303\240\271"
	.ascii	"\271\231P(\204\256\353\370|><\036\017\232\246\341r\271p:\235"
	.ascii	"\330\355v\254V+\026\213\005\263\331\214\311dB)%5\220}\310Z\344"
	.ascii	"}\325\035\261 \362\"'2\"%\022\"*\f\021\022\036\341bl\016\222"
	.ascii	"W\240\343<\324\017\301\263I\330\320+u:\304\336_Q\257\317\243"
	.ascii	"vL\243|\343\250\232\263\250\347\244\326\323\375(\333\001TQ'\372"
	.ascii	"\334m\334\243\327p\016~\203\265+\303\372\206AL\356\270\254\351"
	.ascii	"\220\372\365\370$\0379\026\346\237n\261nt\212\202\301\023\334"
	.ascii	"\377^\037\246\335\255\334\367r\220\274|\313\210\204h\027\007"
	.ascii	"\256\337&vq\232\310\327Yvu\177\312\020\327\371dq\202\330\344"
	.ascii	"0\341\341\303\3548\264\237\232\310[\224\005kyT\333,\365#x\177"
	.ascii	"o\345\305\033{\251\236~\203\312\261 \256\323~6\177\341\245\364"
	.ascii	"#7O\305*)i\255\240xw)\033^}\222\207\252\2121\227Yx\300ff\255"
	.ascii	"Y2\\}\026DN\244DT\204\204&J\025K\377d\271r\267\211\323\177\026"
	.ascii	"\222\374\241\200\330\231{\t\177\274\206\272\3665h\333\357\201"
	.ascii	"\277\277\207?\276\202%\t\354\252\016\023\362\307\347=\360\245"
	.ascii	"\213\233\3756\316\031E\364\006\n\331^\261\216\262b\023S3\373"
	.ascii	"\030\031\331J_\237E\372&\311,-\301\245K0<\f\003\003\022\202\244"
	.ascii	"\340\367\303\246MPT\364_S\027\304\2708%\016\213\230h\022\376"
	.ascii	"\325\206g\177\204\243\023\320\"\373k\216\300\303Q~Sa\246T\003"
	.ascii	")\365\022m\252\234\327\324\023\\\225\271\033\225YK\327\325"
	.string	"\321]]\315\316\215\033\331\366\370cpYB?!\372E\213\250\375\277a\363j\236\234\314\3171u\214N\325I\275\364\262BU\240~\371\226\265\227\323\024\f\r\360\340\376\267\311G\363d\215,\251P\212\270/\216\241\031\350N\235*[\025\216B\0077\306a\354\250\304\321\372\027\003\372<\373\236\237\240\351\231348?\343\025{\017s?#\367\004\271\033\320\323s\223\266\266\357hl\274H pVf:\315\210\f\310\347\027\340`\026\272N\336\245\375\370\035\232\223\267h8x\215@w\036oW\016O\373\bn\343$Z\3708[\032\007q\205\022\224\353q\234\201(\016_\004\273'L\211;\204U\013\360\210\313\213\305\251\261\336Q\216\271\304A\"\235#v$C\333\207)\366\274\177\210\340\273\275\370[>\240\366\315\016\266\006\337aK`\017\345\336]\224\276\240SR\351eE\332\245I\356\266\325\354%\250\177\001\216\350^A"
	.zero	187
	.globl	addr_pal
	.align	2
	.type	addr_pal, @object
	.size	addr_pal, 4
addr_pal:
	.long	921600
	.text
.Letext0:
	.file 3 "/opt/m68k-elf/m68k-elf/sys-include/machine/_default_types.h"
	.file 4 "/opt/m68k-elf/lib/gcc/m68k-elf/10.3.1/include/stddef.h"
	.file 5 "/opt/m68k-elf/m68k-elf/sys-include/sys/_stdint.h"
	.file 6 "/opt/m68k-elf/lib/gcc/m68k-elf/10.3.1/include/c++/type_traits"
	.file 7 "/opt/m68k-elf/lib/gcc/m68k-elf/10.3.1/include/c++/debug/debug.h"
	.file 8 "/opt/m68k-elf/lib/gcc/m68k-elf/10.3.1/include/c++/cstdlib"
	.file 9 "/opt/m68k-elf/lib/gcc/m68k-elf/10.3.1/include/c++/m68k-elf/m68000/bits/c++config.h"
	.file 10 "/opt/m68k-elf/lib/gcc/m68k-elf/10.3.1/include/c++/bits/algorithmfwd.h"
	.file 11 "/opt/m68k-elf/lib/gcc/m68k-elf/10.3.1/include/c++/bits/stl_pair.h"
	.file 12 "/opt/m68k-elf/lib/gcc/m68k-elf/10.3.1/include/c++/bits/exception_ptr.h"
	.file 13 "/opt/m68k-elf/lib/gcc/m68k-elf/10.3.1/include/c++/bits/std_abs.h"
	.file 14 "/opt/m68k-elf/lib/gcc/m68k-elf/10.3.1/include/c++/cmath"
	.file 15 "/opt/m68k-elf/lib/gcc/m68k-elf/10.3.1/include/c++/bits/predefined_ops.h"
	.file 16 "/opt/m68k-elf/m68k-elf/sys-include/stdlib.h"
	.file 17 "/opt/m68k-elf/lib/gcc/m68k-elf/10.3.1/include/c++/stdlib.h"
	.file 18 "/opt/m68k-elf/lib/gcc/m68k-elf/10.3.1/include/c++/math.h"
	.file 19 "<built-in>"
	.file 20 "/opt/m68k-elf/m68k-elf/sys-include/stdio.h"