
basic.o:     file format elf32-m68k


Disassembly of section .text:

00000000 <LAB_WARM>:
	...

00000002 <Wrmjpv>:
       2:	0000 0000      	orib #0,%d0

00000006 <Usrjmp>:
	...

00000008 <Usrjpv>:
       8:	0000 0000      	orib #0,%d0

0000000c <V_INPT>:
	...

0000000e <V_INPTv>:
       e:	0000 0000      	orib #0,%d0

00000012 <V_OUTP>:
	...

00000014 <V_OUTPv>:
      14:	0000 0000      	orib #0,%d0

00000018 <V_LOAD>:
	...

0000001a <V_LOADv>:
      1a:	0000 0000      	orib #0,%d0

0000001e <V_SAVE>:
	...

00000020 <V_SAVEv>:
      20:	0000 0000      	orib #0,%d0

00000024 <V_CTLC>:
	...

00000026 <V_CTLCv>:
      26:	0000 0000      	orib #0,%d0

0000002a <Itemp>:
      2a:	0000 0000      	orib #0,%d0

0000002e <Smeml>:
      2e:	0000 0000      	orib #0,%d0

00000032 <Sfncl>:
      32:	0000 0000      	orib #0,%d0

00000036 <Svarl>:
      36:	0000 0000      	orib #0,%d0

0000003a <Sstrl>:
      3a:	0000 0000      	orib #0,%d0

0000003e <Sarryl>:
      3e:	0000 0000      	orib #0,%d0

00000042 <Earryl>:
      42:	0000 0000      	orib #0,%d0

00000046 <Sstorl>:
      46:	0000 0000      	orib #0,%d0

0000004a <Ememl>:
      4a:	0000 0000      	orib #0,%d0

0000004e <Sutill>:
      4e:	0000 0000      	orib #0,%d0

00000052 <Clinel>:
      52:	0000 0000      	orib #0,%d0

00000056 <Blinel>:
      56:	0000 0000      	orib #0,%d0

0000005a <Cpntrl>:
      5a:	0000 0000      	orib #0,%d0

0000005e <Dlinel>:
      5e:	0000 0000      	orib #0,%d0

00000062 <Dptrl>:
      62:	0000 0000      	orib #0,%d0

00000066 <Rdptrl>:
      66:	0000 0000      	orib #0,%d0

0000006a <Varname>:
      6a:	0000 0000      	orib #0,%d0

0000006e <Cvaral>:
      6e:	0000 0000      	orib #0,%d0

00000072 <Lvarpl>:
      72:	0000 0000      	orib #0,%d0

00000076 <des_sk_e>:
	...

0000008e <des_sk>:
	...

00000090 <Ibuffs>:
	...

00000190 <FAC1_m>:
     190:	0000 0000      	orib #0,%d0

00000194 <FAC1_e>:
	...

00000195 <FAC1_s>:
     195:	0000       	orib #0,%d0

00000198 <FAC2_m>:
     198:	0000 0000      	orib #0,%d0

0000019c <FAC2_e>:
	...

0000019d <FAC2_s>:
	...

0000019e <FAC_sc>:
	...

0000019f <flag>:
	...

000001a0 <PRNlword>:
     1a0:	0000 0000      	orib #0,%d0

000001a4 <ut1_pl>:
     1a4:	0000 0000      	orib #0,%d0

000001a8 <Asptl>:
     1a8:	0000 0000      	orib #0,%d0

000001ac <Astrtl>:
	...

000001ad <expcnt>:
	...

000001af <expneg>:
	...

000001b0 <func_l>:
     1b0:	0000 0000      	orib #0,%d0

000001b4 <Defdim>:
	...

000001b5 <Dtypef>:
	...

000001b6 <Binss>:
	...

000001c6 <Decss>:
     1c6:	0000 0000      	orib #0,%d0
	...

000001cc <Usdss>:
	...

000001ce <Hexss>:
	...

000001d6 <BHsend>:
	...

000001d8 <prstk>:
	...

000001d9 <tpower>:
	...

000001da <Asrch>:
	...

000001db <Dimcnt>:
	...

000001dc <Breakf>:
	...

000001dd <Oquote>:
	...

000001de <Gclctd>:
	...

000001df <Sufnxf>:
	...

000001e0 <Imode>:
	...

000001e1 <Cflag>:
	...

000001e2 <TabSiz>:
	...

000001e3 <comp_f>:
	...

000001e4 <Nullct>:
	...

000001e5 <TPos>:
	...

000001e6 <TWidth>:
	...

000001e7 <Iclim>:
	...

000001e8 <ccflag>:
	...

000001e9 <ccbyte>:
	...

000001ea <ccnull>:
	...

000001ec <VECTABLE>:
	...

000005ec <EHBEGIN>:
     5ec:	6046           	bras 634 <code_start>

000005ee <VEC_OUT>:
     5ee:	48e7 4080      	moveml %d1/%a0,%sp@-
     5f2:	4eb9 0000 0000 	jsr 0 <LAB_WARM>
     5f8:	4cdf 0102      	moveml %sp@+,%d1/%a0
     5fc:	4e75           	rts

000005fe <VEC_IN>:
     5fe:	48e7 4080      	moveml %d1/%a0,%sp@-
     602:	4eb9 0000 0000 	jsr 0 <LAB_WARM>
     608:	0c40 0000      	cmpiw #0,%d0
     60c:	6710           	beqs 61e <RXNOTREADY>
     60e:	4eb9 0000 0000 	jsr 0 <LAB_WARM>
     614:	4cdf 0102      	moveml %sp@+,%d1/%a0
     618:	003c 0001      	orib #1,%ccr
     61c:	4e75           	rts

0000061e <RXNOTREADY>:
     61e:	4cdf 0102      	moveml %sp@+,%d1/%a0
     622:	023c 00fe      	andib #-2,%ccr
     626:	4e75           	rts

00000628 <VEC_LD>:
     628:	7e2e           	moveq #46,%d7
     62a:	6000 0124      	braw 750 <LAB_XERR>

0000062e <VEC_SV>:
     62e:	7e2e           	moveq #46,%d7
     630:	6000 011e      	braw 750 <LAB_XERR>

00000634 <code_start>:
     634:	207c 0000 6000 	moveal #24576,%a0
     63a:	203c 0001 0000 	movel #65536,%d0

00000640 <LAB_COLD>:
     640:	267c 0000 0000 	moveal #0,%a3
     646:	d1c0           	addal %d0,%a0
     648:	2748 0000      	movel %a0,%a3@(0)
     64c:	303c 4ef9      	movew #20217,%d0
     650:	207c 0000 0000 	moveal #0,%a0
     656:	30c0           	movew %d0,%a0@+
     658:	43fa ffe6      	lea %pc@(640 <LAB_COLD>),%a1
     65c:	20c9           	movel %a1,%a0@+
     65e:	30c0           	movew %d0,%a0@+
     660:	43fa 00dc      	lea %pc@(73e <LAB_FCER>),%a1
     664:	20c9           	movel %a1,%a0@+
     666:	30c0           	movew %d0,%a0@+
     668:	43fa ff94      	lea %pc@(5fe <VEC_IN>),%a1
     66c:	20c9           	movel %a1,%a0@+
     66e:	30c0           	movew %d0,%a0@+
     670:	43fa ff7c      	lea %pc@(5ee <VEC_OUT>),%a1
     674:	20c9           	movel %a1,%a0@+
     676:	30c0           	movew %d0,%a0@+
     678:	43fa ffae      	lea %pc@(628 <VEC_LD>),%a1
     67c:	20c9           	movel %a1,%a0@+
     67e:	30c0           	movew %d0,%a0@+
     680:	43fa ffac      	lea %pc@(62e <VEC_SV>),%a1
     684:	20c9           	movel %a1,%a0@+
     686:	30c0           	movew %d0,%a0@+
     688:	43fa 264a      	lea %pc@(2cd4 <VEC_CC>),%a1
     68c:	20c9           	movel %a1,%a0@+
     68e:	7000           	moveq #0,%d0
     690:	1740 0000      	moveb %d0,%a3@(0)
     694:	1740 0000      	moveb %d0,%a3@(0)
     698:	1740 0000      	moveb %d0,%a3@(0)
     69c:	3740 0000      	movew %d0,%a3@(0)
     6a0:	3740 0000      	movew %d0,%a3@(0)
     6a4:	177c 0050 0000 	moveb #80,%a3@(0)
     6aa:	177c 000e 0000 	moveb #14,%a3@(0)
     6b0:	177c 0038 0000 	moveb #56,%a3@(0)
     6b6:	49eb 0000      	lea %a3@(0),%a4
     6ba:	41eb 0000      	lea %a3@(0),%a0
     6be:	2748 0000      	movel %a0,%a3@(0)
     6c2:	6100 0322      	bsrw 9e6 <LAB_1463>
     6c6:	6100 089e      	bsrw f66 <LAB_CRLF>
     6ca:	202b 0000      	movel %a3@(0),%d0
     6ce:	90ab 0000      	subl %a3@(0),%d0
     6d2:	6100 1bf4      	bsrw 22c8 <LAB_295E>
     6d6:	41fa 3430      	lea %pc@(3b08 <LAB_SMSG>),%a0
     6da:	6100 08e8      	bsrw fc4 <LAB_18C3>
     6de:	41fa 29fe      	lea %pc@(30de <LAB_RSED>),%a0
     6e2:	6100 1a88      	bsrw 216c <LAB_UFAC>
     6e6:	41fa 0092      	lea %pc@(77a <LAB_1274>),%a0
     6ea:	2748 0000      	movel %a0,%a3@(0)
     6ee:	6100 1ffa      	bsrw 26ea <LAB_RND>
     6f2:	4eeb 0000      	jmp %a3@(0)

000006f6 <LAB_FOER>:
     6f6:	7e2c           	moveq #44,%d7
     6f8:	6056           	bras 750 <LAB_XERR>

000006fa <LAB_ADER>:
     6fa:	7e2a           	moveq #42,%d7
     6fc:	6052           	bras 750 <LAB_XERR>

000006fe <LAB_WDER>:
     6fe:	7e28           	moveq #40,%d7
     700:	604e           	bras 750 <LAB_XERR>

00000702 <LAB_UDER>:
     702:	7e26           	moveq #38,%d7
     704:	604a           	bras 750 <LAB_XERR>

00000706 <LAB_UVER>:
     706:	7e24           	moveq #36,%d7
     708:	6046           	bras 750 <LAB_XERR>

0000070a <LAB_LDER>:
     70a:	7e22           	moveq #34,%d7
     70c:	6042           	bras 750 <LAB_XERR>

0000070e <LAB_UFER>:
     70e:	7e20           	moveq #32,%d7
     710:	603e           	bras 750 <LAB_XERR>

00000712 <LAB_CCER>:
     712:	7e1e           	moveq #30,%d7
     714:	603a           	bras 750 <LAB_XERR>

00000716 <LAB_SCER>:
     716:	7e1c           	moveq #28,%d7
     718:	6036           	bras 750 <LAB_XERR>

0000071a <LAB_SLER>:
     71a:	7e1a           	moveq #26,%d7
     71c:	6032           	bras 750 <LAB_XERR>

0000071e <LAB_TMER>:
     71e:	7e18           	moveq #24,%d7
     720:	602e           	bras 750 <LAB_XERR>

00000722 <LAB_IDER>:
     722:	7e16           	moveq #22,%d7
     724:	602a           	bras 750 <LAB_XERR>

00000726 <LAB_DZER>:
     726:	7e14           	moveq #20,%d7
     728:	6026           	bras 750 <LAB_XERR>

0000072a <LAB_DDER>:
     72a:	7e12           	moveq #18,%d7
     72c:	6022           	bras 750 <LAB_XERR>

0000072e <LAB_ABER>:
     72e:	7e10           	moveq #16,%d7
     730:	601e           	bras 750 <LAB_XERR>

00000732 <LAB_USER>:
     732:	7e0e           	moveq #14,%d7
     734:	601a           	bras 750 <LAB_XERR>

00000736 <LAB_OMER>:
     736:	7e0c           	moveq #12,%d7
     738:	6016           	bras 750 <LAB_XERR>

0000073a <LAB_OFER>:
     73a:	7e0a           	moveq #10,%d7
     73c:	6012           	bras 750 <LAB_XERR>

0000073e <LAB_FCER>:
     73e:	7e08           	moveq #8,%d7
     740:	600e           	bras 750 <LAB_XERR>

00000742 <LAB_ODER>:
     742:	7e06           	moveq #6,%d7
     744:	600a           	bras 750 <LAB_XERR>

00000746 <LAB_RGER>:
     746:	7e04           	moveq #4,%d7
     748:	6006           	bras 750 <LAB_XERR>

0000074a <LAB_SNER>:
     74a:	7e02           	moveq #2,%d7
     74c:	6002           	bras 750 <LAB_XERR>

0000074e <LAB_NFER>:
     74e:	7e00           	moveq #0,%d7

00000750 <LAB_XERR>:
     750:	6100 02ca      	bsrw a1c <LAB_1491>
     754:	6100 0810      	bsrw f66 <LAB_CRLF>
     758:	43fa 3010      	lea %pc@(376a <LAB_BAER>),%a1
     75c:	3e31 7000      	movew %a1@(0000000000000000,%d7:w),%d7
     760:	41f1 7000      	lea %a1@(0000000000000000,%d7:w),%a0
     764:	6100 085e      	bsrw fc4 <LAB_18C3>
     768:	41fa 3361      	lea %pc@(3acb <LAB_EMSG>),%a0

0000076c <LAB_1269>:
     76c:	6100 0856      	bsrw fc4 <LAB_18C3>
     770:	202b 0000      	movel %a3@(0),%d0
     774:	6b04           	bmis 77a <LAB_1274>
     776:	6100 1b44      	bsrw 22bc <LAB_2953>

0000077a <LAB_1274>:
     77a:	41fa 3382      	lea %pc@(3afe <LAB_RMSG>),%a0
     77e:	6100 0844      	bsrw fc4 <LAB_18C3>

00000782 <LAB_127D>:
     782:	72ff           	moveq #-1,%d1
     784:	2741 0000      	movel %d1,%a3@(0)
     788:	1741 0000      	moveb %d1,%a3@(0)
     78c:	4beb 0000      	lea %a3@(0),%a5

00000790 <LAB_127E>:
     790:	6100 00ec      	bsrw 87e <LAB_1357>
     794:	6100 0bfe      	bsrw 1394 <LAB_GBYT>
     798:	67f6           	beqs 790 <LAB_127E>
     79a:	6508           	bcss 7a4 <LAB_1295>
     79c:	6100 0156      	bsrw 8f4 <LAB_13A6>
     7a0:	6000 03be      	braw b60 <LAB_15F6>

000007a4 <LAB_1295>:
     7a4:	6100 063c      	bsrw de2 <LAB_GFPN>
     7a8:	6100 014a      	bsrw 8f4 <LAB_13A6>
     7ac:	222b 0000      	movel %a3@(0),%d1
     7b0:	6100 0218      	bsrw 9ca <LAB_SSLN>
     7b4:	6532           	bcss 7e8 <LAB_12E6>
     7b6:	2250           	moveal %a0@,%a1
     7b8:	202b 0000      	movel %a3@(0),%d0
     7bc:	9089           	subl %a1,%d0
     7be:	e288           	lsrl #1,%d0
     7c0:	5380           	subql #1,%d0
     7c2:	4840           	swap %d0
     7c4:	2448           	moveal %a0,%a2

000007c6 <LAB_12AE>:
     7c6:	4840           	swap %d0

000007c8 <LAB_12B0>:
     7c8:	34d9           	movew %a1@+,%a2@+
     7ca:	51c8 fffc      	dbf %d0,7c8 <LAB_12B0>
     7ce:	4840           	swap %d0
     7d0:	51c8 fff4      	dbf %d0,7c6 <LAB_12AE>
     7d4:	274a 0000      	movel %a2,%a3@(0)
     7d8:	274a 0000      	movel %a2,%a3@(0)
     7dc:	274a 0000      	movel %a2,%a3@(0)
     7e0:	274a 0000      	movel %a2,%a3@(0)
     7e4:	274a 0000      	movel %a2,%a3@(0)

000007e8 <LAB_12E6>:
     7e8:	102b 0000      	moveb %a3@(0),%d0
     7ec:	6764           	beqs 852 <LAB_1325>
     7ee:	226b 0000      	moveal %a3@(0),%a1
     7f2:	45f1 2808      	lea %a1@(0000000000000008,%d2:l),%a2
     7f6:	274a 0000      	movel %a2,%a3@(0)
     7fa:	274a 0000      	movel %a2,%a3@(0)
     7fe:	274a 0000      	movel %a2,%a3@(0)
     802:	274a 0000      	movel %a2,%a3@(0)
     806:	274a 0000      	movel %a2,%a3@(0)
     80a:	276b 0000 0000 	movel %a3@(0),%a3@(0)
     810:	2209           	movel %a1,%d1
     812:	9288           	subl %a0,%d1
     814:	e289           	lsrl #1,%d1
     816:	5381           	subql #1,%d1
     818:	4841           	swap %d1

0000081a <LAB_12FF>:
     81a:	4841           	swap %d1

0000081c <LAB_1301>:
     81c:	3521           	movew %a1@-,%a2@-
     81e:	51c9 fffc      	dbf %d1,81c <LAB_1301>
     822:	4841           	swap %d1
     824:	51c9 fff4      	dbf %d1,81a <LAB_12FF>
     828:	43eb 0000      	lea %a3@(0),%a1
     82c:	2448           	moveal %a0,%a2
     82e:	72ff           	moveq #-1,%d1
     830:	24c1           	movel %d1,%a2@+
     832:	24eb 0000      	movel %a3@(0),%a2@+
     836:	e24a           	lsrw #1,%d2
     838:	5342           	subqw #1,%d2

0000083a <LAB_1303>:
     83a:	34d9           	movew %a1@+,%a2@+
     83c:	51ca fffc      	dbf %d2,83a <LAB_1303>
     840:	6010           	bras 852 <LAB_1325>

00000842 <LAB_132E>:
     842:	5048           	addqw #8,%a0

00000844 <LAB_1330>:
     844:	4a18           	tstb %a0@+
     846:	66fc           	bnes 844 <LAB_1330>
     848:	3208           	movew %a0,%d1
     84a:	0241 0001      	andiw #1,%d1
     84e:	d0c1           	addaw %d1,%a0
     850:	2288           	movel %a0,%a1@

00000852 <LAB_1325>:
     852:	2248           	moveal %a0,%a1
     854:	4a90           	tstl %a0@
     856:	66ea           	bnes 842 <LAB_132E>
     858:	6100 0198      	bsrw 9f2 <LAB_1477>
     85c:	6000 ff24      	braw 782 <LAB_127D>

00000860 <LAB_134B>:
     860:	6100 077c      	bsrw fde <LAB_PRNA>
     864:	7020           	moveq #32,%d0
     866:	6100 0776      	bsrw fde <LAB_PRNA>
     86a:	7008           	moveq #8,%d0
     86c:	6100 0770      	bsrw fde <LAB_PRNA>
     870:	5341           	subqw #1,%d1
     872:	6010           	bras 884 <LAB_1359>

00000874 <LAB_INLN>:
     874:	6100 0766      	bsrw fdc <LAB_18E3>
     878:	7020           	moveq #32,%d0
     87a:	6100 0762      	bsrw fde <LAB_PRNA>

0000087e <LAB_1357>:
     87e:	7200           	moveq #0,%d1
     880:	41eb 0000      	lea %a3@(0),%a0

00000884 <LAB_1359>:
     884:	4eab 0000      	jsr %a3@(0)
     888:	64fa           	bccs 884 <LAB_1359>
     88a:	67f8           	beqs 884 <LAB_1359>
     88c:	0c00 0007      	cmpib #7,%d0
     890:	6718           	beqs 8aa <LAB_1378>
     892:	0c00 000d      	cmpib #13,%d0
     896:	6700 06c8      	beqw f60 <LAB_1866>
     89a:	4a41           	tstw %d1
     89c:	6606           	bnes 8a4 <LAB_1374>
     89e:	0c00 0020      	cmpib #32,%d0
     8a2:	63e0           	blss 884 <LAB_1359>

000008a4 <LAB_1374>:
     8a4:	0c00 0008      	cmpib #8,%d0
     8a8:	67b6           	beqs 860 <LAB_134B>

000008aa <LAB_1378>:
     8aa:	0c41 00ff      	cmpiw #255,%d1
     8ae:	640c           	bccs 8bc <LAB_138E>
     8b0:	1180 1000      	moveb %d0,%a0@(0000000000000000,%d1:w)
     8b4:	5241           	addqw #1,%d1

000008b6 <LAB_137F>:
     8b6:	6100 0726      	bsrw fde <LAB_PRNA>
     8ba:	60c8           	bras 884 <LAB_1359>

000008bc <LAB_138E>:
     8bc:	7007           	moveq #7,%d0
     8be:	60f6           	bras 8b6 <LAB_137F>

000008c0 <LAB_1392>:
     8c0:	1180 2000      	moveb %d0,%a0@(0000000000000000,%d2:w)
     8c4:	5242           	addqw #1,%d2
     8c6:	5241           	addqw #1,%d1
     8c8:	1035 1000      	moveb %a5@(0000000000000000,%d1:w),%d0
     8cc:	6700 0094      	beqw 962 <LAB_13EC>
     8d0:	0c00 0020      	cmpib #32,%d0
     8d4:	67ea           	beqs 8c0 <LAB_1392>
     8d6:	0c00 0030      	cmpib #48,%d0
     8da:	654a           	bcss 926 <LAB_13C6>
     8dc:	0c00 0039      	cmpib #57,%d0
     8e0:	63de           	blss 8c0 <LAB_1392>
     8e2:	7adf           	moveq #-33,%d5
     8e4:	ca00           	andb %d0,%d5
     8e6:	0c05 0041      	cmpib #65,%d5
     8ea:	6540           	bcss 92c <LAB_13CC>
     8ec:	0c05 0046      	cmpib #70,%d5
     8f0:	63ce           	blss 8c0 <LAB_1392>
     8f2:	6038           	bras 92c <LAB_13CC>

000008f4 <LAB_13A6>:
     8f4:	7200           	moveq #0,%d1
     8f6:	2401           	movel %d1,%d2
     8f8:	1741 0000      	moveb %d1,%a3@(0)

000008fc <LAB_13AC>:
     8fc:	7000           	moveq #0,%d0
     8fe:	1035 1000      	moveb %a5@(0000000000000000,%d1:w),%d0
     902:	675e           	beqs 962 <LAB_13EC>
     904:	0c00 005f      	cmpib #95,%d0
     908:	6458           	bccs 962 <LAB_13EC>
     90a:	0c00 003c      	cmpib #60,%d0
     90e:	641c           	bccs 92c <LAB_13CC>
     910:	0c00 0030      	cmpib #48,%d0
     914:	644c           	bccs 962 <LAB_13EC>
     916:	1740 0000      	moveb %d0,%a3@(0)
     91a:	0c00 0022      	cmpib #34,%d0
     91e:	6776           	beqs 996 <LAB_1410>
     920:	0c00 0024      	cmpib #36,%d0
     924:	679a           	beqs 8c0 <LAB_1392>

00000926 <LAB_13C6>:
     926:	0c00 002a      	cmpib #42,%d0
     92a:	6536           	bcss 962 <LAB_13EC>

0000092c <LAB_13CC>:
     92c:	082b 0006 0000 	btst #6,%a3@(0)
     932:	662e           	bnes 962 <LAB_13EC>
     934:	0400 002a      	subib #42,%d0
     938:	d040           	addw %d0,%d0
     93a:	43fa 2c30      	lea %pc@(356c <LAB_2A9B>),%a1
     93e:	3031 0000      	movew %a1@(0000000000000000,%d0:w),%d0
     942:	6b6e           	bmis 9b2 <LAB_141F>
     944:	43fa 2fd2      	lea %pc@(3918 <KEY_MULT>),%a1
     948:	d2c0           	addaw %d0,%a1
     94a:	76ff           	moveq #-1,%d3
     94c:	3801           	movew %d1,%d4

0000094e <LAB_13D6>:
     94e:	5243           	addqw #1,%d3
     950:	1031 3000      	moveb %a1@(0000000000000000,%d3:w),%d0

00000954 <LAB_13D8>:
     954:	6b0a           	bmis 960 <LAB_13EA>
     956:	5244           	addqw #1,%d4
     958:	b035 4000      	cmpb %a5@(0000000000000000,%d4:w),%d0
     95c:	67f0           	beqs 94e <LAB_13D6>
     95e:	6040           	bras 9a0 <LAB_1417>

00000960 <LAB_13EA>:
     960:	3204           	movew %d4,%d1

00000962 <LAB_13EC>:
     962:	1180 2000      	moveb %d0,%a0@(0000000000000000,%d2:w)
     966:	5242           	addqw #1,%d2
     968:	5241           	addqw #1,%d1
     96a:	4a00           	tstb %d0
     96c:	674a           	beqs 9b8 <LAB_142A>
     96e:	0400 003a      	subib #58,%d0
     972:	6706           	beqs 97a <LAB_13FF>
     974:	0c00 ff49      	cmpib #73,%d0
     978:	6604           	bnes 97e <LAB_1401>

0000097a <LAB_13FF>:
     97a:	1740 0000      	moveb %d0,%a3@(0)

0000097e <LAB_1401>:
     97e:	0400 ff55      	subib #85,%d0
     982:	6600 ff78      	bnew 8fc <LAB_13AC>
     986:	1740 0000      	moveb %d0,%a3@(0)

0000098a <LAB_1408>:
     98a:	1035 1000      	moveb %a5@(0000000000000000,%d1:w),%d0
     98e:	67d2           	beqs 962 <LAB_13EC>
     990:	b02b 0000      	cmpb %a3@(0),%d0
     994:	67cc           	beqs 962 <LAB_13EC>

00000996 <LAB_1410>:
     996:	1180 2000      	moveb %d0,%a0@(0000000000000000,%d2:w)
     99a:	5242           	addqw #1,%d2
     99c:	5241           	addqw #1,%d1
     99e:	60ea           	bras 98a <LAB_1408>

000009a0 <LAB_1417>:
     9a0:	3801           	movew %d1,%d4

000009a2 <LAB_141B>:
     9a2:	5243           	addqw #1,%d3
     9a4:	1031 3000      	moveb %a1@(0000000000000000,%d3:w),%d0
     9a8:	6af8           	bpls 9a2 <LAB_141B>
     9aa:	5243           	addqw #1,%d3
     9ac:	1031 3000      	moveb %a1@(0000000000000000,%d3:w),%d0
     9b0:	66a2           	bnes 954 <LAB_13D8>

000009b2 <LAB_141F>:
     9b2:	1035 1000      	moveb %a5@(0000000000000000,%d1:w),%d0
     9b6:	60aa           	bras 962 <LAB_13EC>

000009b8 <LAB_142A>:
     9b8:	7000           	moveq #0,%d0
     9ba:	0102           	btst %d0,%d2
     9bc:	6706           	beqs 9c4 <LAB_142C>
     9be:	1180 2000      	moveb %d0,%a0@(0000000000000000,%d2:w)
     9c2:	5242           	addqw #1,%d2

000009c4 <LAB_142C>:
     9c4:	2180 2000      	movel %d0,%a0@(0000000000000000,%d2:w)
     9c8:	4e75           	rts

000009ca <LAB_SSLN>:
     9ca:	206b 0000      	moveal %a3@(0),%a0
     9ce:	6002           	bras 9d2 <LAB_SCLN>

000009d0 <LAB_145F>:
     9d0:	2040           	moveal %d0,%a0

000009d2 <LAB_SCLN>:
     9d2:	2018           	movel %a0@+,%d0
     9d4:	6708           	beqs 9de <LAB_145E>
     9d6:	b290           	cmpl %a0@,%d1
     9d8:	6ef6           	bgts 9d0 <LAB_145F>
     9da:	5948           	subqw #4,%a0
     9dc:	4e75           	rts

000009de <LAB_145E>:
     9de:	5948           	subqw #4,%a0
     9e0:	5380           	subql #1,%d0
     9e2:	4e75           	rts

000009e4 <LAB_NEW>:
     9e4:	6644           	bnes a2a <RTS_005>

000009e6 <LAB_1463>:
     9e6:	206b 0000      	moveal %a3@(0),%a0
     9ea:	7000           	moveq #0,%d0
     9ec:	20c0           	movel %d0,%a0@+
     9ee:	2748 0000      	movel %a0,%a3@(0)

000009f2 <LAB_1477>:
     9f2:	2a6b 0000      	moveal %a3@(0),%a5
     9f6:	534d           	subqw #1,%a5

000009f8 <LAB_147A>:
     9f8:	276b 0000 0000 	movel %a3@(0),%a3@(0)
     9fe:	202b 0000      	movel %a3@(0),%d0
     a02:	2740 0000      	movel %d0,%a3@(0)
     a06:	2740 0000      	movel %d0,%a3@(0)
     a0a:	2740 0000      	movel %d0,%a3@(0)
     a0e:	2740 0000      	movel %d0,%a3@(0)

00000a12 <LAB_1480>:
     a12:	7000           	moveq #0,%d0
     a14:	1740 0000      	moveb %d0,%a3@(0)
     a18:	6100 01c8      	bsrw be2 <LAB_RESTORE>

00000a1c <LAB_1491>:
     a1c:	49eb 0000      	lea %a3@(0),%a4
     a20:	7000           	moveq #0,%d0
     a22:	2740 0000      	movel %d0,%a3@(0)
     a26:	1740 0000      	moveb %d0,%a3@(0)

00000a2a <RTS_005>:
     a2a:	4e75           	rts

00000a2c <LAB_CLEAR>:
     a2c:	67ca           	beqs 9f8 <LAB_147A>
     a2e:	4e75           	rts

00000a30 <LAB_LIST>:
     a30:	6512           	bcss a44 <LAB_14BD>
     a32:	72ff           	moveq #-1,%d1
     a34:	2741 0000      	movel %d1,%a3@(0)
     a38:	7200           	moveq #0,%d1
     a3a:	4a00           	tstb %d0
     a3c:	670a           	beqs a48 <LAB_14C0>
     a3e:	0c00 00b3      	cmpib #-77,%d0
     a42:	66e6           	bnes a2a <RTS_005>

00000a44 <LAB_14BD>:
     a44:	6100 039c      	bsrw de2 <LAB_GFPN>

00000a48 <LAB_14C0>:
     a48:	6180           	bsrs 9ca <LAB_SSLN>
     a4a:	6100 0948      	bsrw 1394 <LAB_GBYT>
     a4e:	6716           	beqs a66 <LAB_14D4>
     a50:	0c00 00b3      	cmpib #-77,%d0
     a54:	66d4           	bnes a2a <RTS_005>
     a56:	72ff           	moveq #-1,%d1
     a58:	2741 0000      	movel %d1,%a3@(0)
     a5c:	6100 0934      	bsrw 1392 <LAB_IGBY>
     a60:	6704           	beqs a66 <LAB_14D4>
     a62:	6100 037e      	bsrw de2 <LAB_GFPN>

00000a66 <LAB_14D4>:
     a66:	177c 0000 0000 	moveb #0,%a3@(0)
     a6c:	6100 04f8      	bsrw f66 <LAB_CRLF>
     a70:	2018           	movel %a0@+,%d0
     a72:	67b6           	beqs a2a <RTS_005>
     a74:	2240           	moveal %d0,%a1
     a76:	6100 0130      	bsrw ba8 <LAB_1629>
     a7a:	2018           	movel %a0@+,%d0
     a7c:	b0ab 0000      	cmpl %a3@(0),%d0
     a80:	62a8           	bhis a2a <RTS_005>

00000a82 <LAB_14E2>:
     a82:	48e7 00c0      	moveml %a0-%a1,%sp@-
     a86:	6100 1840      	bsrw 22c8 <LAB_295E>
     a8a:	4cdf 0300      	moveml %sp@+,%a0-%a1
     a8e:	7020           	moveq #32,%d0

00000a90 <LAB_150C>:
     a90:	6100 054c      	bsrw fde <LAB_PRNA>
     a94:	0c00 0022      	cmpib #34,%d0
     a98:	6606           	bnes aa0 <LAB_1519>
     a9a:	0a2b 00ff 0000 	eorib #-1,%a3@(0)

00000aa0 <LAB_1519>:
     aa0:	1018           	moveb %a0@+,%d0
     aa2:	6608           	bnes aac <LAB_152E>
     aa4:	2049           	moveal %a1,%a0
     aa6:	2008           	movel %a0,%d0
     aa8:	66bc           	bnes a66 <LAB_14D4>
     aaa:	4e75           	rts

00000aac <LAB_152E>:
     aac:	6ae2           	bpls a90 <LAB_150C>
     aae:	4a2b 0000      	tstb %a3@(0)
     ab2:	6bdc           	bmis a90 <LAB_150C>
     ab4:	45fa 2b20      	lea %pc@(35d6 <LAB_KEYT>),%a2
     ab8:	727f           	moveq #127,%d1
     aba:	c200           	andb %d0,%d1
     abc:	e549           	lslw #2,%d1
     abe:	45f2 1000      	lea %a2@(0000000000000000,%d1:w),%a2
     ac2:	101a           	moveb %a2@+,%d0
     ac4:	6100 0518      	bsrw fde <LAB_PRNA>
     ac8:	7200           	moveq #0,%d1
     aca:	121a           	moveb %a2@+,%d1
     acc:	6bd2           	bmis aa0 <LAB_1519>
     ace:	3012           	movew %a2@,%d0
     ad0:	45fa 2e46      	lea %pc@(3918 <KEY_MULT>),%a2
     ad4:	45f2 0000      	lea %a2@(0000000000000000,%d0:w),%a2

00000ad8 <LAB_1540>:
     ad8:	101a           	moveb %a2@+,%d0
     ada:	6100 0502      	bsrw fde <LAB_PRNA>
     ade:	51c9 fff8      	dbf %d1,ad8 <LAB_1540>
     ae2:	60bc           	bras aa0 <LAB_1519>

00000ae4 <LAB_FOR>:
     ae4:	6100 039c      	bsrw e82 <LAB_LET>
     ae8:	202b 0000      	movel %a3@(0),%d0
     aec:	b0ab 0000      	cmpl %a3@(0),%d0
     af0:	6c00 fc2c      	bgew 71e <LAB_TMER>
     af4:	6100 0218      	bsrw d0e <LAB_SNBS>
     af8:	2e88           	movel %a0,%sp@
     afa:	2f2b 0000      	movel %a3@(0),%sp@-
     afe:	203c ffff ffaa 	movel #-86,%d0
     b04:	6100 0884      	bsrw 138a <LAB_SCCA>
     b08:	6100 070e      	bsrw 1218 <LAB_CTNM>
     b0c:	1f2b 0000      	moveb %a3@(0),%sp@-
     b10:	6100 0704      	bsrw 1216 <LAB_EVNM>
     b14:	2f2b 0000      	movel %a3@(0),%sp@-
     b18:	3f2b 0000      	movew %a3@(0),%sp@-
     b1c:	277c 8000 0000 	movel #-2147483648,%a3@(0)
     b22:	0000 
     b24:	377c 8100 0000 	movew #-32512,%a3@(0)
     b2a:	6100 0868      	bsrw 1394 <LAB_GBYT>
     b2e:	0c00 00af      	cmpib #-81,%d0
     b32:	6608           	bnes b3c <LAB_15B3>
     b34:	6100 085c      	bsrw 1392 <LAB_IGBY>
     b38:	6100 06dc      	bsrw 1216 <LAB_EVNM>

00000b3c <LAB_15B3>:
     b3c:	2f2b 0000      	movel %a3@(0),%sp@-
     b40:	3f2b 0000      	movew %a3@(0),%sp@-
     b44:	2f2b 0000      	movel %a3@(0),%sp@-
     b48:	3f3c 0081      	movew #129,%sp@-
     b4c:	6018           	bras b66 <LAB_15C2>

00000b4e <LAB_15DC>:
     b4e:	300d           	movew %a5,%d0
     b50:	0240 0001      	andiw #1,%d0
     b54:	dac0           	addaw %d0,%a5
     b56:	201d           	movel %a5@+,%d0
     b58:	6700 fc20      	beqw 77a <LAB_1274>
     b5c:	275d 0000      	movel %a5@+,%a3@(0)

00000b60 <LAB_15F6>:
     b60:	6100 0832      	bsrw 1394 <LAB_GBYT>
     b64:	611a           	bsrs b80 <LAB_15FF>

00000b66 <LAB_15C2>:
     b66:	6140           	bsrs ba8 <LAB_1629>
     b68:	4a2b 0000      	tstb %a3@(0)
     b6c:	6b04           	bmis b72 <LAB_15D1>
     b6e:	274d 0000      	movel %a5,%a3@(0)

00000b72 <LAB_15D1>:
     b72:	101d           	moveb %a5@+,%d0
     b74:	67d8           	beqs b4e <LAB_15DC>
     b76:	0c00 003a      	cmpib #58,%d0
     b7a:	67e4           	beqs b60 <LAB_15F6>
     b7c:	6000 fbcc      	braw 74a <LAB_SNER>

00000b80 <LAB_15FF>:
     b80:	6700 008c      	beqw c0e <RTS_006>

00000b84 <LAB_1602>:
     b84:	0a00 0080      	eorib #-128,%d0
     b88:	6b00 02f8      	bmiw e82 <LAB_LET>
     b8c:	0c00 ff28      	cmpib #40,%d0
     b90:	6400 fbb8      	bccw 74a <LAB_SNER>
     b94:	4880           	extw %d0
     b96:	d040           	addw %d0,%d0
     b98:	41fa 289a      	lea %pc@(3434 <LAB_CTBL>),%a0
     b9c:	3030 0000      	movew %a0@(0000000000000000,%d0:w),%d0
     ba0:	4870 0000      	pea %a0@(0000000000000000,%d0:w)
     ba4:	6000 07ec      	braw 1392 <LAB_IGBY>

00000ba8 <LAB_1629>:
     ba8:	4eeb 0000      	jmp %a3@(0)

00000bac <LAB_1636>:
     bac:	0c00 0003      	cmpib #3,%d0
     bb0:	670c           	beqs bbe <LAB_163B>

00000bb2 <LAB_1639>:
     bb2:	4e75           	rts

00000bb4 <LAB_END>:
     bb4:	66fc           	bnes bb2 <LAB_1639>
     bb6:	177c 0000 0000 	moveb #0,%a3@(0)

00000bbc <LAB_STOP>:
     bbc:	66f4           	bnes bb2 <LAB_1639>

00000bbe <LAB_163B>:
     bbe:	43eb 0000      	lea %a3@(0),%a1
     bc2:	bbc9           	cmpal %a1,%a5
     bc4:	650a           	bcss bd0 <LAB_164F>
     bc6:	274d 0000      	movel %a5,%a3@(0)

00000bca <LAB_1647>:
     bca:	276b 0000 0000 	movel %a3@(0),%a3@(0)

00000bd0 <LAB_164F>:
     bd0:	584f           	addqw #4,%sp
     bd2:	102b 0000      	moveb %a3@(0),%d0
     bd6:	6700 fba2      	beqw 77a <LAB_1274>
     bda:	41fa 2ee7      	lea %pc@(3ac3 <LAB_BMSG>),%a0
     bde:	6000 fb8c      	braw 76c <LAB_1269>

00000be2 <LAB_RESTORE>:
     be2:	206b 0000      	moveal %a3@(0),%a0
     be6:	6720           	beqs c08 <LAB_1624>
     be8:	6100 01f8      	bsrw de2 <LAB_GFPN>
     bec:	b2ab 0000      	cmpl %a3@(0),%d1
     bf0:	630e           	blss c00 <LAB_GSCH>
     bf2:	204d           	moveal %a5,%a0

00000bf4 <LAB_RESs>:
     bf4:	4a18           	tstb %a0@+
     bf6:	66fc           	bnes bf4 <LAB_RESs>
     bf8:	3008           	movew %a0,%d0
     bfa:	0240 0001      	andiw #1,%d0
     bfe:	d0c0           	addaw %d0,%a0

00000c00 <LAB_GSCH>:
     c00:	6100 fdd0      	bsrw 9d2 <LAB_SCLN>
     c04:	6500 fb2c      	bcsw 732 <LAB_USER>

00000c08 <LAB_1624>:
     c08:	4a20           	tstb %a0@-
     c0a:	2748 0000      	movel %a0,%a3@(0)

00000c0e <RTS_006>:
     c0e:	4e75           	rts

00000c10 <LAB_NULL>:
     c10:	6100 10fc      	bsrw 1d0e <LAB_GTBY>
     c14:	1740 0000      	moveb %d0,%a3@(0)
     c18:	4e75           	rts

00000c1a <LAB_CONT>:
     c1a:	6600 fb2e      	bnew 74a <LAB_SNER>
     c1e:	4a2b 0000      	tstb %a3@(0)
     c22:	6a00 faee      	bplw 712 <LAB_CCER>
     c26:	202b 0000      	movel %a3@(0),%d0
     c2a:	6700 fae6      	beqw 712 <LAB_CCER>
     c2e:	2a40           	moveal %d0,%a5
     c30:	276b 0000 0000 	movel %a3@(0),%a3@(0)
     c36:	4e75           	rts

00000c38 <LAB_RUN>:
     c38:	660c           	bnes c46 <LAB_RUNn>
     c3a:	6100 fdb6      	bsrw 9f2 <LAB_1477>
     c3e:	274d 0000      	movel %a5,%a3@(0)
     c42:	6000 ff22      	braw b66 <LAB_15C2>

00000c46 <LAB_RUNn>:
     c46:	6100 fdb0      	bsrw 9f8 <LAB_147A>
     c4a:	601c           	bras c68 <LAB_16B0>

00000c4c <LAB_DO>:
     c4c:	2f0d           	movel %a5,%sp@-
     c4e:	2f2b 0000      	movel %a3@(0),%sp@-
     c52:	3f3c 009c      	movew #156,%sp@-
     c56:	487a ff0e      	pea %pc@(b66 <LAB_15C2>)
     c5a:	6000 0738      	braw 1394 <LAB_GBYT>

00000c5e <LAB_GOSUB>:
     c5e:	2f0d           	movel %a5,%sp@-
     c60:	2f2b 0000      	movel %a3@(0),%sp@-
     c64:	3f3c 008d      	movew #141,%sp@-

00000c68 <LAB_16B0>:
     c68:	6100 072a      	bsrw 1394 <LAB_GBYT>
     c6c:	487a fef8      	pea %pc@(b66 <LAB_15C2>)

00000c70 <LAB_GOTO>:
     c70:	6100 0170      	bsrw de2 <LAB_GFPN>
     c74:	206b 0000      	moveal %a3@(0),%a0
     c78:	b2ab 0000      	cmpl %a3@(0),%d1
     c7c:	630e           	blss c8c <LAB_16D0>
     c7e:	204d           	moveal %a5,%a0

00000c80 <LAB_GOTs>:
     c80:	4a18           	tstb %a0@+
     c82:	66fc           	bnes c80 <LAB_GOTs>
     c84:	3008           	movew %a0,%d0
     c86:	0240 0001      	andiw #1,%d0
     c8a:	d0c0           	addaw %d0,%a0

00000c8c <LAB_16D0>:
     c8c:	6100 fd44      	bsrw 9d2 <LAB_SCLN>
     c90:	6500 faa0      	bcsw 732 <LAB_USER>
     c94:	2a48           	moveal %a0,%a5
     c96:	534d           	subqw #1,%a5
     c98:	274d 0000      	movel %a5,%a3@(0)
     c9c:	4e75           	rts

00000c9e <LAB_LOOP>:
     c9e:	0c6f 009c 0004 	cmpiw #156,%sp@(4)
     ca4:	6600 fa64      	bnew 70a <LAB_LDER>
     ca8:	1e00           	moveb %d0,%d7
     caa:	672e           	beqs cda <LoopAlways>
     cac:	0c07 003a      	cmpib #58,%d7
     cb0:	6728           	beqs cda <LoopAlways>
     cb2:	0407 00b0      	subib #-80,%d7
     cb6:	6708           	beqs cc0 <DoRest>
     cb8:	5307           	subqb #1,%d7
     cba:	6600 fa8e      	bnew 74a <LAB_SNER>
     cbe:	7eff           	moveq #-1,%d7

00000cc0 <DoRest>:
     cc0:	6100 06d0      	bsrw 1392 <LAB_IGBY>
     cc4:	6100 0568      	bsrw 122e <LAB_EVEX>
     cc8:	4a2b 0000      	tstb %a3@(0)
     ccc:	6706           	beqs cd4 <DoCmp>
     cce:	177c 00ff 0000 	moveb #-1,%a3@(0)

00000cd4 <DoCmp>:
     cd4:	bf2b 0000      	eorb %d7,%a3@(0)
     cd8:	6614           	bnes cee <LoopDone>

00000cda <LoopAlways>:
     cda:	276f 0006 0000 	movel %sp@(6),%a3@(0)
     ce0:	2a6f 000a      	moveal %sp@(10),%a5
     ce4:	41fa fe80      	lea %pc@(b66 <LAB_15C2>),%a0
     ce8:	2e88           	movel %a0,%sp@
     cea:	6000 06a8      	braw 1394 <LAB_GBYT>

00000cee <LoopDone>:
     cee:	4fef 000e      	lea %sp@(14),%sp
     cf2:	6014           	bras d08 <LAB_DATA>

00000cf4 <LAB_RETURN>:
     cf4:	6616           	bnes d0c <RTS_007>
     cf6:	0c6f 008d 0004 	cmpiw #141,%sp@(4)
     cfc:	6600 fa48      	bnew 746 <LAB_RGER>
     d00:	5c4f           	addqw #6,%sp
     d02:	275f 0000      	movel %sp@+,%a3@(0)
     d06:	2a5f           	moveal %sp@+,%a5

00000d08 <LAB_DATA>:
     d08:	6104           	bsrs d0e <LAB_SNBS>
     d0a:	2a48           	moveal %a0,%a5

00000d0c <RTS_007>:
     d0c:	4e75           	rts

00000d0e <LAB_SNBS>:
     d0e:	204d           	moveal %a5,%a0
     d10:	7222           	moveq #34,%d1
     d12:	743a           	moveq #58,%d2
     d14:	6008           	bras d1e <LAB_172D>

00000d16 <LAB_172C>:
     d16:	b400           	cmpb %d0,%d2
     d18:	6708           	beqs d22 <RTS_007a>
     d1a:	b200           	cmpb %d0,%d1
     d1c:	670c           	beqs d2a <LAB_1725>

00000d1e <LAB_172D>:
     d1e:	1018           	moveb %a0@+,%d0
     d20:	66f4           	bnes d16 <LAB_172C>

00000d22 <RTS_007a>:
     d22:	5348           	subqw #1,%a0
     d24:	4e75           	rts

00000d26 <LAB_1723>:
     d26:	b200           	cmpb %d0,%d1
     d28:	67f4           	beqs d1e <LAB_172D>

00000d2a <LAB_1725>:
     d2a:	1018           	moveb %a0@+,%d0
     d2c:	66f8           	bnes d26 <LAB_1723>
     d2e:	60f2           	bras d22 <RTS_007a>

00000d30 <LAB_IF>:
     d30:	6100 04fc      	bsrw 122e <LAB_EVEX>
     d34:	6100 065e      	bsrw 1394 <LAB_GBYT>
     d38:	0c00 00ad      	cmpib #-83,%d0
     d3c:	6714           	beqs d52 <LAB_174B>
     d3e:	0c00 0089      	cmpib #-119,%d0
     d42:	6600 fa06      	bnew 74a <LAB_SNER>
     d46:	204d           	moveal %a5,%a0
     d48:	6100 0648      	bsrw 1392 <LAB_IGBY>
     d4c:	2a48           	moveal %a0,%a5
     d4e:	6400 f9fa      	bccw 74a <LAB_SNER>

00000d52 <LAB_174B>:
     d52:	102b 0000      	moveb %a3@(0),%d0
     d56:	671e           	beqs d76 <LAB_174E>
     d58:	6100 0638      	bsrw 1392 <LAB_IGBY>
     d5c:	6500 ff12      	bcsw c70 <LAB_GOTO>
     d60:	0c00 008e      	cmpib #-114,%d0
     d64:	6700 fe1e      	beqw b84 <LAB_1602>
     d68:	6100 fe16      	bsrw b80 <LAB_15FF>
     d6c:	1015           	moveb %a5@,%d0
     d6e:	0c00 00a9      	cmpib #-87,%d0
     d72:	6794           	beqs d08 <LAB_DATA>
     d74:	4e75           	rts

00000d76 <LAB_174E>:
     d76:	101d           	moveb %a5@+,%d0
     d78:	263c 0000 00a9 	movel #169,%d3
     d7e:	283c 0000 008b 	movel #139,%d4
     d84:	7a00           	moveq #0,%d5

00000d86 <LAB_1750>:
     d86:	101d           	moveb %a5@+,%d0
     d88:	6720           	beqs daa <LAB_1754>
     d8a:	b004           	cmpb %d4,%d0
     d8c:	6604           	bnes d92 <LAB_1752>
     d8e:	5245           	addqw #1,%d5
     d90:	60f4           	bras d86 <LAB_1750>

00000d92 <LAB_1752>:
     d92:	b003           	cmpb %d3,%d0
     d94:	66f0           	bnes d86 <LAB_1750>

00000d96 <LAB_1756>:
     d96:	51cd ffee      	dbf %d5,d86 <LAB_1750>
     d9a:	6100 05f8      	bsrw 1394 <LAB_GBYT>
     d9e:	6500 fed0      	bcsw c70 <LAB_GOTO>
     da2:	6000 fddc      	braw b80 <LAB_15FF>

00000da6 <LAB_REM>:
     da6:	4a1d           	tstb %a5@+
     da8:	66fc           	bnes da6 <LAB_REM>

00000daa <LAB_1754>:
     daa:	534d           	subqw #1,%a5
     dac:	4e75           	rts

00000dae <LAB_ON>:
     dae:	6100 0f5e      	bsrw 1d0e <LAB_GTBY>
     db2:	1400           	moveb %d0,%d2
     db4:	6100 05de      	bsrw 1394 <LAB_GBYT>
     db8:	3f00           	movew %d0,%sp@-
     dba:	0c00 008d      	cmpib #-115,%d0
     dbe:	6708           	beqs dc8 <LAB_176C>
     dc0:	0c00 0089      	cmpib #-119,%d0
     dc4:	6600 f984      	bnew 74a <LAB_SNER>

00000dc8 <LAB_176C>:
     dc8:	5302           	subqb #1,%d2
     dca:	6606           	bnes dd2 <LAB_1773>
     dcc:	301f           	movew %sp@+,%d0
     dce:	6000 fdb4      	braw b84 <LAB_1602>

00000dd2 <LAB_1773>:
     dd2:	6100 05be      	bsrw 1392 <LAB_IGBY>
     dd6:	610a           	bsrs de2 <LAB_GFPN>
     dd8:	0c00 002c      	cmpib #44,%d0
     ddc:	67ea           	beqs dc8 <LAB_176C>
     dde:	301f           	movew %sp@+,%d0
     de0:	4e75           	rts

00000de2 <LAB_GFPN>:
     de2:	7200           	moveq #0,%d1
     de4:	2001           	movel %d1,%d0
     de6:	6100 05ac      	bsrw 1394 <LAB_GBYT>
     dea:	642e           	bccs e1a <LAB_1786>
     dec:	2f02           	movel %d2,%sp@-

00000dee <LAB_1785>:
     dee:	2401           	movel %d1,%d2
     df0:	d281           	addl %d1,%d1
     df2:	6500 f956      	bcsw 74a <LAB_SNER>
     df6:	d281           	addl %d1,%d1
     df8:	6500 f950      	bcsw 74a <LAB_SNER>
     dfc:	d282           	addl %d2,%d1
     dfe:	6500 f94a      	bcsw 74a <LAB_SNER>
     e02:	d281           	addl %d1,%d1
     e04:	6500 f944      	bcsw 74a <LAB_SNER>
     e08:	0400 0030      	subib #48,%d0
     e0c:	d280           	addl %d0,%d1
     e0e:	6900 f93a      	bvsw 74a <LAB_SNER>
     e12:	6100 057e      	bsrw 1392 <LAB_IGBY>
     e16:	65d6           	bcss dee <LAB_1785>
     e18:	241f           	movel %sp@+,%d2

00000e1a <LAB_1786>:
     e1a:	2741 0000      	movel %d1,%a3@(0)
     e1e:	4e75           	rts

00000e20 <LAB_DEC>:
     e20:	3f3c 8180      	movew #-32384,%sp@-
     e24:	600a           	bras e30 <LAB_17B7>

00000e26 <LAB_INC>:
     e26:	3f3c 8100      	movew #-32512,%sp@-
     e2a:	6004           	bras e30 <LAB_17B7>

00000e2c <LAB_17B8>:
     e2c:	6100 0564      	bsrw 1392 <LAB_IGBY>

00000e30 <LAB_17B7>:
     e30:	6100 0778      	bsrw 15aa <LAB_GVAR>
     e34:	4a2b 0000      	tstb %a3@(0)
     e38:	6b00 f8e4      	bmiw 71e <LAB_TMER>
     e3c:	6636           	bnes e74 <LAB_INCI>
     e3e:	2748 0000      	movel %a0,%a3@(0)
     e42:	6100 1328      	bsrw 216c <LAB_UFAC>
     e46:	277c 8000 0000 	movel #-2147483648,%a3@(0)
     e4c:	0000 
     e4e:	3017           	movew %sp@,%d0
     e50:	3740 0000      	movew %d0,%a3@(0)
     e54:	176b 0000 0000 	moveb %a3@(0),%a3@(0)
     e5a:	b12b 0000      	eorb %d0,%a3@(0)
     e5e:	6100 1028      	bsrw 1e88 <LAB_ADD>
     e62:	6100 1324      	bsrw 2188 <LAB_PFAC>

00000e66 <LAB_INCT>:
     e66:	6100 052c      	bsrw 1394 <LAB_GBYT>
     e6a:	0c00 002c      	cmpib #44,%d0
     e6e:	67bc           	beqs e2c <LAB_17B8>
     e70:	544f           	addqw #2,%sp
     e72:	4e75           	rts

00000e74 <LAB_INCI>:
     e74:	4a2f 0001      	tstb %sp@(1)
     e78:	6604           	bnes e7e <LAB_DECI>
     e7a:	5290           	addql #1,%a0@
     e7c:	60e8           	bras e66 <LAB_INCT>

00000e7e <LAB_DECI>:
     e7e:	5390           	subql #1,%a0@
     e80:	60e4           	bras e66 <LAB_INCT>

00000e82 <LAB_LET>:
     e82:	6100 0722      	bsrw 15a6 <LAB_SVAR>
     e86:	2748 0000      	movel %a0,%a3@(0)
     e8a:	1f2b 0000      	moveb %a3@(0),%sp@-
     e8e:	203c ffff ffbd 	movel #-67,%d0
     e94:	6100 04f4      	bsrw 138a <LAB_SCCA>
     e98:	6100 0394      	bsrw 122e <LAB_EVEX>
     e9c:	102b 0000      	moveb %a3@(0),%d0
     ea0:	175f 0000      	moveb %sp@+,%a3@(0)
     ea4:	e318           	rolb #1,%d0
     ea6:	6100 0372      	bsrw 121a <LAB_CKTM>
     eaa:	6700 12dc      	beqw 2188 <LAB_PFAC>

00000eae <LAB_17D5>:
     eae:	246b 0000      	moveal %a3@(0),%a2

00000eb2 <LAB_17D6>:
     eb2:	206b 0000      	moveal %a3@(0),%a0
     eb6:	2250           	moveal %a0@,%a1
     eb8:	b3eb 0000      	cmpal %a3@(0),%a1
     ebc:	6516           	bcss ed4 <LAB_1811>
     ebe:	b1eb 0000      	cmpal %a3@(0),%a0
     ec2:	6510           	bcss ed4 <LAB_1811>

00000ec4 <LAB_1810>:
     ec4:	7200           	moveq #0,%d1
     ec6:	3228 0004      	movew %a0@(4),%d1
     eca:	2050           	moveal %a0@,%a0
     ecc:	6100 0b1a      	bsrw 19e8 <LAB_20C9>
     ed0:	206b 0000      	moveal %a3@(0),%a0

00000ed4 <LAB_1811>:
     ed4:	b9c8           	cmpal %a0,%a4
     ed6:	6602           	bnes eda <LAB_1813>
     ed8:	5c4c           	addqw #6,%a4

00000eda <LAB_1813>:
     eda:	24d8           	movel %a0@+,%a2@+
     edc:	3490           	movew %a0@,%a2@

00000ede <RTS_008>:
     ede:	4e75           	rts

00000ee0 <LAB_GET>:
     ee0:	6100 06c4      	bsrw 15a6 <LAB_SVAR>
     ee4:	2748 0000      	movel %a0,%a3@(0)
     ee8:	4a2b 0000      	tstb %a3@(0)
     eec:	6b0c           	bmis efa <LAB_GETS>
     eee:	6100 1e0a      	bsrw 2cfa <INGET>
     ef2:	6100 09c8      	bsrw 18bc <LAB_1FD0>
     ef6:	6000 1290      	braw 2188 <LAB_PFAC>

00000efa <LAB_GETS>:
     efa:	7200           	moveq #0,%d1
     efc:	2041           	moveal %d1,%a0
     efe:	6100 1dfa      	bsrw 2cfa <INGET>
     f02:	6408           	bccs f0c <LAB_NoSt>
     f04:	7201           	moveq #1,%d1
     f06:	6100 0b12      	bsrw 1a1a <LAB_2115>
     f0a:	1080           	moveb %d0,%a0@

00000f0c <LAB_NoSt>:
     f0c:	6100 0af2      	bsrw 1a00 <LAB_RTST>
     f10:	609c           	bras eae <LAB_17D5>

00000f12 <LAB_1829>:
     f12:	6100 00b4      	bsrw fc8 <LAB_18C6>

00000f16 <LAB_182C>:
     f16:	6100 047c      	bsrw 1394 <LAB_GBYT>

00000f1a <LAB_PRINT>:
     f1a:	674a           	beqs f66 <LAB_CRLF>

00000f1c <LAB_1831>:
     f1c:	0c00 00a8      	cmpib #-88,%d0
     f20:	6764           	beqs f86 <LAB_18A2>
     f22:	0c00 00ac      	cmpib #-84,%d0
     f26:	675e           	beqs f86 <LAB_18A2>
     f28:	0c00 002c      	cmpib #44,%d0
     f2c:	6740           	beqs f6e <LAB_188B>
     f2e:	0c00 003b      	cmpib #59,%d0
     f32:	6700 0086      	beqw fba <LAB_18BD>
     f36:	6100 02f6      	bsrw 122e <LAB_EVEX>
     f3a:	4a2b 0000      	tstb %a3@(0)
     f3e:	6bd2           	bmis f12 <LAB_1829>
     f40:	6100 13cc      	bsrw 230e <LAB_2970>
     f44:	6100 0a74      	bsrw 19ba <LAB_20AE>
     f48:	7000           	moveq #0,%d0
     f4a:	102b 0000      	moveb %a3@(0),%d0
     f4e:	670c           	beqs f5c <LAB_185E>
     f50:	902c 0007      	subb %a4@(7),%d0
     f54:	902b 0000      	subb %a3@(0),%d0
     f58:	6402           	bccs f5c <LAB_185E>
     f5a:	610a           	bsrs f66 <LAB_CRLF>

00000f5c <LAB_185E>:
     f5c:	616a           	bsrs fc8 <LAB_18C6>
     f5e:	60b6           	bras f16 <LAB_182C>

00000f60 <LAB_1866>:
     f60:	11bc 0000 1000 	moveb #0,%a0@(0000000000000000,%d1:w)

00000f66 <LAB_CRLF>:
     f66:	700d           	moveq #13,%d0
     f68:	6174           	bsrs fde <LAB_PRNA>
     f6a:	700a           	moveq #10,%d0
     f6c:	6070           	bras fde <LAB_PRNA>

00000f6e <LAB_188B>:
     f6e:	142b 0000      	moveb %a3@(0),%d2
     f72:	b42b 0000      	cmpb %a3@(0),%d2
     f76:	6504           	bcss f7c <LAB_1898>
     f78:	61ec           	bsrs f66 <LAB_CRLF>
     f7a:	603e           	bras fba <LAB_18BD>

00000f7c <LAB_1898>:
     f7c:	942b 0000      	subb %a3@(0),%d2
     f80:	64fa           	bccs f7c <LAB_1898>
     f82:	4402           	negb %d2
     f84:	6022           	bras fa8 <LAB_18B7>

00000f86 <LAB_18A2>:
     f86:	3f00           	movew %d0,%sp@-
     f88:	6100 0d80      	bsrw 1d0a <LAB_SGBY>
     f8c:	3400           	movew %d0,%d2
     f8e:	6100 0404      	bsrw 1394 <LAB_GBYT>
     f92:	0c00 0029      	cmpib #41,%d0
     f96:	6600 f7b2      	bnew 74a <LAB_SNER>
     f9a:	301f           	movew %sp@+,%d0
     f9c:	0c00 00a8      	cmpib #-88,%d0
     fa0:	6606           	bnes fa8 <LAB_18B7>
     fa2:	942b 0000      	subb %a3@(0),%d2
     fa6:	6312           	blss fba <LAB_18BD>

00000fa8 <LAB_18B7>:
     fa8:	7000           	moveq #0,%d0
     faa:	5300           	subqb #1,%d0
     fac:	c480           	andl %d0,%d2
     fae:	670a           	beqs fba <LAB_18BD>
     fb0:	7020           	moveq #32,%d0
     fb2:	5302           	subqb #1,%d2

00000fb4 <LAB_18B8>:
     fb4:	6128           	bsrs fde <LAB_PRNA>
     fb6:	51ca fffc      	dbf %d2,fb4 <LAB_18B8>

00000fba <LAB_18BD>:
     fba:	6100 03d6      	bsrw 1392 <LAB_IGBY>
     fbe:	6600 ff5c      	bnew f1c <LAB_1831>
     fc2:	4e75           	rts

00000fc4 <LAB_18C3>:
     fc4:	6100 09f4      	bsrw 19ba <LAB_20AE>

00000fc8 <LAB_18C6>:
     fc8:	6100 0be4      	bsrw 1bae <LAB_22B6>
     fcc:	670c           	beqs fda <RTS_009>
     fce:	3200           	movew %d0,%d1
     fd0:	5341           	subqw #1,%d1

00000fd2 <LAB_18CD>:
     fd2:	1018           	moveb %a0@+,%d0
     fd4:	6108           	bsrs fde <LAB_PRNA>
     fd6:	51c9 fffa      	dbf %d1,fd2 <LAB_18CD>

00000fda <RTS_009>:
     fda:	4e75           	rts

00000fdc <LAB_18E3>:
     fdc:	703f           	moveq #63,%d0

00000fde <LAB_PRNA>:
     fde:	2f01           	movel %d1,%sp@-
     fe0:	0c00 0020      	cmpib #32,%d0
     fe4:	6528           	bcss 100e <LAB_18F9>
     fe6:	122b 0000      	moveb %a3@(0),%d1
     fea:	6610           	bnes ffc <LAB_18F0>
     fec:	122b 0000      	moveb %a3@(0),%d1
     ff0:	922b 0000      	subb %a3@(0),%d1
     ff4:	6614           	bnes 100a <LAB_18F7>
     ff6:	1741 0000      	moveb %d1,%a3@(0)
     ffa:	600e           	bras 100a <LAB_18F7>

00000ffc <LAB_18F0>:
     ffc:	b22b 0000      	cmpb %a3@(0),%d1
    1000:	6608           	bnes 100a <LAB_18F7>
    1002:	2f00           	movel %d0,%sp@-
    1004:	6100 ff60      	bsrw f66 <LAB_CRLF>
    1008:	201f           	movel %sp@+,%d0

0000100a <LAB_18F7>:
    100a:	522b 0000      	addqb #1,%a3@(0)

0000100e <LAB_18F9>:
    100e:	4eab 0000      	jsr %a3@(0)
    1012:	0c00 000d      	cmpib #13,%d0
    1016:	6618           	bnes 1030 <LAB_188A>
    1018:	7200           	moveq #0,%d1
    101a:	122b 0000      	moveb %a3@(0),%d1
    101e:	670c           	beqs 102c <LAB_1886>
    1020:	7000           	moveq #0,%d0

00001022 <LAB_1880>:
    1022:	4eab 0000      	jsr %a3@(0)
    1026:	51c9 fffa      	dbf %d1,1022 <LAB_1880>
    102a:	700d           	moveq #13,%d0

0000102c <LAB_1886>:
    102c:	1741 0000      	moveb %d1,%a3@(0)

00001030 <LAB_188A>:
    1030:	221f           	movel %sp@+,%d1
    1032:	4e75           	rts

00001034 <LAB_1904>:
    1034:	2a5f           	moveal %sp@+,%a5
    1036:	4a2b 0000      	tstb %a3@(0)
    103a:	6a0a           	bpls 1046 <LAB_1913>
    103c:	276b 0000 0000 	movel %a3@(0),%a3@(0)
    1042:	6000 f6da      	braw 71e <LAB_TMER>

00001046 <LAB_1913>:
    1046:	41fa 2aa4      	lea %pc@(3aec <LAB_REDO>),%a0
    104a:	6100 ff78      	bsrw fc4 <LAB_18C3>
    104e:	2a6b 0000      	moveal %a3@(0),%a5
    1052:	4e75           	rts

00001054 <LAB_INPUT>:
    1054:	6100 086e      	bsrw 18c4 <LAB_CKRN>
    1058:	0c00 0022      	cmpib #34,%d0
    105c:	660e           	bnes 106c <LAB_1934>
    105e:	6100 030a      	bsrw 136a <LAB_1BC1>
    1062:	703b           	moveq #59,%d0
    1064:	6100 0324      	bsrw 138a <LAB_SCCA>
    1068:	6100 ff5e      	bsrw fc8 <LAB_18C6>

0000106c <LAB_1934>:
    106c:	6100 f806      	bsrw 874 <LAB_INLN>
    1070:	7000           	moveq #0,%d0
    1072:	4a10           	tstb %a0@
    1074:	660a           	bnes 1080 <LAB_1953>
    1076:	6000 fb52      	braw bca <LAB_1647>

0000107a <LAB_READ>:
    107a:	206b 0000      	moveal %a3@(0),%a0
    107e:	7098           	moveq #-104,%d0

00001080 <LAB_1953>:
    1080:	1740 0000      	moveb %d0,%a3@(0)
    1084:	2748 0000      	movel %a0,%a3@(0)

00001088 <LAB_195B>:
    1088:	6100 051c      	bsrw 15a6 <LAB_SVAR>
    108c:	2748 0000      	movel %a0,%a3@(0)
    1090:	2f0d           	movel %a5,%sp@-

00001092 <LAB_1961>:
    1092:	2a6b 0000      	moveal %a3@(0),%a5
    1096:	6100 02fc      	bsrw 1394 <LAB_GBYT>
    109a:	661e           	bnes 10ba <LAB_1986>
    109c:	4a2b 0000      	tstb %a3@(0)
    10a0:	6b72           	bmis 1114 <LAB_19DD>
    10a2:	6100 ff38      	bsrw fdc <LAB_18E3>
    10a6:	6100 f7cc      	bsrw 874 <LAB_INLN>
    10aa:	4a10           	tstb %a0@
    10ac:	6604           	bnes 10b2 <LAB_1984>
    10ae:	6000 fb1a      	braw bca <LAB_1647>

000010b2 <LAB_1984>:
    10b2:	2a48           	moveal %a0,%a5
    10b4:	534d           	subqw #1,%a5

000010b6 <LAB_1985>:
    10b6:	6100 02da      	bsrw 1392 <LAB_IGBY>

000010ba <LAB_1986>:
    10ba:	4a2b 0000      	tstb %a3@(0)
    10be:	6a20           	bpls 10e0 <LAB_19B0>
    10c0:	1400           	moveb %d0,%d2
    10c2:	0c00 0022      	cmpib #34,%d0
    10c6:	6706           	beqs 10ce <LAB_1999>
    10c8:	743a           	moveq #58,%d2
    10ca:	702c           	moveq #44,%d0
    10cc:	534d           	subqw #1,%a5

000010ce <LAB_1999>:
    10ce:	524d           	addqw #1,%a5
    10d0:	1600           	moveb %d0,%d3
    10d2:	204d           	moveal %a5,%a0
    10d4:	6100 08e8      	bsrw 19be <LAB_20B4>
    10d8:	2a4a           	moveal %a2,%a5
    10da:	6100 fdd2      	bsrw eae <LAB_17D5>
    10de:	6010           	bras 10f0 <LAB_19B6>

000010e0 <LAB_19B0>:
    10e0:	1f2b 0000      	moveb %a3@(0),%sp@-
    10e4:	6100 1dbe      	bsrw 2ea4 <LAB_2887>
    10e8:	175f 0000      	moveb %sp@+,%a3@(0)
    10ec:	6100 109a      	bsrw 2188 <LAB_PFAC>

000010f0 <LAB_19B6>:
    10f0:	6100 02a2      	bsrw 1394 <LAB_GBYT>
    10f4:	670a           	beqs 1100 <LAB_19C2>
    10f6:	0c00 002c      	cmpib #44,%d0
    10fa:	6600 ff38      	bnew 1034 <LAB_1904>
    10fe:	524d           	addqw #1,%a5

00001100 <LAB_19C2>:
    1100:	274d 0000      	movel %a5,%a3@(0)
    1104:	2a5f           	moveal %sp@+,%a5
    1106:	6100 028c      	bsrw 1394 <LAB_GBYT>
    110a:	6736           	beqs 1142 <LAB_1A03>
    110c:	487a ff7a      	pea %pc@(1088 <LAB_195B>)
    1110:	6000 0276      	braw 1388 <LAB_1C01>

00001114 <LAB_19DD>:
    1114:	6100 fbf8      	bsrw d0e <LAB_SNBS>
    1118:	2a48           	moveal %a0,%a5
    111a:	524d           	addqw #1,%a5
    111c:	0c00 003a      	cmpib #58,%d0
    1120:	6712           	beqs 1134 <LAB_19F6>
    1122:	320d           	movew %a5,%d1
    1124:	0241 0001      	andiw #1,%d1
    1128:	dac1           	addaw %d1,%a5
    112a:	241d           	movel %a5@+,%d2
    112c:	6700 f614      	beqw 742 <LAB_ODER>
    1130:	275d 0000      	movel %a5@+,%a3@(0)

00001134 <LAB_19F6>:
    1134:	6100 025e      	bsrw 1394 <LAB_GBYT>
    1138:	0c00 0083      	cmpib #-125,%d0
    113c:	6700 ff78      	beqw 10b6 <LAB_1985>
    1140:	60d2           	bras 1114 <LAB_19DD>

00001142 <LAB_1A03>:
    1142:	206b 0000      	moveal %a3@(0),%a0
    1146:	4a2b 0000      	tstb %a3@(0)
    114a:	6a06           	bpls 1152 <LAB_1A0E>
    114c:	2748 0000      	movel %a0,%a3@(0)
    1150:	4e75           	rts

00001152 <LAB_1A0E>:
    1152:	4a10           	tstb %a0@
    1154:	6602           	bnes 1158 <LAB_1A1B>
    1156:	4e75           	rts

00001158 <LAB_1A1B>:
    1158:	41fa 2982      	lea %pc@(3adc <LAB_IMSG>),%a0
    115c:	6000 fe66      	braw fc4 <LAB_18C3>

00001160 <LAB_NEXT>:
    1160:	6610           	bnes 1172 <LAB_1A46>
    1162:	584f           	addqw #4,%sp
    1164:	0c57 0081      	cmpiw #129,%sp@
    1168:	6600 f5e4      	bnew 74e <LAB_NFER>
    116c:	206f 0002      	moveal %sp@(2),%a0
    1170:	601c           	bras 118e <LAB_11BD>

00001172 <LAB_1A46>:
    1172:	6100 0436      	bsrw 15aa <LAB_GVAR>
    1176:	584f           	addqw #4,%sp
    1178:	303c 0081      	movew #129,%d0
    117c:	721c           	moveq #28,%d1
    117e:	6002           	bras 1182 <LAB_11A6>

00001180 <LAB_11A5>:
    1180:	dfc1           	addal %d1,%sp

00001182 <LAB_11A6>:
    1182:	b057           	cmpw %sp@,%d0
    1184:	6600 f5c8      	bnew 74e <LAB_NFER>
    1188:	b1ef 0002      	cmpal %sp@(2),%a0
    118c:	66f2           	bnes 1180 <LAB_11A5>

0000118e <LAB_11BD>:
    118e:	376f 0006 0000 	movew %sp@(6),%a3@(0)
    1194:	276f 0008 0000 	movel %sp@(8),%a3@(0)
    119a:	176f 0012 0000 	moveb %sp@(18),%a3@(0)
    11a0:	6100 0228      	bsrw 13ca <LAB_1C19>
    11a4:	176b 0000 0000 	moveb %a3@(0),%a3@(0)
    11aa:	102b 0000      	moveb %a3@(0),%d0
    11ae:	b12b 0000      	eorb %d0,%a3@(0)
    11b2:	2748 0000      	movel %a0,%a3@(0)
    11b6:	6100 0cd0      	bsrw 1e88 <LAB_ADD>
    11ba:	176f 0012 0000 	moveb %sp@(18),%a3@(0)
    11c0:	6100 0fc6      	bsrw 2188 <LAB_PFAC>
    11c4:	376f 000c 0000 	movew %sp@(12),%a3@(0)
    11ca:	276f 000e 0000 	movel %sp@(14),%a3@(0)
    11d0:	176b 0000 0000 	moveb %a3@(0),%a3@(0)
    11d6:	102b 0000      	moveb %a3@(0),%d0
    11da:	b12b 0000      	eorb %d0,%a3@(0)
    11de:	6100 1052      	bsrw 2232 <LAB_27FA>
    11e2:	322f 0006      	movew %sp@(6),%d1
    11e6:	b141           	eorw %d0,%d1
    11e8:	4a00           	tstb %d0
    11ea:	6704           	beqs 11f0 <LAB_1A90>
    11ec:	4a01           	tstb %d1
    11ee:	6a0e           	bpls 11fe <LAB_1A9B>

000011f0 <LAB_1A90>:
    11f0:	276f 0014 0000 	movel %sp@(20),%a3@(0)
    11f6:	2a6f 0018      	moveal %sp@(24),%a5
    11fa:	6000 f96a      	braw b66 <LAB_15C2>

000011fe <LAB_1A9B>:
    11fe:	defc 001c      	addaw #28,%sp
    1202:	6100 0190      	bsrw 1394 <LAB_GBYT>
    1206:	0c00 002c      	cmpib #44,%d0
    120a:	6600 f95a      	bnew b66 <LAB_15C2>
    120e:	6100 0182      	bsrw 1392 <LAB_IGBY>
    1212:	6100 ff5e      	bsrw 1172 <LAB_1A46>

00001216 <LAB_EVNM>:
    1216:	6116           	bsrs 122e <LAB_EVEX>

00001218 <LAB_CTNM>:
    1218:	b040           	cmpw %d0,%d0

0000121a <LAB_CKTM>:
    121a:	082b 0007 0000 	btst #7,%a3@(0)
    1220:	6606           	bnes 1228 <LAB_1ABA>
    1222:	6500 f4fa      	bcsw 71e <LAB_TMER>
    1226:	4e75           	rts

00001228 <LAB_1ABA>:
    1228:	6400 f4f4      	bccw 71e <LAB_TMER>
    122c:	4e75           	rts

0000122e <LAB_EVEX>:
    122e:	534d           	subqw #1,%a5

00001230 <LAB_EVEZ>:
    1230:	7200           	moveq #0,%d1
    1232:	1741 0000      	moveb %d1,%a3@(0)
    1236:	601c           	bras 1254 <LAB_1ACD>

00001238 <LAB_1B43>:
    1238:	41fa 22e2      	lea %pc@(351c <LAB_OPPT>),%a0
    123c:	3030 1002      	movew %a0@(0000000000000002,%d1:w),%d0
    1240:	4870 0000      	pea %a0@(0000000000000000,%d0:w)
    1244:	2f2b 0000      	movel %a3@(0),%sp@-
    1248:	3f2b 0000      	movew %a3@(0),%sp@-
    124c:	1f2b 0000      	moveb %a3@(0),%sp@-
    1250:	3230 1000      	movew %a0@(0000000000000000,%d1:w),%d1

00001254 <LAB_1ACD>:
    1254:	3f01           	movew %d1,%sp@-
    1256:	6100 00e8      	bsrw 1340 <LAB_GVAL>
    125a:	177c 0000 0000 	moveb #0,%a3@(0)

00001260 <LAB_1ADB>:
    1260:	6100 0132      	bsrw 1394 <LAB_GBYT>

00001264 <LAB_1ADE>:
    1264:	0400 00bc      	subib #-68,%d0
    1268:	652a           	bcss 1294 <LAB_1AFA>
    126a:	0c00 0003      	cmpib #3,%d0
    126e:	650a           	bcss 127a <LAB_1AE0>
    1270:	4a2b 0000      	tstb %a3@(0)
    1274:	6660           	bnes 12d6 <LAB_1B2A>
    1276:	6000 008a      	braw 1302 <LAB_1B78>

0000127a <LAB_1AE0>:
    127a:	7201           	moveq #1,%d1
    127c:	e121           	aslb %d0,%d1
    127e:	102b 0000      	moveb %a3@(0),%d0
    1282:	b32b 0000      	eorb %d1,%a3@(0)
    1286:	b02b 0000      	cmpb %a3@(0),%d0
    128a:	6400 f4be      	bccw 74a <LAB_SNER>
    128e:	6100 0102      	bsrw 1392 <LAB_IGBY>
    1292:	60d0           	bras 1264 <LAB_1ADE>

00001294 <LAB_1AFA>:
    1294:	4a2b 0000      	tstb %a3@(0)
    1298:	663c           	bnes 12d6 <LAB_1B2A>
    129a:	0600 000a      	addib #10,%d0
    129e:	6462           	bccs 1302 <LAB_1B78>
    12a0:	6608           	bnes 12aa <LAB_1B0B>
    12a2:	4a2b 0000      	tstb %a3@(0)
    12a6:	6b00 0892      	bmiw 1b3a <LAB_224D>

000012aa <LAB_1B0B>:
    12aa:	7200           	moveq #0,%d1
    12ac:	d000           	addb %d0,%d0
    12ae:	d000           	addb %d0,%d0
    12b0:	1200           	moveb %d0,%d1

000012b2 <LAB_1B13>:
    12b2:	301f           	movew %sp@+,%d0
    12b4:	41fa 2266      	lea %pc@(351c <LAB_OPPT>),%a0
    12b8:	b070 1000      	cmpw %a0@(0000000000000000,%d1:w),%d0
    12bc:	644a           	bccs 1308 <LAB_1B7D>
    12be:	6100 ff58      	bsrw 1218 <LAB_CTNM>

000012c2 <LAB_1B1C>:
    12c2:	3f00           	movew %d0,%sp@-

000012c4 <LAB_1B1D>:
    12c4:	6100 ff72      	bsrw 1238 <LAB_1B43>
    12c8:	301f           	movew %sp@+,%d0
    12ca:	222b 0000      	movel %a3@(0),%d1
    12ce:	6a26           	bpls 12f6 <LAB_1B3C>
    12d0:	3000           	movew %d0,%d0
    12d2:	6732           	beqs 1306 <LAB_1B7B>
    12d4:	6040           	bras 1316 <LAB_1B86>

000012d6 <LAB_1B2A>:
    12d6:	102b 0000      	moveb %a3@(0),%d0
    12da:	122b 0000      	moveb %a3@(0),%d1
    12de:	d000           	addb %d0,%d0
    12e0:	d301           	addxb %d1,%d1
    12e2:	177c 0000 0000 	moveb #0,%a3@(0)
    12e8:	1741 0000      	moveb %d1,%a3@(0)
    12ec:	534d           	subqw #1,%a5
    12ee:	223c 0000 0030 	movel #48,%d1
    12f4:	60bc           	bras 12b2 <LAB_1B13>

000012f6 <LAB_1B3C>:
    12f6:	41fa 2224      	lea %pc@(351c <LAB_OPPT>),%a0
    12fa:	b070 1000      	cmpw %a0@(0000000000000000,%d1:w),%d0
    12fe:	6416           	bccs 1316 <LAB_1B86>
    1300:	60c0           	bras 12c2 <LAB_1B1C>

00001302 <LAB_1B78>:
    1302:	72ff           	moveq #-1,%d1
    1304:	301f           	movew %sp@+,%d0

00001306 <LAB_1B7B>:
    1306:	6732           	beqs 133a <LAB_1B9D>

00001308 <LAB_1B7D>:
    1308:	0c40 0064      	cmpiw #100,%d0
    130c:	6704           	beqs 1312 <LAB_1B84>
    130e:	6100 ff08      	bsrw 1218 <LAB_CTNM>

00001312 <LAB_1B84>:
    1312:	2741 0000      	movel %d1,%a3@(0)

00001316 <LAB_1B86>:
    1316:	101f           	moveb %sp@+,%d0
    1318:	1200           	moveb %d0,%d1
    131a:	e208           	lsrb #1,%d0
    131c:	1740 0000      	moveb %d0,%a3@(0)
    1320:	375f 0000      	movew %sp@+,%a3@(0)
    1324:	275f 0000      	movel %sp@+,%a3@(0)
    1328:	176b 0000 0000 	moveb %a3@(0),%a3@(0)
    132e:	102b 0000      	moveb %a3@(0),%d0
    1332:	b12b 0000      	eorb %d0,%a3@(0)
    1336:	e209           	lsrb #1,%d1
    1338:	4e75           	rts

0000133a <LAB_1B9D>:
    133a:	102b 0000      	moveb %a3@(0),%d0
    133e:	4e75           	rts

00001340 <LAB_GVAL>:
    1340:	6150           	bsrs 1392 <LAB_IGBY>
    1342:	6500 1b60      	bcsw 2ea4 <LAB_2887>
    1346:	4a00           	tstb %d0
    1348:	6b00 0096      	bmiw 13e0 <LAB_1BD0>
    134c:	0c00 0024      	cmpib #36,%d0
    1350:	6700 1b52      	beqw 2ea4 <LAB_2887>
    1354:	0c00 0025      	cmpib #37,%d0
    1358:	6700 1b4a      	beqw 2ea4 <LAB_2887>
    135c:	0c00 002e      	cmpib #46,%d0
    1360:	6700 1b42      	beqw 2ea4 <LAB_2887>
    1364:	0c00 0022      	cmpib #34,%d0
    1368:	660c           	bnes 1376 <LAB_1BF3>

0000136a <LAB_1BC1>:
    136a:	101d           	moveb %a5@+,%d0
    136c:	204d           	moveal %a5,%a0
    136e:	6100 064a      	bsrw 19ba <LAB_20AE>
    1372:	2a4a           	moveal %a2,%a5
    1374:	4e75           	rts

00001376 <LAB_1BF3>:
    1376:	0c00 0028      	cmpib #40,%d0
    137a:	664a           	bnes 13c6 <LAB_1C18>

0000137c <LAB_1BF7>:
    137c:	6100 feb2      	bsrw 1230 <LAB_EVEZ>

00001380 <LAB_1BFB>:
    1380:	7029           	moveq #41,%d0
    1382:	6006           	bras 138a <LAB_SCCA>

00001384 <LAB_SCGB>:
    1384:	487a 0988      	pea %pc@(1d0e <LAB_GTBY>)

00001388 <LAB_1C01>:
    1388:	702c           	moveq #44,%d0

0000138a <LAB_SCCA>:
    138a:	b01d           	cmpb %a5@+,%d0
    138c:	6706           	beqs 1394 <LAB_GBYT>
    138e:	6000 f3ba      	braw 74a <LAB_SNER>

00001392 <LAB_IGBY>:
    1392:	101d           	moveb %a5@+,%d0

00001394 <LAB_GBYT>:
    1394:	1015           	moveb %a5@,%d0
    1396:	0c00 0020      	cmpib #32,%d0
    139a:	67f6           	beqs 1392 <LAB_IGBY>
    139c:	0c00 00a9      	cmpib #-87,%d0
    13a0:	6410           	bccs 13b2 <RTS_001>
    13a2:	0c00 003a      	cmpib #58,%d0
    13a6:	640a           	bccs 13b2 <RTS_001>
    13a8:	2c3c 0000 00d0 	movel #208,%d6
    13ae:	d006           	addb %d6,%d0
    13b0:	9006           	subb %d6,%d0

000013b2 <RTS_001>:
    13b2:	4e75           	rts

000013b4 <LAB_1C11>:
    13b4:	6100 fe62      	bsrw 1218 <LAB_CTNM>
    13b8:	223c 0000 0028 	movel #40,%d1

000013be <LAB_1C13>:
    13be:	4fef 0004      	lea %sp@(4),%sp
    13c2:	6000 ff00      	braw 12c4 <LAB_1B1D>

000013c6 <LAB_1C18>:
    13c6:	6100 01e2      	bsrw 15aa <LAB_GVAR>

000013ca <LAB_1C19>:
    13ca:	4a2b 0000      	tstb %a3@(0)
    13ce:	6700 0d9c      	beqw 216c <LAB_UFAC>
    13d2:	6a06           	bpls 13da <LAB_1C1A>
    13d4:	2748 0000      	movel %a0,%a3@(0)
    13d8:	4e75           	rts

000013da <LAB_1C1A>:
    13da:	2010           	movel %a0@,%d0
    13dc:	6000 04be      	braw 189c <LAB_AYFC>

000013e0 <LAB_1BD0>:
    13e0:	0c00 00b3      	cmpib #-77,%d0
    13e4:	67ce           	beqs 13b4 <LAB_1C11>
    13e6:	0c00 00b2      	cmpib #-78,%d0
    13ea:	6700 ff54      	beqw 1340 <LAB_GVAL>
    13ee:	0c00 00ae      	cmpib #-82,%d0
    13f2:	6606           	bnes 13fa <LAB_1BE7>
    13f4:	323c 002c      	movew #44,%d1
    13f8:	60c4           	bras 13be <LAB_1C13>

000013fa <LAB_1BE7>:
    13fa:	0c00 00ab      	cmpib #-85,%d0
    13fe:	6700 051e      	beqw 191e <LAB_201E>
    1402:	0400 00bf      	subib #-65,%d0
    1406:	6500 f342      	bcsw 74a <LAB_SNER>
    140a:	0240 007f      	andiw #127,%d0
    140e:	d040           	addw %d0,%d0
    1410:	41fa 20be      	lea %pc@(34d0 <LAB_FTBL>),%a0
    1414:	3230 0000      	movew %a0@(0000000000000000,%d0:w),%d1
    1418:	4870 1000      	pea %a0@(0000000000000000,%d1:w)
    141c:	41fa 2066      	lea %pc@(3484 <LAB_FTPP>),%a0
    1420:	3030 0000      	movew %a0@(0000000000000000,%d0:w),%d0
    1424:	6712           	beqs 1438 <LAB_1C2A>
    1426:	41f0 0000      	lea %a0@(0000000000000000,%d0:w),%a0
    142a:	4ed0           	jmp %a0@

0000142c <LAB_PPFS>:
    142c:	6100 ff4e      	bsrw 137c <LAB_1BF7>
    1430:	4a2b 0000      	tstb %a3@(0)
    1434:	6a00 f2e8      	bplw 71e <LAB_TMER>

00001438 <LAB_1C2A>:
    1438:	4e75           	rts

0000143a <LAB_PPFN>:
    143a:	6100 ff40      	bsrw 137c <LAB_1BF7>
    143e:	4a2b 0000      	tstb %a3@(0)
    1442:	6b00 f2da      	bmiw 71e <LAB_TMER>
    1446:	4e75           	rts

00001448 <LAB_PPBI>:
    1448:	177c 0000 0000 	moveb #0,%a3@(0)
    144e:	101d           	moveb %a5@+,%d0
    1450:	4e75           	rts

00001452 <LAB_LRMS>:
    1452:	6100 fddc      	bsrw 1230 <LAB_EVEZ>
    1456:	4a2b 0000      	tstb %a3@(0)
    145a:	6a00 f2c2      	bplw 71e <LAB_TMER>
    145e:	141d           	moveb %a5@+,%d2
    1460:	0c02 002c      	cmpib #44,%d2
    1464:	6600 f2e4      	bnew 74a <LAB_SNER>
    1468:	2f2b 0000      	movel %a3@(0),%sp@-
    146c:	6100 08b8      	bsrw 1d26 <LAB_GTWO>
    1470:	205f           	moveal %sp@+,%a0
    1472:	4e75           	rts

00001474 <LAB_BHSS>:
    1474:	6100 fdba      	bsrw 1230 <LAB_EVEZ>
    1478:	4a2b 0000      	tstb %a3@(0)
    147c:	6b00 f2a0      	bmiw 71e <LAB_TMER>
    1480:	6100 0ddc      	bsrw 225e <LAB_2831>
    1484:	7200           	moveq #0,%d1
    1486:	141d           	moveb %a5@+,%d2
    1488:	0c02 002c      	cmpib #44,%d2
    148c:	660c           	bnes 149a <LAB_BHCB>
    148e:	2f00           	movel %d0,%sp@-
    1490:	6100 087c      	bsrw 1d0e <LAB_GTBY>
    1494:	2200           	movel %d0,%d1
    1496:	201f           	movel %sp@+,%d0
    1498:	141d           	moveb %a5@+,%d2

0000149a <LAB_BHCB>:
    149a:	0c02 0029      	cmpib #41,%d2
    149e:	6600 f2aa      	bnew 74a <LAB_SNER>
    14a2:	4e75           	rts

000014a4 <LAB_EOR>:
    14a4:	6116           	bsrs 14bc <GetFirst>
    14a6:	b580           	eorl %d2,%d0
    14a8:	6000 03f2      	braw 189c <LAB_AYFC>

000014ac <LAB_OR>:
    14ac:	610e           	bsrs 14bc <GetFirst>
    14ae:	8082           	orl %d2,%d0
    14b0:	6000 03ea      	braw 189c <LAB_AYFC>

000014b4 <LAB_AND>:
    14b4:	6106           	bsrs 14bc <GetFirst>
    14b6:	c082           	andl %d2,%d0
    14b8:	6000 03e2      	braw 189c <LAB_AYFC>

000014bc <GetFirst>:
    14bc:	6100 022a      	bsrw 16e8 <LAB_EVIR>
    14c0:	2400           	movel %d0,%d2
    14c2:	6100 0d02      	bsrw 21c6 <LAB_279B>
    14c6:	6000 0220      	braw 16e8 <LAB_EVIR>

000014ca <LAB_EQUAL>:
    14ca:	6100 021c      	bsrw 16e8 <LAB_EVIR>
    14ce:	4680           	notl %d0
    14d0:	6000 03ca      	braw 189c <LAB_AYFC>

000014d4 <LAB_LTHAN>:
    14d4:	6100 fd44      	bsrw 121a <LAB_CKTM>
    14d8:	6506           	bcss 14e0 <LAB_1CAE>
    14da:	6100 0d56      	bsrw 2232 <LAB_27FA>
    14de:	6042           	bras 1522 <LAB_1CF2>

000014e0 <LAB_1CAE>:
    14e0:	177c 0000 0000 	moveb #0,%a3@(0)
    14e6:	6100 06c6      	bsrw 1bae <LAB_22B6>
    14ea:	2248           	moveal %a0,%a1
    14ec:	2200           	movel %d0,%d1
    14ee:	206b 0000      	moveal %a3@(0),%a0
    14f2:	6100 06be      	bsrw 1bb2 <LAB_22BA>
    14f6:	2400           	movel %d0,%d2
    14f8:	6604           	bnes 14fe <LAB_1CB5>
    14fa:	4a81           	tstl %d1
    14fc:	6724           	beqs 1522 <LAB_1CF2>

000014fe <LAB_1CB5>:
    14fe:	9481           	subl %d1,%d2
    1500:	670c           	beqs 150e <LAB_1CD5>
    1502:	6504           	bcss 1508 <LAB_1CD4>
    1504:	70ff           	moveq #-1,%d0
    1506:	6008           	bras 1510 <LAB_1CD6>

00001508 <LAB_1CD4>:
    1508:	2200           	movel %d0,%d1
    150a:	7001           	moveq #1,%d0
    150c:	6002           	bras 1510 <LAB_1CD6>

0000150e <LAB_1CD5>:
    150e:	2002           	movel %d2,%d0

00001510 <LAB_1CD6>:
    1510:	5381           	subql #1,%d1

00001512 <LAB_1CE6>:
    1512:	b308           	cmpmb %a0@+,%a1@+
    1514:	56c9 fffc      	dbne %d1,1512 <LAB_1CE6>
    1518:	6708           	beqs 1522 <LAB_1CF2>
    151a:	6404           	bccs 1520 <LAB_1CDB>
    151c:	70ff           	moveq #-1,%d0
    151e:	6002           	bras 1522 <LAB_1CF2>

00001520 <LAB_1CDB>:
    1520:	7001           	moveq #1,%d0

00001522 <LAB_1CF2>:
    1522:	5200           	addqb #1,%d0
    1524:	1200           	moveb %d0,%d1
    1526:	7001           	moveq #1,%d0
    1528:	e338           	rolb %d1,%d0
    152a:	c02b 0000      	andb %a3@(0),%d0
    152e:	6700 0cea      	beqw 221a <LAB_27DB>
    1532:	70ff           	moveq #-1,%d0
    1534:	6000 0ce4      	braw 221a <LAB_27DB>

00001538 <LAB_1CFE>:
    1538:	6100 fe4e      	bsrw 1388 <LAB_1C01>

0000153c <LAB_DIM>:
    153c:	72ff           	moveq #-1,%d1
    153e:	6170           	bsrs 15b0 <LAB_1D10>
    1540:	6100 fe52      	bsrw 1394 <LAB_GBYT>
    1544:	66f2           	bnes 1538 <LAB_1CFE>
    1546:	4e75           	rts

00001548 <LAB_LSHIFT>:
    1548:	612e           	bsrs 1578 <GetPair>
    154a:	6708           	beqs 1554 <NoShift>
    154c:	0c02 0020      	cmpib #32,%d2
    1550:	6420           	bccs 1572 <TooBig>
    1552:	e5a0           	asll %d2,%d0

00001554 <NoShift>:
    1554:	6000 0346      	braw 189c <LAB_AYFC>

00001558 <LAB_RSHIFT>:
    1558:	611e           	bsrs 1578 <GetPair>
    155a:	67f8           	beqs 1554 <NoShift>
    155c:	0c02 0020      	cmpib #32,%d2
    1560:	650a           	bcss 156c <Not2Big>
    1562:	4a80           	tstl %d0
    1564:	6a0c           	bpls 1572 <TooBig>
    1566:	70ff           	moveq #-1,%d0
    1568:	6000 0332      	braw 189c <LAB_AYFC>

0000156c <Not2Big>:
    156c:	e4a0           	asrl %d2,%d0
    156e:	6000 032c      	braw 189c <LAB_AYFC>

00001572 <TooBig>:
    1572:	7000           	moveq #0,%d0
    1574:	6000 0326      	braw 189c <LAB_AYFC>

00001578 <GetPair>:
    1578:	6100 0798      	bsrw 1d12 <LAB_EVBY>
    157c:	1400           	moveb %d0,%d2
    157e:	6100 0c46      	bsrw 21c6 <LAB_279B>
    1582:	6100 0164      	bsrw 16e8 <LAB_EVIR>
    1586:	4a02           	tstb %d2
    1588:	4e75           	rts

0000158a <LAB_CASC>:
    158a:	0c00 0061      	cmpib #97,%d0
    158e:	6410           	bccs 15a0 <LAB_1D83>

00001590 <LAB_CAUC>:
    1590:	0c00 0041      	cmpib #65,%d0
    1594:	6404           	bccs 159a <LAB_1D8A>
    1596:	8040           	orw %d0,%d0
    1598:	4e75           	rts

0000159a <LAB_1D8A>:
    159a:	0c00 005b      	cmpib #91,%d0
    159e:	4e75           	rts

000015a0 <LAB_1D83>:
    15a0:	0c00 007b      	cmpib #123,%d0
    15a4:	4e75           	rts

000015a6 <LAB_SVAR>:
    15a6:	6102           	bsrs 15aa <LAB_GVAR>

000015a8 <LAB_FVAR>:
    15a8:	4e75           	rts

000015aa <LAB_GVAR>:
    15aa:	7200           	moveq #0,%d1
    15ac:	6100 fde6      	bsrw 1394 <LAB_GBYT>

000015b0 <LAB_1D10>:
    15b0:	1741 0000      	moveb %d1,%a3@(0)

000015b4 <LAB_1D12>:
    15b4:	61d4           	bsrs 158a <LAB_CASC>
    15b6:	6400 f192      	bccw 74a <LAB_SNER>
    15ba:	7200           	moveq #0,%d1
    15bc:	41eb 0000      	lea %a3@(0),%a0
    15c0:	2081           	movel %d1,%a0@
    15c2:	1741 0000      	moveb %d1,%a3@(0)

000015c6 <LAB_1D2D>:
    15c6:	0c41 0004      	cmpiw #4,%d1
    15ca:	6406           	bccs 15d2 <LAB_1D2E>
    15cc:	1180 1000      	moveb %d0,%a0@(0000000000000000,%d1:w)
    15d0:	5241           	addqw #1,%d1

000015d2 <LAB_1D2E>:
    15d2:	6100 fdbe      	bsrw 1392 <LAB_IGBY>
    15d6:	65ee           	bcss 15c6 <LAB_1D2D>
    15d8:	61b0           	bsrs 158a <LAB_CASC>
    15da:	65ea           	bcss 15c6 <LAB_1D2D>
    15dc:	0c00 0024      	cmpib #36,%d0
    15e0:	660c           	bnes 15ee <LAB_1D44>
    15e2:	002b 0080 0000 	orib #-128,%a3@(0)
    15e8:	6100 fda8      	bsrw 1392 <LAB_IGBY>
    15ec:	6010           	bras 15fe <LAB_1D45>

000015ee <LAB_1D44>:
    15ee:	0c00 0026      	cmpib #38,%d0
    15f2:	660a           	bnes 15fe <LAB_1D45>
    15f4:	002b 0080 0000 	orib #-128,%a3@(0)
    15fa:	6100 fd96      	bsrw 1392 <LAB_IGBY>

000015fe <LAB_1D45>:
    15fe:	4a2b 0000      	tstb %a3@(0)
    1602:	670e           	beqs 1612 <LAB_1D48>
    1604:	6a14           	bpls 161a <LAB_1D49>
    1606:	202b 0000      	movel %a3@(0),%d0
    160a:	7208           	moveq #8,%d1
    160c:	41eb 0000      	lea %a3@(0),%a0
    1610:	601e           	bras 1630 <LAB_1D4B>

00001612 <LAB_1D48>:
    1612:	0400 0028      	subib #40,%d0
    1616:	6700 00f6      	beqw 170e <LAB_1E17>

0000161a <LAB_1D49>:
    161a:	202b 0000      	movel %a3@(0),%d0

0000161e <LAB_1D4A>:
    161e:	7204           	moveq #4,%d1
    1620:	41eb 0000      	lea %a3@(0),%a0
    1624:	0800 0017      	btst #23,%d0
    1628:	6706           	beqs 1630 <LAB_1D4B>
    162a:	5441           	addqw #2,%d1
    162c:	d0fc 0004      	addaw #4,%a0

00001630 <LAB_1D4B>:
    1630:	2268 0004      	moveal %a0@(4),%a1
    1634:	2050           	moveal %a0@,%a0
    1636:	6006           	bras 163e <LAB_1D5E>

00001638 <LAB_1D5D>:
    1638:	b098           	cmpl %a0@+,%d0
    163a:	6776           	beqs 16b2 <LAB_1DD7>
    163c:	d1c1           	addal %d1,%a0

0000163e <LAB_1D5E>:
    163e:	b1c9           	cmpal %a1,%a0
    1640:	66f6           	bnes 1638 <LAB_1D5D>
    1642:	4a2b 0000      	tstb %a3@(0)
    1646:	660a           	bnes 1652 <LAB_1D94>
    1648:	45fa ff5e      	lea %pc@(15a8 <LAB_FVAR>),%a2
    164c:	b5d7           	cmpal %sp@,%a2
    164e:	6600 f0b6      	bnew 706 <LAB_UVER>

00001652 <LAB_1D94>:
    1652:	082b 0000 0000 	btst #0,%a3@(0)
    1658:	6600 f0b4      	bnew 70e <LAB_UFER>

0000165c <LAB_1D98>:
    165c:	246b 0000      	moveal %a3@(0),%a2
    1660:	240a           	movel %a2,%d2
    1662:	9489           	subl %a1,%d2
    1664:	204a           	moveal %a2,%a0
    1666:	5881           	addql #4,%d1
    1668:	d5c1           	addal %d1,%a2
    166a:	274a 0000      	movel %a2,%a3@(0)
    166e:	e28a           	lsrl #1,%d2
    1670:	6712           	beqs 1684 <LAB_1DAF>
    1672:	5382           	subql #1,%d2
    1674:	4842           	swap %d2

00001676 <LAB_1DAC>:
    1676:	4842           	swap %d2

00001678 <LAB_1DAE>:
    1678:	3520           	movew %a0@-,%a2@-
    167a:	51ca fffc      	dbf %d2,1678 <LAB_1DAE>
    167e:	4842           	swap %d2
    1680:	51ca fff4      	dbf %d2,1676 <LAB_1DAC>

00001684 <LAB_1DAF>:
    1684:	4a2b 0000      	tstb %a3@(0)
    1688:	6b08           	bmis 1692 <LAB_1DB0>
    168a:	0800 0017      	btst #23,%d0
    168e:	660a           	bnes 169a <LAB_1DB2>
    1690:	6004           	bras 1696 <LAB_1DB1>

00001692 <LAB_1DB0>:
    1692:	d3ab 0000      	addl %d1,%a3@(0)

00001696 <LAB_1DB1>:
    1696:	d3ab 0000      	addl %d1,%a3@(0)

0000169a <LAB_1DB2>:
    169a:	d3ab 0000      	addl %d1,%a3@(0)
    169e:	20c0           	movel %d0,%a0@+
    16a0:	20bc 0000 0000 	movel #0,%a0@
    16a6:	0800 0017      	btst #23,%d0
    16aa:	6706           	beqs 16b2 <LAB_1DD7>
    16ac:	317c 0000 0004 	movew #0,%a0@(4)

000016b2 <LAB_1DD7>:
    16b2:	2200           	movel %d0,%d1
    16b4:	d281           	addl %d1,%d1
    16b6:	4841           	swap %d1
    16b8:	e219           	rorb #1,%d1
    16ba:	e249           	lsrw #1,%d1
    16bc:	0201 00c0      	andib #-64,%d1
    16c0:	1741 0000      	moveb %d1,%a3@(0)
    16c4:	177c 0000 0000 	moveb #0,%a3@(0)
    16ca:	4e75           	rts

000016cc <LAB_1DE6>:
    16cc:	7005           	moveq #5,%d0
    16ce:	d02b 0000      	addb %a3@(0),%d0
    16d2:	d080           	addl %d0,%d0
    16d4:	d088           	addl %a0,%d0
    16d6:	4e75           	rts

000016d8 <LAB_EVIN>:
    16d8:	6100 fcb8      	bsrw 1392 <LAB_IGBY>
    16dc:	6100 fb38      	bsrw 1216 <LAB_EVNM>

000016e0 <LAB_EVPI>:
    16e0:	4a2b 0000      	tstb %a3@(0)
    16e4:	6b00 f058      	bmiw 73e <LAB_FCER>

000016e8 <LAB_EVIR>:
    16e8:	0c2b 00a0 0000 	cmpib #-96,%a3@(0)
    16ee:	6500 0b6e      	bcsw 225e <LAB_2831>
    16f2:	6600 f04a      	bnew 73e <LAB_FCER>
    16f6:	4a2b 0000      	tstb %a3@(0)
    16fa:	6a00 0b62      	bplw 225e <LAB_2831>
    16fe:	202b 0000      	movel %a3@(0),%d0
    1702:	4480           	negl %d0
    1704:	6800 f038      	bvcw 73e <LAB_FCER>
    1708:	2740 0000      	movel %d0,%a3@(0)
    170c:	4e75           	rts

0000170e <LAB_1E17>:
    170e:	3f2b 0000      	movew %a3@(0),%sp@-
    1712:	7200           	moveq #0,%d1

00001714 <LAB_1E1F>:
    1714:	3f01           	movew %d1,%sp@-
    1716:	2f2b 0000      	movel %a3@(0),%sp@-
    171a:	61bc           	bsrs 16d8 <LAB_EVIN>
    171c:	4840           	swap %d0
    171e:	4a40           	tstw %d0
    1720:	6600 f00c      	bnew 72e <LAB_ABER>
    1724:	275f 0000      	movel %sp@+,%a3@(0)
    1728:	321f           	movew %sp@+,%d1
    172a:	301f           	movew %sp@+,%d0
    172c:	3f2b 0000      	movew %a3@(0),%sp@-
    1730:	3f00           	movew %d0,%sp@-
    1732:	5241           	addqw #1,%d1
    1734:	6100 fc5e      	bsrw 1394 <LAB_GBYT>
    1738:	0c00 002c      	cmpib #44,%d0
    173c:	67d6           	beqs 1714 <LAB_1E1F>
    173e:	1741 0000      	moveb %d1,%a3@(0)
    1742:	6100 fc3c      	bsrw 1380 <LAB_1BFB>
    1746:	375f 0000      	movew %sp@+,%a3@(0)
    174a:	206b 0000      	moveal %a3@(0),%a0

0000174e <LAB_1E5C>:
    174e:	2748 0000      	movel %a0,%a3@(0)
    1752:	b1eb 0000      	cmpal %a3@(0),%a0
    1756:	672e           	beqs 1786 <LAB_1EA1>
    1758:	2010           	movel %a0@,%d0
    175a:	b0ab 0000      	cmpl %a3@(0),%d0
    175e:	670a           	beqs 176a <LAB_1E8D>
    1760:	2068 0004      	moveal %a0@(4),%a0
    1764:	d1eb 0000      	addal %a3@(0),%a0
    1768:	60e4           	bras 174e <LAB_1E5C>

0000176a <LAB_1E8D>:
    176a:	4a2b 0000      	tstb %a3@(0)
    176e:	6600 efba      	bnew 72a <LAB_DDER>
    1772:	6100 ff58      	bsrw 16cc <LAB_1DE6>
    1776:	5048           	addqw #8,%a0
    1778:	3018           	movew %a0@+,%d0
    177a:	b02b 0000      	cmpb %a3@(0),%d0
    177e:	6700 0094      	beqw 1814 <LAB_1F28>
    1782:	6000 ef7a      	braw 6fe <LAB_WDER>

00001786 <LAB_1EA1>:
    1786:	4a2b 0000      	tstb %a3@(0)
    178a:	6700 ef76      	beqw 702 <LAB_UDER>
    178e:	6100 ff3c      	bsrw 16cc <LAB_1DE6>
    1792:	202b 0000      	movel %a3@(0),%d0
    1796:	20c0           	movel %d0,%a0@+
    1798:	7204           	moveq #4,%d1
    179a:	0800 0017      	btst #23,%d0
    179e:	6702           	beqs 17a2 <LAB_1EDF>
    17a0:	7206           	moveq #6,%d1

000017a2 <LAB_1EDF>:
    17a2:	2741 0000      	movel %d1,%a3@(0)
    17a6:	122b 0000      	moveb %a3@(0),%d1
    17aa:	5848           	addqw #4,%a0
    17ac:	30c1           	movew %d1,%a0@+

000017ae <LAB_1EC0>:
    17ae:	321f           	movew %sp@+,%d1
    17b0:	30c1           	movew %d1,%a0@+
    17b2:	6100 00ae      	bsrw 1862 <LAB_1F7C>
    17b6:	2740 0000      	movel %d0,%a3@(0)
    17ba:	532b 0000      	subqb #1,%a3@(0)
    17be:	66ee           	bnes 17ae <LAB_1EC0>
    17c0:	d1eb 0000      	addal %a3@(0),%a0
    17c4:	6500 ef70      	bcsw 736 <LAB_OMER>
    17c8:	b1eb 0000      	cmpal %a3@(0),%a0
    17cc:	650c           	bcss 17da <LAB_1ED6>
    17ce:	6100 0296      	bsrw 1a66 <LAB_GARB>
    17d2:	b1eb 0000      	cmpal %a3@(0),%a0
    17d6:	6400 ef5e      	bccw 736 <LAB_OMER>

000017da <LAB_1ED6>:
    17da:	2748 0000      	movel %a0,%a3@(0)
    17de:	7000           	moveq #0,%d0
    17e0:	222b 0000      	movel %a3@(0),%d1
    17e4:	e289           	lsrl #1,%d1
    17e6:	5341           	subqw #1,%d1

000017e8 <LAB_1ED8>:
    17e8:	3100           	movew %d0,%a0@-
    17ea:	51c9 fffc      	dbf %d1,17e8 <LAB_1ED8>
    17ee:	4841           	swap %d1
    17f0:	4a41           	tstw %d1
    17f2:	6706           	beqs 17fa <LAB_1F07>
    17f4:	5341           	subqw #1,%d1
    17f6:	4841           	swap %d1
    17f8:	60ee           	bras 17e8 <LAB_1ED8>

000017fa <LAB_1F07>:
    17fa:	206b 0000      	moveal %a3@(0),%a0
    17fe:	202b 0000      	movel %a3@(0),%d0
    1802:	9088           	subl %a0,%d0
    1804:	2140 0004      	movel %d0,%a0@(4)
    1808:	4a2b 0000      	tstb %a3@(0)
    180c:	6652           	bnes 1860 <RTS_011>
    180e:	5048           	addqw #8,%a0
    1810:	3758 0000      	movew %a0@+,%a3@(0)

00001814 <LAB_1F28>:
    1814:	7000           	moveq #0,%d0
    1816:	2740 0000      	movel %d0,%a3@(0)

0000181a <LAB_1F2C>:
    181a:	3218           	movew %a0@+,%d1
    181c:	b257           	cmpw %sp@,%d1
    181e:	6500 ef0e      	bcsw 72e <LAB_ABER>
    1822:	4a80           	tstl %d0
    1824:	6702           	beqs 1828 <LAB_1F5A>
    1826:	613a           	bsrs 1862 <LAB_1F7C>

00001828 <LAB_1F5A>:
    1828:	7200           	moveq #0,%d1
    182a:	321f           	movew %sp@+,%d1
    182c:	d081           	addl %d1,%d0
    182e:	2740 0000      	movel %d0,%a3@(0)
    1832:	532b 0000      	subqb #1,%a3@(0)
    1836:	66e2           	bnes 181a <LAB_1F2C>
    1838:	177c 0000 0000 	moveb #0,%a3@(0)
    183e:	7203           	moveq #3,%d1
    1840:	4a2b 0000      	tstb %a3@(0)
    1844:	6a0a           	bpls 1850 <LAB_1F6A>
    1846:	7205           	moveq #5,%d1
    1848:	177c 0080 0000 	moveb #-128,%a3@(0)
    184e:	600c           	bras 185c <LAB_1F6B>

00001850 <LAB_1F6A>:
    1850:	4a2b 0000      	tstb %a3@(0)
    1854:	6a06           	bpls 185c <LAB_1F6B>
    1856:	177c 0040 0000 	moveb #64,%a3@(0)

0000185c <LAB_1F6B>:
    185c:	6104           	bsrs 1862 <LAB_1F7C>
    185e:	d1c0           	addal %d0,%a0

00001860 <RTS_011>:
    1860:	4e75           	rts

00001862 <LAB_1F7C>:
    1862:	202b 0000      	movel %a3@(0),%d0
    1866:	2400           	movel %d0,%d2
    1868:	4842           	swap %d2
    186a:	c0c1           	muluw %d1,%d0
    186c:	c4c1           	muluw %d1,%d2
    186e:	4842           	swap %d2
    1870:	4a42           	tstw %d2
    1872:	6600 eec2      	bnew 736 <LAB_OMER>
    1876:	d082           	addl %d2,%d0
    1878:	6500 eebc      	bcsw 736 <LAB_OMER>
    187c:	d0ab 0000      	addl %a3@(0),%d0
    1880:	6500 eeb4      	bcsw 736 <LAB_OMER>
    1884:	4e75           	rts

00001886 <LAB_FRE>:
    1886:	4a2b 0000      	tstb %a3@(0)
    188a:	6a04           	bpls 1890 <LAB_1FB4>
    188c:	6100 0320      	bsrw 1bae <LAB_22B6>

00001890 <LAB_1FB4>:
    1890:	6100 01d4      	bsrw 1a66 <LAB_GARB>
    1894:	202b 0000      	movel %a3@(0),%d0
    1898:	90ab 0000      	subl %a3@(0),%d0

0000189c <LAB_AYFC>:
    189c:	177c 0000 0000 	moveb #0,%a3@(0)
    18a2:	377c a000 0000 	movew #-24576,%a3@(0)
    18a8:	2740 0000      	movel %d0,%a3@(0)
    18ac:	6a00 064a      	bplw 1ef8 <LAB_24D0>
    18b0:	003c 0001      	orib #1,%ccr
    18b4:	6000 0642      	braw 1ef8 <LAB_24D0>

000018b8 <LAB_POS>:
    18b8:	102b 0000      	moveb %a3@(0),%d0

000018bc <LAB_1FD0>:
    18bc:	0280 0000 00ff 	andil #255,%d0
    18c2:	60d8           	bras 189c <LAB_AYFC>

000018c4 <LAB_CKRN>:
    18c4:	4a2b 0000      	tstb %a3@(0)
    18c8:	6b00 ee58      	bmiw 722 <LAB_IDER>
    18cc:	4e75           	rts

000018ce <LAB_DEF>:
    18ce:	203c ffff ffab 	movel #-85,%d0
    18d4:	6100 fab4      	bsrw 138a <LAB_SCCA>
    18d8:	177c 0080 0000 	moveb #-128,%a3@(0)
    18de:	6100 fcd4      	bsrw 15b4 <LAB_1D12>
    18e2:	2748 0000      	movel %a0,%a3@(0)
    18e6:	61dc           	bsrs 18c4 <LAB_CKRN>
    18e8:	0c1d 0028      	cmpib #40,%a5@+
    18ec:	6600 ee5c      	bnew 74a <LAB_SNER>
    18f0:	177c 007e 0000 	moveb #126,%a3@(0)
    18f6:	6100 fcae      	bsrw 15a6 <LAB_SVAR>
    18fa:	6100 fa84      	bsrw 1380 <LAB_1BFB>
    18fe:	203c ffff ffbd 	movel #-67,%d0
    1904:	6100 fa84      	bsrw 138a <LAB_SCCA>
    1908:	2f2b 0000      	movel %a3@(0),%sp@-
    190c:	2f0d           	movel %a5,%sp@-
    190e:	6100 f3f8      	bsrw d08 <LAB_DATA>
    1912:	206b 0000      	moveal %a3@(0),%a0
    1916:	209f           	movel %sp@+,%a0@
    1918:	215f 0004      	movel %sp@+,%a0@(4)
    191c:	4e75           	rts

0000191e <LAB_201E>:
    191e:	177c 0081 0000 	moveb #-127,%a3@(0)
    1924:	6100 fa6c      	bsrw 1392 <LAB_IGBY>
    1928:	6100 fc8a      	bsrw 15b4 <LAB_1D12>
    192c:	1f2b 0000      	moveb %a3@(0),%sp@-
    1930:	2f08           	movel %a0,%sp@-
    1932:	0c15 0028      	cmpib #40,%a5@
    1936:	6600 ee12      	bnew 74a <LAB_SNER>
    193a:	6100 fa40      	bsrw 137c <LAB_1BF7>
    193e:	205f           	moveal %sp@+,%a0
    1940:	2748 0000      	movel %a0,%a3@(0)
    1944:	1f2b 0000      	moveb %a3@(0),%sp@-
    1948:	2028 0004      	movel %a0@(4),%d0
    194c:	6100 fcd0      	bsrw 161e <LAB_1D4A>
    1950:	101f           	moveb %sp@+,%d0
    1952:	e318           	rolb #1,%d0
    1954:	6100 f8c4      	bsrw 121a <LAB_CKTM>
    1958:	6712           	beqs 196c <LAB_2043>
    195a:	43eb 0000      	lea %a3@(0),%a1
    195e:	b9c9           	cmpal %a1,%a4
    1960:	6700 edb4      	beqw 716 <LAB_SCER>
    1964:	3928 0004      	movew %a0@(4),%a4@-
    1968:	2910           	movel %a0@,%a4@-
    196a:	6002           	bras 196e <LAB_204S>

0000196c <LAB_2043>:
    196c:	2f10           	movel %a0@,%sp@-

0000196e <LAB_204S>:
    196e:	2f08           	movel %a0,%sp@-
    1970:	1f2b 0000      	moveb %a3@(0),%sp@-
    1974:	6132           	bsrs 19a8 <LAB_2045>
    1976:	2f0d           	movel %a5,%sp@-
    1978:	206b 0000      	moveal %a3@(0),%a0
    197c:	2a50           	moveal %a0@,%a5
    197e:	6100 f8ae      	bsrw 122e <LAB_EVEX>
    1982:	6100 fa10      	bsrw 1394 <LAB_GBYT>
    1986:	6600 edc2      	bnew 74a <LAB_SNER>
    198a:	2a5f           	moveal %sp@+,%a5
    198c:	101f           	moveb %sp@+,%d0
    198e:	205f           	moveal %sp@+,%a0
    1990:	4a00           	tstb %d0
    1992:	6a08           	bpls 199c <LAB_204T>
    1994:	209c           	movel %a4@+,%a0@
    1996:	315c 0004      	movew %a4@+,%a0@(4)
    199a:	6002           	bras 199e <LAB_2044>

0000199c <LAB_204T>:
    199c:	209f           	movel %sp@+,%a0@

0000199e <LAB_2044>:
    199e:	101f           	moveb %sp@+,%d0
    19a0:	e318           	rolb #1,%d0
    19a2:	6100 f876      	bsrw 121a <LAB_CKTM>
    19a6:	4e75           	rts

000019a8 <LAB_2045>:
    19a8:	4a2b 0000      	tstb %a3@(0)
    19ac:	6a00 07f2      	bplw 21a0 <LAB_2778>
    19b0:	2448           	moveal %a0,%a2
    19b2:	6000 f4fe      	braw eb2 <LAB_17D6>

000019b6 <LAB_STRS>:
    19b6:	6100 0956      	bsrw 230e <LAB_2970>

000019ba <LAB_20AE>:
    19ba:	7422           	moveq #34,%d2
    19bc:	3602           	movew %d2,%d3

000019be <LAB_20B4>:
    19be:	7200           	moveq #0,%d1
    19c0:	5341           	subqw #1,%d1
    19c2:	2448           	moveal %a0,%a2

000019c4 <LAB_20BE>:
    19c4:	5241           	addqw #1,%d1
    19c6:	1030 1000      	moveb %a0@(0000000000000000,%d1:w),%d0
    19ca:	6710           	beqs 19dc <LAB_20D0>
    19cc:	b002           	cmpb %d2,%d0
    19ce:	6704           	beqs 19d4 <LAB_20CB>
    19d0:	b003           	cmpb %d3,%d0
    19d2:	66f0           	bnes 19c4 <LAB_20BE>

000019d4 <LAB_20CB>:
    19d4:	0c00 0022      	cmpib #34,%d0
    19d8:	6602           	bnes 19dc <LAB_20D0>
    19da:	524a           	addqw #1,%a2

000019dc <LAB_20D0>:
    19dc:	d5c1           	addal %d1,%a2
    19de:	b1cb           	cmpal %a3,%a0
    19e0:	651e           	bcss 1a00 <LAB_RTST>
    19e2:	b1eb 0000      	cmpal %a3@(0),%a0
    19e6:	6418           	bccs 1a00 <LAB_RTST>

000019e8 <LAB_20C9>:
    19e8:	2248           	moveal %a0,%a1
    19ea:	2001           	movel %d1,%d0
    19ec:	6604           	bnes 19f2 <LAB_20D8>
    19ee:	2041           	moveal %d1,%a0
    19f0:	600e           	bras 1a00 <LAB_RTST>

000019f2 <LAB_20D8>:
    19f2:	6126           	bsrs 1a1a <LAB_2115>
    19f4:	d1c1           	addal %d1,%a0
    19f6:	d3c1           	addal %d1,%a1
    19f8:	5340           	subqw #1,%d0

000019fa <LAB_20E0>:
    19fa:	1121           	moveb %a1@-,%a0@-
    19fc:	51c8 fffc      	dbf %d0,19fa <LAB_20E0>

00001a00 <LAB_RTST>:
    1a00:	43eb 0000      	lea %a3@(0),%a1
    1a04:	b9c9           	cmpal %a1,%a4
    1a06:	6700 ed0e      	beqw 716 <LAB_SCER>
    1a0a:	3901           	movew %d1,%a4@-
    1a0c:	2908           	movel %a0,%a4@-
    1a0e:	274c 0000      	movel %a4,%a3@(0)
    1a12:	177c 0080 0000 	moveb #-128,%a3@(0)
    1a18:	4e75           	rts

00001a1a <LAB_2115>:
    1a1a:	4a41           	tstw %d1
    1a1c:	672e           	beqs 1a4c <LAB_2128>
    1a1e:	2f00           	movel %d0,%sp@-
    1a20:	7000           	moveq #0,%d0
    1a22:	1740 0000      	moveb %d0,%a3@(0)
    1a26:	7001           	moveq #1,%d0
    1a28:	c041           	andw %d1,%d0
    1a2a:	d041           	addw %d1,%d0
    1a2c:	6404           	bccs 1a32 <LAB_2117>
    1a2e:	7001           	moveq #1,%d0
    1a30:	4840           	swap %d0

00001a32 <LAB_2117>:
    1a32:	206b 0000      	moveal %a3@(0),%a0
    1a36:	91c0           	subal %d0,%a0
    1a38:	b1eb 0000      	cmpal %a3@(0),%a0
    1a3c:	6512           	bcss 1a50 <LAB_2137>
    1a3e:	2748 0000      	movel %a0,%a3@(0)
    1a42:	2748 0000      	movel %a0,%a3@(0)
    1a46:	201f           	movel %sp@+,%d0
    1a48:	4a41           	tstw %d1
    1a4a:	4e75           	rts

00001a4c <LAB_2128>:
    1a4c:	3041           	moveaw %d1,%a0
    1a4e:	4e75           	rts

00001a50 <LAB_2137>:
    1a50:	4a2b 0000      	tstb %a3@(0)
    1a54:	6b00 ece0      	bmiw 736 <LAB_OMER>
    1a58:	2f09           	movel %a1,%sp@-
    1a5a:	610a           	bsrs 1a66 <LAB_GARB>
    1a5c:	225f           	moveal %sp@+,%a1
    1a5e:	177c 0080 0000 	moveb #-128,%a3@(0)
    1a64:	60cc           	bras 1a32 <LAB_2117>

00001a66 <LAB_GARB>:
    1a66:	48e7 e0e0      	moveml %d0-%d2/%a0-%a2,%sp@-
    1a6a:	276b 0000 0000 	movel %a3@(0),%a3@(0)

00001a70 <LAB_214B>:
    1a70:	222b 0000      	movel %a3@(0),%d1
    1a74:	7000           	moveq #0,%d0
    1a76:	2240           	moveal %d0,%a1
    1a78:	206b 0000      	moveal %a3@(0),%a0
    1a7c:	41e8 0004      	lea %a0@(4),%a0
    1a80:	246b 0000      	moveal %a3@(0),%a2
    1a84:	6008           	bras 1a8e <LAB_2176>

00001a86 <LAB_2161>:
    1a86:	6100 0084      	bsrw 1b0c <LAB_2206>
    1a8a:	41e8 000a      	lea %a0@(10),%a0

00001a8e <LAB_2176>:
    1a8e:	b1ca           	cmpal %a2,%a0
    1a90:	65f4           	bcss 1a86 <LAB_2161>
    1a92:	41e8 fffc      	lea %a0@(-4),%a0
    1a96:	246b 0000      	moveal %a3@(0),%a2
    1a9a:	6024           	bras 1ac0 <LAB_218F>

00001a9c <LAB_217E>:
    1a9c:	2428 0004      	movel %a0@(4),%d2
    1aa0:	d488           	addl %a0,%d2
    1aa2:	2010           	movel %a0@,%d0
    1aa4:	0800 0017      	btst #23,%d0
    1aa8:	6714           	beqs 1abe <LAB_218B>
    1aaa:	3028 0008      	movew %a0@(8),%d0
    1aae:	d040           	addw %d0,%d0
    1ab0:	d0c0           	addaw %d0,%a0
    1ab2:	41e8 000a      	lea %a0@(10),%a0

00001ab6 <LAB_2183>:
    1ab6:	6154           	bsrs 1b0c <LAB_2206>
    1ab8:	5c48           	addqw #6,%a0
    1aba:	b1c2           	cmpal %d2,%a0
    1abc:	66f8           	bnes 1ab6 <LAB_2183>

00001abe <LAB_218B>:
    1abe:	2042           	moveal %d2,%a0

00001ac0 <LAB_218F>:
    1ac0:	b5c8           	cmpal %a0,%a2
    1ac2:	66d8           	bnes 1a9c <LAB_217E>
    1ac4:	204c           	moveal %a4,%a0
    1ac6:	45eb 0000      	lea %a3@(0),%a2
    1aca:	6006           	bras 1ad2 <LAB_21C4>

00001acc <LAB_21C2>:
    1acc:	613e           	bsrs 1b0c <LAB_2206>
    1ace:	41e8 0006      	lea %a0@(6),%a0

00001ad2 <LAB_21C4>:
    1ad2:	b5c8           	cmpal %a0,%a2
    1ad4:	66f6           	bnes 1acc <LAB_21C2>
    1ad6:	2009           	movel %a1,%d0
    1ad8:	672c           	beqs 1b06 <LAB_21D1>
    1ada:	2051           	moveal %a1@,%a0
    1adc:	7200           	moveq #0,%d1
    1ade:	3229 0004      	movew %a1@(4),%d1
    1ae2:	5281           	addql #1,%d1
    1ae4:	0201 00fe      	andib #-2,%d1
    1ae8:	d1c1           	addal %d1,%a0
    1aea:	246b 0000      	moveal %a3@(0),%a2
    1aee:	b1ca           	cmpal %a2,%a0
    1af0:	670c           	beqs 1afe <LAB_2240>
    1af2:	e289           	lsrl #1,%d1
    1af4:	5341           	subqw #1,%d1

00001af6 <LAB_2216>:
    1af6:	3520           	movew %a0@-,%a2@-
    1af8:	51c9 fffc      	dbf %d1,1af6 <LAB_2216>
    1afc:	228a           	movel %a2,%a1@

00001afe <LAB_2240>:
    1afe:	2751 0000      	movel %a1@,%a3@(0)
    1b02:	6000 ff6c      	braw 1a70 <LAB_214B>

00001b06 <LAB_21D1>:
    1b06:	4cdf 0707      	moveml %sp@+,%d0-%d2/%a0-%a2
    1b0a:	4e75           	rts

00001b0c <LAB_2206>:
    1b0c:	2010           	movel %a0@,%d0
    1b0e:	6728           	beqs 1b38 <RTS_012>
    1b10:	b280           	cmpl %d0,%d1
    1b12:	6424           	bccs 1b38 <RTS_012>
    1b14:	b0ab 0000      	cmpl %a3@(0),%d0
    1b18:	641e           	bccs 1b38 <RTS_012>
    1b1a:	70ff           	moveq #-1,%d0
    1b1c:	3028 0004      	movew %a0@(4),%d0
    1b20:	4440           	negw %d0
    1b22:	0200 00fe      	andib #-2,%d0
    1b26:	d0ab 0000      	addl %a3@(0),%d0
    1b2a:	b090           	cmpl %a0@,%d0
    1b2c:	6706           	beqs 1b34 <LAB_2212>
    1b2e:	2210           	movel %a0@,%d1
    1b30:	2248           	moveal %a0,%a1
    1b32:	4e75           	rts

00001b34 <LAB_2212>:
    1b34:	2740 0000      	movel %d0,%a3@(0)

00001b38 <RTS_012>:
    1b38:	4e75           	rts

00001b3a <LAB_224D>:
    1b3a:	487a f724      	pea %pc@(1260 <LAB_1ADB>)
    1b3e:	2f2b 0000      	movel %a3@(0),%sp@-
    1b42:	6100 f7fc      	bsrw 1340 <LAB_GVAL>
    1b46:	4a2b 0000      	tstb %a3@(0)
    1b4a:	6a00 ebd2      	bplw 71e <LAB_TMER>
    1b4e:	205f           	moveal %sp@+,%a0

00001b50 <LAB_224E>:
    1b50:	226b 0000      	moveal %a3@(0),%a1
    1b54:	3228 0004      	movew %a0@(4),%d1
    1b58:	d269 0004      	addw %a1@(4),%d1
    1b5c:	6500 ebbc      	bcsw 71a <LAB_SLER>
    1b60:	2f08           	movel %a0,%sp@-
    1b62:	6100 feb6      	bsrw 1a1a <LAB_2115>
    1b66:	2748 0000      	movel %a0,%a3@(0)
    1b6a:	2057           	moveal %sp@,%a0
    1b6c:	3028 0004      	movew %a0@(4),%d0
    1b70:	2050           	moveal %a0@,%a0
    1b72:	6120           	bsrs 1b94 <LAB_229E>
    1b74:	206b 0000      	moveal %a3@(0),%a0
    1b78:	6138           	bsrs 1bb2 <LAB_22BA>
    1b7a:	6118           	bsrs 1b94 <LAB_229E>
    1b7c:	205f           	moveal %sp@+,%a0
    1b7e:	6132           	bsrs 1bb2 <LAB_22BA>
    1b80:	206b 0000      	moveal %a3@(0),%a0
    1b84:	2208           	movel %a0,%d1
    1b86:	6700 fe78      	beqw 1a00 <LAB_RTST>
    1b8a:	4481           	negl %d1
    1b8c:	d2ab 0000      	addl %a3@(0),%d1
    1b90:	6000 fe6e      	braw 1a00 <LAB_RTST>

00001b94 <LAB_229E>:
    1b94:	3200           	movew %d0,%d1
    1b96:	6714           	beqs 1bac <RTS_013>
    1b98:	226b 0000      	moveal %a3@(0),%a1
    1b9c:	2f09           	movel %a1,%sp@-
    1b9e:	5340           	subqw #1,%d0

00001ba0 <LAB_22A0>:
    1ba0:	12d8           	moveb %a0@+,%a1@+
    1ba2:	51c8 fffc      	dbf %d0,1ba0 <LAB_22A0>
    1ba6:	2749 0000      	movel %a1,%a3@(0)
    1baa:	205f           	moveal %sp@+,%a0

00001bac <RTS_013>:
    1bac:	4e75           	rts

00001bae <LAB_22B6>:
    1bae:	206b 0000      	moveal %a3@(0),%a0

00001bb2 <LAB_22BA>:
    1bb2:	48e7 4040      	moveml %d1/%a1,%sp@-
    1bb6:	b9c8           	cmpal %a0,%a4
    1bb8:	6602           	bnes 1bbc <LAB_22BD>
    1bba:	5c4c           	addqw #6,%a4

00001bbc <LAB_22BD>:
    1bbc:	7000           	moveq #0,%d0
    1bbe:	2258           	moveal %a0@+,%a1
    1bc0:	3018           	movew %a0@+,%d0
    1bc2:	b9c8           	cmpal %a0,%a4
    1bc4:	6610           	bnes 1bd6 <LAB_22E6>
    1bc6:	b3eb 0000      	cmpal %a3@(0),%a1
    1bca:	660a           	bnes 1bd6 <LAB_22E6>
    1bcc:	7201           	moveq #1,%d1
    1bce:	c240           	andw %d0,%d1
    1bd0:	d280           	addl %d0,%d1
    1bd2:	d3ab 0000      	addl %d1,%a3@(0)

00001bd6 <LAB_22E6>:
    1bd6:	2049           	moveal %a1,%a0
    1bd8:	4cdf 0202      	moveml %sp@+,%d1/%a1
    1bdc:	4a80           	tstl %d0
    1bde:	4e75           	rts

00001be0 <LAB_CHRS>:
    1be0:	6100 0130      	bsrw 1d12 <LAB_EVBY>

00001be4 <LAB_MKCHR>:
    1be4:	7201           	moveq #1,%d1
    1be6:	6100 fe32      	bsrw 1a1a <LAB_2115>
    1bea:	1080           	moveb %d0,%a0@
    1bec:	6000 fe12      	braw 1a00 <LAB_RTST>

00001bf0 <LAB_LEFT>:
    1bf0:	c141           	exg %d0,%d1
    1bf2:	6100 f78c      	bsrw 1380 <LAB_1BFB>
    1bf6:	4a81           	tstl %d1
    1bf8:	6722           	beqs 1c1c <LAB_231C>
    1bfa:	7000           	moveq #0,%d0
    1bfc:	b268 0004      	cmpw %a0@(4),%d1
    1c00:	651a           	bcss 1c1c <LAB_231C>
    1c02:	6014           	bras 1c18 <LAB_2317>

00001c04 <LAB_RIGHT>:
    1c04:	c141           	exg %d0,%d1
    1c06:	6100 f778      	bsrw 1380 <LAB_1BFB>
    1c0a:	4a81           	tstl %d1
    1c0c:	670e           	beqs 1c1c <LAB_231C>
    1c0e:	3028 0004      	movew %a0@(4),%d0
    1c12:	9081           	subl %d1,%d0
    1c14:	6406           	bccs 1c1c <LAB_231C>

00001c16 <LAB_2316>:
    1c16:	7000           	moveq #0,%d0

00001c18 <LAB_2317>:
    1c18:	3228 0004      	movew %a0@(4),%d1

00001c1c <LAB_231C>:
    1c1c:	2248           	moveal %a0,%a1
    1c1e:	6100 fdfa      	bsrw 1a1a <LAB_2115>
    1c22:	2049           	moveal %a1,%a0
    1c24:	2f00           	movel %d0,%sp@-
    1c26:	618a           	bsrs 1bb2 <LAB_22BA>
    1c28:	d1df           	addal %sp@+,%a0
    1c2a:	3001           	movew %d1,%d0
    1c2c:	6100 ff66      	bsrw 1b94 <LAB_229E>
    1c30:	6000 fdce      	braw 1a00 <LAB_RTST>

00001c34 <LAB_MIDS>:
    1c34:	7e00           	moveq #0,%d7
    1c36:	5347           	subqw #1,%d7
    1c38:	2f00           	movel %d0,%sp@-
    1c3a:	6100 f758      	bsrw 1394 <LAB_GBYT>
    1c3e:	0c00 002c      	cmpib #44,%d0
    1c42:	660c           	bnes 1c50 <LAB_2358>
    1c44:	101d           	moveb %a5@+,%d0
    1c46:	2f08           	movel %a0,%sp@-
    1c48:	6100 00dc      	bsrw 1d26 <LAB_GTWO>
    1c4c:	205f           	moveal %sp@+,%a0
    1c4e:	2e00           	movel %d0,%d7

00001c50 <LAB_2358>:
    1c50:	6100 f72e      	bsrw 1380 <LAB_1BFB>
    1c54:	201f           	movel %sp@+,%d0
    1c56:	7200           	moveq #0,%d1
    1c58:	5380           	subql #1,%d0
    1c5a:	6b00 eae2      	bmiw 73e <LAB_FCER>
    1c5e:	b068 0004      	cmpw %a0@(4),%d0
    1c62:	64b8           	bccs 1c1c <LAB_231C>
    1c64:	2207           	movel %d7,%d1
    1c66:	de40           	addw %d0,%d7
    1c68:	6506           	bcss 1c70 <LAB_2368>
    1c6a:	be68 0004      	cmpw %a0@(4),%d7
    1c6e:	65ac           	bcss 1c1c <LAB_231C>

00001c70 <LAB_2368>:
    1c70:	3228 0004      	movew %a0@(4),%d1
    1c74:	9240           	subw %d0,%d1
    1c76:	60a4           	bras 1c1c <LAB_231C>

00001c78 <LAB_LCASE>:
    1c78:	6100 ff34      	bsrw 1bae <LAB_22B6>
    1c7c:	2200           	movel %d0,%d1
    1c7e:	6756           	beqs 1cd6 <NoString>
    1c80:	2248           	moveal %a0,%a1
    1c82:	6100 fd96      	bsrw 1a1a <LAB_2115>
    1c86:	d1c1           	addal %d1,%a0
    1c88:	d3c1           	addal %d1,%a1
    1c8a:	3401           	movew %d1,%d2
    1c8c:	5342           	subqw #1,%d2

00001c8e <LC_loop>:
    1c8e:	1021           	moveb %a1@-,%d0
    1c90:	0c00 005b      	cmpib #91,%d0
    1c94:	640a           	bccs 1ca0 <NoUcase>
    1c96:	0c00 0041      	cmpib #65,%d0
    1c9a:	6504           	bcss 1ca0 <NoUcase>
    1c9c:	0000 0020      	orib #32,%d0

00001ca0 <NoUcase>:
    1ca0:	1100           	moveb %d0,%a0@-
    1ca2:	51ca ffea      	dbf %d2,1c8e <LC_loop>
    1ca6:	602e           	bras 1cd6 <NoString>

00001ca8 <LAB_UCASE>:
    1ca8:	6100 ff04      	bsrw 1bae <LAB_22B6>
    1cac:	2200           	movel %d0,%d1
    1cae:	6726           	beqs 1cd6 <NoString>
    1cb0:	2248           	moveal %a0,%a1
    1cb2:	6100 fd66      	bsrw 1a1a <LAB_2115>
    1cb6:	d1c1           	addal %d1,%a0
    1cb8:	d3c1           	addal %d1,%a1
    1cba:	3401           	movew %d1,%d2
    1cbc:	5342           	subqw #1,%d2

00001cbe <UC_loop>:
    1cbe:	1021           	moveb %a1@-,%d0
    1cc0:	0c00 0061      	cmpib #97,%d0
    1cc4:	650a           	bcss 1cd0 <NoLcase>
    1cc6:	0c00 007b      	cmpib #123,%d0
    1cca:	6404           	bccs 1cd0 <NoLcase>
    1ccc:	0200 00df      	andib #-33,%d0

00001cd0 <NoLcase>:
    1cd0:	1100           	moveb %d0,%a0@-
    1cd2:	51ca ffea      	dbf %d2,1cbe <UC_loop>

00001cd6 <NoString>:
    1cd6:	6000 fd28      	braw 1a00 <LAB_RTST>

00001cda <LAB_SADD>:
    1cda:	101d           	moveb %a5@+,%d0
    1cdc:	6100 f8cc      	bsrw 15aa <LAB_GVAR>
    1ce0:	6100 f69e      	bsrw 1380 <LAB_1BFB>
    1ce4:	4a2b 0000      	tstb %a3@(0)
    1ce8:	6a00 ea34      	bplw 71e <LAB_TMER>
    1cec:	2010           	movel %a0@,%d0
    1cee:	6000 fbac      	braw 189c <LAB_AYFC>

00001cf2 <LAB_LENS>:
    1cf2:	487a fba8      	pea %pc@(189c <LAB_AYFC>)
    1cf6:	6000 feb6      	braw 1bae <LAB_22B6>

00001cfa <LAB_ASC>:
    1cfa:	6100 feb2      	bsrw 1bae <LAB_22B6>
    1cfe:	4a40           	tstw %d0
    1d00:	6700 ea3c      	beqw 73e <LAB_FCER>
    1d04:	1010           	moveb %a0@,%d0
    1d06:	6000 fbb4      	braw 18bc <LAB_1FD0>

00001d0a <LAB_SGBY>:
    1d0a:	6100 f686      	bsrw 1392 <LAB_IGBY>

00001d0e <LAB_GTBY>:
    1d0e:	6100 f506      	bsrw 1216 <LAB_EVNM>

00001d12 <LAB_EVBY>:
    1d12:	6100 f9cc      	bsrw 16e0 <LAB_EVPI>
    1d16:	223c 0000 0080 	movel #128,%d1
    1d1c:	d281           	addl %d1,%d1
    1d1e:	c280           	andl %d0,%d1
    1d20:	6600 ea1c      	bnew 73e <LAB_FCER>
    1d24:	4e75           	rts

00001d26 <LAB_GTWO>:
    1d26:	6100 f4ee      	bsrw 1216 <LAB_EVNM>
    1d2a:	6100 f9b4      	bsrw 16e0 <LAB_EVPI>
    1d2e:	4840           	swap %d0
    1d30:	4a40           	tstw %d0
    1d32:	6600 ea0a      	bnew 73e <LAB_FCER>
    1d36:	4840           	swap %d0
    1d38:	4e75           	rts

00001d3a <LAB_VAL>:
    1d3a:	6100 fe72      	bsrw 1bae <LAB_22B6>
    1d3e:	6722           	beqs 1d62 <LAB_VALZ>
    1d40:	2c4d           	moveal %a5,%fp
    1d42:	2a48           	moveal %a0,%a5
    1d44:	d1c0           	addal %d0,%a0
    1d46:	1010           	moveb %a0@,%d0
    1d48:	3f00           	movew %d0,%sp@-
    1d4a:	2f08           	movel %a0,%sp@-
    1d4c:	10bc 0000      	moveb #0,%a0@
    1d50:	6100 f642      	bsrw 1394 <LAB_GBYT>
    1d54:	6100 114e      	bsrw 2ea4 <LAB_2887>
    1d58:	205f           	moveal %sp@+,%a0
    1d5a:	301f           	movew %sp@+,%d0
    1d5c:	1080           	moveb %d0,%a0@
    1d5e:	2a4e           	moveal %fp,%a5
    1d60:	4e75           	rts

00001d62 <LAB_VALZ>:
    1d62:	3740 0000      	movew %d0,%a3@(0)
    1d66:	4e75           	rts

00001d68 <LAB_GADB>:
    1d68:	6100 f4ac      	bsrw 1216 <LAB_EVNM>
    1d6c:	6100 f97a      	bsrw 16e8 <LAB_EVIR>
    1d70:	2f00           	movel %d0,%sp@-
    1d72:	6100 f614      	bsrw 1388 <LAB_1C01>
    1d76:	6196           	bsrs 1d0e <LAB_GTBY>
    1d78:	205f           	moveal %sp@+,%a0
    1d7a:	4e75           	rts

00001d7c <LAB_GADW>:
    1d7c:	611e           	bsrs 1d9c <LAB_GEAD>
    1d7e:	6100 f608      	bsrw 1388 <LAB_1C01>
    1d82:	6100 f492      	bsrw 1216 <LAB_EVNM>
    1d86:	6100 f960      	bsrw 16e8 <LAB_EVIR>
    1d8a:	4840           	swap %d0
    1d8c:	4a40           	tstw %d0
    1d8e:	6706           	beqs 1d96 <LAB_XGADW>
    1d90:	5240           	addqw #1,%d0
    1d92:	6600 e9aa      	bnew 73e <LAB_FCER>

00001d96 <LAB_XGADW>:
    1d96:	4840           	swap %d0
    1d98:	205f           	moveal %sp@+,%a0
    1d9a:	4e75           	rts

00001d9c <LAB_GEAD>:
    1d9c:	6100 f478      	bsrw 1216 <LAB_EVNM>
    1da0:	6100 f946      	bsrw 16e8 <LAB_EVIR>
    1da4:	0800 0000      	btst #0,%d0
    1da8:	6600 e950      	bnew 6fa <LAB_ADER>
    1dac:	2057           	moveal %sp@,%a0
    1dae:	2e80           	movel %d0,%sp@
    1db0:	4ed0           	jmp %a0@

00001db2 <LAB_PEEK>:
    1db2:	6100 f934      	bsrw 16e8 <LAB_EVIR>
    1db6:	2040           	moveal %d0,%a0
    1db8:	1010           	moveb %a0@,%d0
    1dba:	6000 fb00      	braw 18bc <LAB_1FD0>

00001dbe <LAB_POKE>:
    1dbe:	61a8           	bsrs 1d68 <LAB_GADB>
    1dc0:	1080           	moveb %d0,%a0@
    1dc2:	4e75           	rts

00001dc4 <LAB_DEEK>:
    1dc4:	6100 f922      	bsrw 16e8 <LAB_EVIR>
    1dc8:	e208           	lsrb #1,%d0
    1dca:	6500 e92e      	bcsw 6fa <LAB_ADER>
    1dce:	d000           	addb %d0,%d0
    1dd0:	c188           	exg %d0,%a0
    1dd2:	7000           	moveq #0,%d0
    1dd4:	3010           	movew %a0@,%d0
    1dd6:	6000 fac4      	braw 189c <LAB_AYFC>

00001dda <LAB_LEEK>:
    1dda:	6100 f90c      	bsrw 16e8 <LAB_EVIR>
    1dde:	e208           	lsrb #1,%d0
    1de0:	6500 e918      	bcsw 6fa <LAB_ADER>
    1de4:	d000           	addb %d0,%d0
    1de6:	c188           	exg %d0,%a0
    1de8:	2010           	movel %a0@,%d0
    1dea:	6000 fab0      	braw 189c <LAB_AYFC>

00001dee <LAB_DOKE>:
    1dee:	618c           	bsrs 1d7c <LAB_GADW>
    1df0:	3080           	movew %d0,%a0@
    1df2:	4e75           	rts

00001df4 <LAB_LOKE>:
    1df4:	61a6           	bsrs 1d9c <LAB_GEAD>
    1df6:	6100 f590      	bsrw 1388 <LAB_1C01>
    1dfa:	6100 f41a      	bsrw 1216 <LAB_EVNM>
    1dfe:	6100 f8e8      	bsrw 16e8 <LAB_EVIR>
    1e02:	205f           	moveal %sp@+,%a0
    1e04:	2080           	movel %d0,%a0@

00001e06 <RTS_015>:
    1e06:	4e75           	rts

00001e08 <LAB_SWAP>:
    1e08:	6100 f7a0      	bsrw 15aa <LAB_GVAR>
    1e0c:	2f08           	movel %a0,%sp@-
    1e0e:	182b 0000      	moveb %a3@(0),%d4
    1e12:	6100 f574      	bsrw 1388 <LAB_1C01>
    1e16:	6100 f792      	bsrw 15aa <LAB_GVAR>
    1e1a:	245f           	moveal %sp@+,%a2
    1e1c:	b82b 0000      	cmpb %a3@(0),%d4
    1e20:	6600 e8fc      	bnew 71e <LAB_TMER>
    1e24:	2010           	movel %a0@,%d0
    1e26:	20d2           	movel %a2@,%a0@+
    1e28:	24c0           	movel %d0,%a2@+
    1e2a:	4a04           	tstb %d4
    1e2c:	6ad8           	bpls 1e06 <RTS_015>
    1e2e:	3010           	movew %a0@,%d0
    1e30:	3092           	movew %a2@,%a0@
    1e32:	3480           	movew %d0,%a2@
    1e34:	4e75           	rts

00001e36 <LAB_USR>:
    1e36:	4eab 0000      	jsr %a3@(0)
    1e3a:	6000 f544      	braw 1380 <LAB_1BFB>

00001e3e <LAB_LOAD>:
    1e3e:	4eeb 0000      	jmp %a3@(0)

00001e42 <LAB_SAVE>:
    1e42:	4eeb 0000      	jmp %a3@(0)

00001e46 <LAB_CALL>:
    1e46:	487a f54c      	pea %pc@(1394 <LAB_GBYT>)
    1e4a:	6100 ff50      	bsrw 1d9c <LAB_GEAD>
    1e4e:	4e75           	rts

00001e50 <LAB_WAIT>:
    1e50:	6100 ff16      	bsrw 1d68 <LAB_GADB>
    1e54:	2f08           	movel %a0,%sp@-
    1e56:	3f00           	movew %d0,%sp@-
    1e58:	7400           	moveq #0,%d2
    1e5a:	6100 f538      	bsrw 1394 <LAB_GBYT>
    1e5e:	6706           	beqs 1e66 <LAB_2441>
    1e60:	6100 f522      	bsrw 1384 <LAB_SCGB>
    1e64:	2400           	movel %d0,%d2

00001e66 <LAB_2441>:
    1e66:	321f           	movew %sp@+,%d1
    1e68:	205f           	moveal %sp@+,%a0

00001e6a <LAB_2445>:
    1e6a:	1010           	moveb %a0@,%d0
    1e6c:	b500           	eorb %d2,%d0
    1e6e:	c001           	andb %d1,%d0
    1e70:	67f8           	beqs 1e6a <LAB_2445>
    1e72:	4e75           	rts

00001e74 <LAB_SUBTRACT>:
    1e74:	0a2b 0080 0000 	eorib #-128,%a3@(0)
    1e7a:	176b 0000 0000 	moveb %a3@(0),%a3@(0)
    1e80:	102b 0000      	moveb %a3@(0),%d0
    1e84:	b12b 0000      	eorb %d0,%a3@(0)

00001e88 <LAB_ADD>:
    1e88:	102b 0000      	moveb %a3@(0),%d0
    1e8c:	6700 0338      	beqw 21c6 <LAB_279B>
    1e90:	41eb 0000      	lea %a3@(0),%a0
    1e94:	102b 0000      	moveb %a3@(0),%d0
    1e98:	6746           	beqs 1ee0 <RTS_016>
    1e9a:	902b 0000      	subb %a3@(0),%d0
    1e9e:	6722           	beqs 1ec2 <LAB_24A8>
    1ea0:	650a           	bcss 1eac <LAB_249C>
    1ea2:	376b 0000 0000 	movew %a3@(0),%a3@(0)
    1ea8:	4400           	negb %d0
    1eaa:	5148           	subqw #8,%a0

00001eac <LAB_249C>:
    1eac:	4400           	negb %d0
    1eae:	2f01           	movel %d1,%sp@-
    1eb0:	0c00 0020      	cmpib #32,%d0
    1eb4:	6d04           	blts 1eba <LAB_2467>
    1eb6:	7200           	moveq #0,%d1
    1eb8:	6004           	bras 1ebe <LAB_2468>

00001eba <LAB_2467>:
    1eba:	2210           	movel %a0@,%d1
    1ebc:	e0a9           	lsrl %d0,%d1

00001ebe <LAB_2468>:
    1ebe:	2081           	movel %d1,%a0@
    1ec0:	221f           	movel %sp@+,%d1

00001ec2 <LAB_24A8>:
    1ec2:	4a2b 0000      	tstb %a3@(0)
    1ec6:	6b1a           	bmis 1ee2 <LAB_24F8>
    1ec8:	202b 0000      	movel %a3@(0),%d0
    1ecc:	d0ab 0000      	addl %a3@(0),%d0
    1ed0:	640a           	bccs 1edc <LAB_24F7>
    1ed2:	e290           	roxrl #1,%d0
    1ed4:	522b 0000      	addqb #1,%a3@(0)
    1ed8:	6500 e860      	bcsw 73a <LAB_OFER>

00001edc <LAB_24F7>:
    1edc:	2740 0000      	movel %d0,%a3@(0)

00001ee0 <RTS_016>:
    1ee0:	4e75           	rts

00001ee2 <LAB_24F8>:
    1ee2:	43eb 0000      	lea %a3@(0),%a1
    1ee6:	b3c8           	cmpal %a0,%a1
    1ee8:	6602           	bnes 1eec <LAB_24B4>
    1eea:	5049           	addqw #8,%a1

00001eec <LAB_24B4>:
    1eec:	2011           	movel %a1@,%d0
    1eee:	2210           	movel %a0@,%d1
    1ef0:	2740 0000      	movel %d0,%a3@(0)
    1ef4:	93ab 0000      	subl %d1,%a3@(0)

00001ef8 <LAB_24D0>:
    1ef8:	640a           	bccs 1f04 <LAB_24D5>
    1efa:	0a2b 00ff 0000 	eorib #-1,%a3@(0)
    1f00:	44ab 0000      	negl %a3@(0)

00001f04 <LAB_24D5>:
    1f04:	202b 0000      	movel %a3@(0),%d0
    1f08:	6b2e           	bmis 1f38 <LAB_24DA>
    1f0a:	6606           	bnes 1f12 <LAB_24D9>
    1f0c:	3740 0000      	movew %d0,%a3@(0)
    1f10:	4e75           	rts

00001f12 <LAB_24D9>:
    1f12:	2f01           	movel %d1,%sp@-
    1f14:	2200           	movel %d0,%d1
    1f16:	7000           	moveq #0,%d0
    1f18:	102b 0000      	moveb %a3@(0),%d0
    1f1c:	6714           	beqs 1f32 <LAB_24D8>

00001f1e <LAB_24D6>:
    1f1e:	d281           	addl %d1,%d1
    1f20:	5bc8 fffc      	dbmi %d0,1f1e <LAB_24D6>
    1f24:	4a40           	tstw %d0
    1f26:	670a           	beqs 1f32 <LAB_24D8>
    1f28:	6a02           	bpls 1f2c <LAB_24D7>
    1f2a:	7001           	moveq #1,%d0

00001f2c <LAB_24D7>:
    1f2c:	5300           	subqb #1,%d0
    1f2e:	2741 0000      	movel %d1,%a3@(0)

00001f32 <LAB_24D8>:
    1f32:	221f           	movel %sp@+,%d1
    1f34:	1740 0000      	moveb %d0,%a3@(0)

00001f38 <LAB_24DA>:
    1f38:	4e75           	rts

00001f3a <LAB_LOG>:
    1f3a:	4a2b 0000      	tstb %a3@(0)
    1f3e:	6b00 e7fe      	bmiw 73e <LAB_FCER>
    1f42:	7e00           	moveq #0,%d7
    1f44:	1747 0000      	moveb %d7,%a3@(0)
    1f48:	1e2b 0000      	moveb %a3@(0),%d7
    1f4c:	6700 e7f0      	beqw 73e <LAB_FCER>
    1f50:	0487 0000 0081 	subil #129,%d7
    1f56:	177c 0081 0000 	moveb #-127,%a3@(0)
    1f5c:	2c2b 0000      	movel %a3@(0),%d6
    1f60:	277c 8000 0000 	movel #-2147483648,%a3@(0)
    1f66:	0000 
    1f68:	377c 8100 0000 	movew #-32512,%a3@(0)
    1f6e:	6100 ff18      	bsrw 1e88 <LAB_ADD>
    1f72:	7000           	moveq #0,%d0
    1f74:	3740 0000      	movew %d0,%a3@(0)
    1f78:	dc86           	addl %d6,%d6
    1f7a:	2746 0000      	movel %d6,%a3@(0)
    1f7e:	6758           	beqs 1fd8 <LAB_LONN>
    1f80:	377c 8000 0000 	movew #-32768,%a3@(0)
    1f86:	6100 0130      	bsrw 20b8 <LAB_DIVIDE>
    1f8a:	4a2b 0000      	tstb %a3@(0)
    1f8e:	6748           	beqs 1fd8 <LAB_LONN>
    1f90:	122b 0000      	moveb %a3@(0),%d1
    1f94:	0401 0082      	subib #-126,%d1
    1f98:	4401           	negb %d1
    1f9a:	202b 0000      	movel %a3@(0),%d0
    1f9e:	e2a8           	lsrl %d1,%d0
    1fa0:	7c00           	moveq #0,%d6
    1fa2:	223c 4000 0000 	movel #1073741824,%d1
    1fa8:	41fa 140a      	lea %pc@(33b4 <TAB_HTHET>),%a0
    1fac:	7a1e           	moveq #30,%d5
    1fae:	7801           	moveq #1,%d4
    1fb0:	6006           	bras 1fb8 <LAB_LOCC>

00001fb2 <LAB_LAAD>:
    1fb2:	e8a2           	asrl %d4,%d2
    1fb4:	9282           	subl %d2,%d1
    1fb6:	dc90           	addl %a0@,%d6

00001fb8 <LAB_LOCC>:
    1fb8:	2400           	movel %d0,%d2
    1fba:	2601           	movel %d1,%d3
    1fbc:	e8a3           	asrl %d4,%d3
    1fbe:	6402           	bccs 1fc2 <LAB_LOLP>
    1fc0:	5283           	addql #1,%d3

00001fc2 <LAB_LOLP>:
    1fc2:	9083           	subl %d3,%d0
    1fc4:	6aec           	bpls 1fb2 <LAB_LAAD>
    1fc6:	2002           	movel %d2,%d0
    1fc8:	5848           	addqw #4,%a0
    1fca:	5284           	addql #1,%d4
    1fcc:	e28b           	lsrl #1,%d3
    1fce:	6704           	beqs 1fd4 <LAB_LOCX>
    1fd0:	51cd fff0      	dbf %d5,1fc2 <LAB_LOLP>

00001fd4 <LAB_LOCX>:
    1fd4:	dc86           	addl %d6,%d6
    1fd6:	2006           	movel %d6,%d0

00001fd8 <LAB_LONN>:
    1fd8:	2800           	movel %d0,%d4
    1fda:	7a00           	moveq #0,%d5
    1fdc:	4a87           	tstl %d7
    1fde:	6716           	beqs 1ff6 <LAB_LOXO>
    1fe0:	6a04           	bpls 1fe6 <LAB_LOXP>
    1fe2:	4487           	negl %d7
    1fe4:	7a80           	moveq #-128,%d5

00001fe6 <LAB_LOXP>:
    1fe6:	1745 0000      	moveb %d5,%a3@(0)
    1fea:	4847           	swap %d7
    1fec:	e18f           	lsll #8,%d7
    1fee:	7a88           	moveq #-120,%d5

00001ff0 <LAB_LONE>:
    1ff0:	5385           	subql #1,%d5
    1ff2:	de87           	addl %d7,%d7
    1ff4:	6afa           	bpls 1ff0 <LAB_LONE>

00001ff6 <LAB_LOXO>:
    1ff6:	2747 0000      	movel %d7,%a3@(0)
    1ffa:	1745 0000      	moveb %d5,%a3@(0)
    1ffe:	277c b172 17f8 	movel #-1317922824,%a3@(0)
    2004:	0000 
    2006:	377c 8000 0000 	movew #-32768,%a3@(0)
    200c:	176b 0000 0000 	moveb %a3@(0),%a3@(0)
    2012:	6118           	bsrs 202c <LAB_MULTIPLY>
    2014:	2744 0000      	movel %d4,%a3@(0)
    2018:	6710           	beqs 202a <LAB_LOWZ>
    201a:	377c 8200 0000 	movew #-32256,%a3@(0)
    2020:	176b 0000 0000 	moveb %a3@(0),%a3@(0)
    2026:	6100 fe60      	bsrw 1e88 <LAB_ADD>

0000202a <LAB_LOWZ>:
    202a:	4e75           	rts

0000202c <LAB_MULTIPLY>:
    202c:	48e7 f800      	moveml %d0-%d4,%sp@-
    2030:	4a2b 0000      	tstb %a3@(0)
    2034:	6776           	beqs 20ac <LAB_MUUF>
    2036:	102b 0000      	moveb %a3@(0),%d0
    203a:	6770           	beqs 20ac <LAB_MUUF>
    203c:	176b 0000 0000 	moveb %a3@(0),%a3@(0)
    2042:	d02b 0000      	addb %a3@(0),%d0
    2046:	640a           	bccs 2052 <LAB_MNOC>
    2048:	0400 0080      	subib #-128,%d0
    204c:	6400 e6ec      	bccw 73a <LAB_OFER>
    2050:	6006           	bras 2058 <LAB_MADD>

00002052 <LAB_MNOC>:
    2052:	0400 0080      	subib #-128,%d0
    2056:	6554           	bcss 20ac <LAB_MUUF>

00002058 <LAB_MADD>:
    2058:	1740 0000      	moveb %d0,%a3@(0)
    205c:	222b 0000      	movel %a3@(0),%d1
    2060:	242b 0000      	movel %a3@(0),%d2
    2064:	3801           	movew %d1,%d4
    2066:	2001           	movel %d1,%d0
    2068:	4840           	swap %d0
    206a:	3600           	movew %d0,%d3
    206c:	c2c2           	muluw %d2,%d1
    206e:	c0c2           	muluw %d2,%d0
    2070:	4842           	swap %d2
    2072:	c8c2           	muluw %d2,%d4
    2074:	c6c2           	muluw %d2,%d3
    2076:	0681 0000 8000 	addil #32768,%d1
    207c:	4241           	clrw %d1
    207e:	4841           	swap %d1
    2080:	d280           	addl %d0,%d1

00002082 <LAB_MUF1>:
    2082:	d284           	addl %d4,%d1
    2084:	6406           	bccs 208c <LAB_MUF2>
    2086:	0683 0001 0000 	addil #65536,%d3

0000208c <LAB_MUF2>:
    208c:	0681 0000 8000 	addil #32768,%d1
    2092:	4241           	clrw %d1
    2094:	4841           	swap %d1
    2096:	d283           	addl %d3,%d1
    2098:	6b08           	bmis 20a2 <LAB_MUF3>
    209a:	d281           	addl %d1,%d1
    209c:	532b 0000      	subqb #1,%a3@(0)
    20a0:	670a           	beqs 20ac <LAB_MUUF>

000020a2 <LAB_MUF3>:
    20a2:	2741 0000      	movel %d1,%a3@(0)

000020a6 <LAB_MUEX>:
    20a6:	4cdf 001f      	moveml %sp@+,%d0-%d4
    20aa:	4e75           	rts

000020ac <LAB_MUUF>:
    20ac:	7000           	moveq #0,%d0
    20ae:	2740 0000      	movel %d0,%a3@(0)
    20b2:	3740 0000      	movew %d0,%a3@(0)
    20b6:	60ee           	bras 20a6 <LAB_MUEX>

000020b8 <LAB_DIVIDE>:
    20b8:	2f07           	movel %d7,%sp@-
    20ba:	7000           	moveq #0,%d0
    20bc:	2400           	movel %d0,%d2
    20be:	142b 0000      	moveb %a3@(0),%d2
    20c2:	6700 e662      	beqw 726 <LAB_DZER>
    20c6:	102b 0000      	moveb %a3@(0),%d0
    20ca:	6766           	beqs 2132 <LAB_DIV0>
    20cc:	9042           	subw %d2,%d0
    20ce:	0640 0080      	addiw #128,%d0
    20d2:	176b 0000 0000 	moveb %a3@(0),%a3@(0)
    20d8:	422b 0000      	clrb %a3@(0)
    20dc:	262b 0000      	movel %a3@(0),%d3
    20e0:	282b 0000      	movel %a3@(0),%d4
    20e4:	b883           	cmpl %d3,%d4
    20e6:	6744           	beqs 212c <LAB_MAN1>
    20e8:	6506           	bcss 20f0 <AC1gtAC2>
    20ea:	9883           	subl %d3,%d4
    20ec:	562b 0000      	addqb #3,%a3@(0)

000020f0 <AC1gtAC2>:
    20f0:	6146           	bsrs 2138 <LAB_32_16>
    20f2:	4841           	swap %d1
    20f4:	2802           	movel %d2,%d4
    20f6:	6142           	bsrs 213a <LAB_3216>
    20f8:	84c5           	divuw %d5,%d2
    20fa:	1e2b 0000      	moveb %a3@(0),%d7
    20fe:	6708           	beqs 2108 <LAB_DIVX>
    2100:	e20f           	lsrb #1,%d7
    2102:	e291           	roxrl #1,%d1
    2104:	e252           	roxrw #1,%d2
    2106:	5200           	addqb #1,%d0

00002108 <LAB_DIVX>:
    2108:	d442           	addw %d2,%d2
    210a:	6408           	bccs 2114 <L_DIVRND>
    210c:	5281           	addql #1,%d1
    210e:	6404           	bccs 2114 <L_DIVRND>

00002110 <LAB_SET1>:
    2110:	e291           	roxrl #1,%d1
    2112:	5240           	addqw #1,%d0

00002114 <L_DIVRND>:
    2114:	3600           	movew %d0,%d3
    2116:	6b1a           	bmis 2132 <LAB_DIV0>
    2118:	0243 ff00      	andiw #-256,%d3
    211c:	6600 e61c      	bnew 73a <LAB_OFER>

00002120 <LAB_XDIV>:
    2120:	2e1f           	movel %sp@+,%d7
    2122:	1740 0000      	moveb %d0,%a3@(0)
    2126:	2741 0000      	movel %d1,%a3@(0)
    212a:	4e75           	rts

0000212c <LAB_MAN1>:
    212c:	7201           	moveq #1,%d1
    212e:	e2a9           	lsrl %d1,%d1
    2130:	60de           	bras 2110 <LAB_SET1>

00002132 <LAB_DIV0>:
    2132:	7000           	moveq #0,%d0
    2134:	2200           	movel %d0,%d1
    2136:	60e8           	bras 2120 <LAB_XDIV>

00002138 <LAB_32_16>:
    2138:	2404           	movel %d4,%d2

0000213a <LAB_3216>:
    213a:	2a03           	movel %d3,%d5
    213c:	4245           	clrw %d5
    213e:	4845           	swap %d5
    2140:	88c5           	divuw %d5,%d4
    2142:	6802           	bvcs 2146 <LAB_LT_1>
    2144:	78ff           	moveq #-1,%d4

00002146 <LAB_LT_1>:
    2146:	3c04           	movew %d4,%d6
    2148:	3204           	movew %d4,%d1
    214a:	ccc3           	muluw %d3,%d6
    214c:	c8c5           	muluw %d5,%d4
    214e:	3e06           	movew %d6,%d7
    2150:	4246           	clrw %d6
    2152:	4846           	swap %d6
    2154:	d886           	addl %d6,%d4
    2156:	7c00           	moveq #0,%d6
    2158:	9c47           	subw %d7,%d6
    215a:	9584           	subxl %d4,%d2
    215c:	6a08           	bpls 2166 <L_DDIV>

0000215e <LAB_REMM>:
    215e:	5341           	subqw #1,%d1
    2160:	dc43           	addw %d3,%d6
    2162:	d585           	addxl %d5,%d2
    2164:	6bf8           	bmis 215e <LAB_REMM>

00002166 <L_DDIV>:
    2166:	4842           	swap %d2
    2168:	3406           	movew %d6,%d2
    216a:	4e75           	rts

0000216c <LAB_UFAC>:
    216c:	2010           	movel %a0@,%d0
    216e:	4840           	swap %d0
    2170:	3740 0000      	movew %d0,%a3@(0)
    2174:	6708           	beqs 217e <LAB_NB1T>
    2176:	0040 0080      	oriw #128,%d0
    217a:	4840           	swap %d0
    217c:	e180           	asll #8,%d0

0000217e <LAB_NB1T>:
    217e:	2740 0000      	movel %d0,%a3@(0)
    2182:	102b 0000      	moveb %a3@(0),%d0
    2186:	4e75           	rts

00002188 <LAB_PFAC>:
    2188:	2f08           	movel %a0,%sp@-
    218a:	206b 0000      	moveal %a3@(0),%a0
    218e:	082b 0006 0000 	btst #6,%a3@(0)
    2194:	670c           	beqs 21a2 <LAB_277C>
    2196:	6100 00c6      	bsrw 225e <LAB_2831>
    219a:	2080           	movel %d0,%a0@
    219c:	205f           	moveal %sp@+,%a0
    219e:	4e75           	rts

000021a0 <LAB_2778>:
    21a0:	2f08           	movel %a0,%sp@-

000021a2 <LAB_277C>:
    21a2:	6100 fd60      	bsrw 1f04 <LAB_24D5>
    21a6:	612c           	bsrs 21d4 <LAB_27BA>
    21a8:	202b 0000      	movel %a3@(0),%d0
    21ac:	e098           	rorl #8,%d0
    21ae:	4840           	swap %d0
    21b0:	0240 007f      	andiw #127,%d0
    21b4:	022b 0080 0000 	andib #-128,%a3@(0)
    21ba:	806b 0000      	orw %a3@(0),%d0
    21be:	4840           	swap %d0
    21c0:	2080           	movel %d0,%a0@
    21c2:	205f           	moveal %sp@+,%a0
    21c4:	4e75           	rts

000021c6 <LAB_279B>:
    21c6:	376b 0000 0000 	movew %a3@(0),%a3@(0)
    21cc:	276b 0000 0000 	movel %a3@(0),%a3@(0)
    21d2:	4e75           	rts

000021d4 <LAB_27BA>:
    21d4:	102b 0000      	moveb %a3@(0),%d0
    21d8:	6720           	beqs 21fa <LAB_27C4>
    21da:	202b 0000      	movel %a3@(0),%d0
    21de:	0680 0000 0080 	addil #128,%d0
    21e4:	640a           	bccs 21f0 <LAB_27C3>
    21e6:	e290           	roxrl #1,%d0
    21e8:	522b 0000      	addqb #1,%a3@(0)
    21ec:	6500 e54c      	bcsw 73a <LAB_OFER>

000021f0 <LAB_27C3>:
    21f0:	0200 0000      	andib #0,%d0
    21f4:	2740 0000      	movel %d0,%a3@(0)
    21f8:	4e75           	rts

000021fa <LAB_27C4>:
    21fa:	1740 0000      	moveb %d0,%a3@(0)

000021fe <RTS_017>:
    21fe:	4e75           	rts

00002200 <LAB_27CA>:
    2200:	7000           	moveq #0,%d0
    2202:	102b 0000      	moveb %a3@(0),%d0
    2206:	67f6           	beqs 21fe <RTS_017>

00002208 <LAB_27CE>:
    2208:	102b 0000      	moveb %a3@(0),%d0

0000220c <LAB_27D0>:
    220c:	4880           	extw %d0
    220e:	48c0           	extl %d0
    2210:	e080           	asrl #8,%d0
    2212:	65ea           	bcss 21fe <RTS_017>
    2214:	7001           	moveq #1,%d0
    2216:	4e75           	rts

00002218 <LAB_SGN>:
    2218:	61e6           	bsrs 2200 <LAB_27CA>

0000221a <LAB_27DB>:
    221a:	2740 0000      	movel %d0,%a3@(0)
    221e:	377c a000 0000 	movew #-24576,%a3@(0)
    2224:	d080           	addl %d0,%d0
    2226:	6000 fcd0      	braw 1ef8 <LAB_24D0>

0000222a <LAB_ABS>:
    222a:	177c 0000 0000 	moveb #0,%a3@(0)
    2230:	4e75           	rts

00002232 <LAB_27FA>:
    2232:	122b 0000      	moveb %a3@(0),%d1
    2236:	67c8           	beqs 2200 <LAB_27CA>
    2238:	102b 0000      	moveb %a3@(0),%d0
    223c:	6bca           	bmis 2208 <LAB_27CE>
    223e:	102b 0000      	moveb %a3@(0),%d0
    2242:	b22b 0000      	cmpb %a3@(0),%d1
    2246:	660a           	bnes 2252 <LAB_2828>
    2248:	222b 0000      	movel %a3@(0),%d1
    224c:	b2ab 0000      	cmpl %a3@(0),%d1
    2250:	6708           	beqs 225a <LAB_282F>

00002252 <LAB_2828>:
    2252:	65b8           	bcss 220c <LAB_27D0>
    2254:	0a00 0080      	eorib #-128,%d0

00002258 <LAB_282E>:
    2258:	60b2           	bras 220c <LAB_27D0>

0000225a <LAB_282F>:
    225a:	7000           	moveq #0,%d0
    225c:	4e75           	rts

0000225e <LAB_2831>:
    225e:	202b 0000      	movel %a3@(0),%d0
    2262:	6734           	beqs 2298 <LAB_284J>
    2264:	2f01           	movel %d1,%sp@-
    2266:	223c 0000 00a0 	movel #160,%d1
    226c:	922b 0000      	subb %a3@(0),%d1
    2270:	6500 e4c8      	bcsw 73a <LAB_OFER>
    2274:	660e           	bnes 2284 <LAB_284G>
    2276:	4a2b 0000      	tstb %a3@(0)
    227a:	6a1a           	bpls 2296 <LAB_284H>
    227c:	4480           	negl %d0
    227e:	6916           	bvss 2296 <LAB_284H>
    2280:	6000 e4b8      	braw 73a <LAB_OFER>

00002284 <LAB_284G>:
    2284:	0c01 0020      	cmpib #32,%d1
    2288:	6502           	bcss 228c <LAB_284L>
    228a:	7000           	moveq #0,%d0

0000228c <LAB_284L>:
    228c:	e2a8           	lsrl %d1,%d0
    228e:	4a2b 0000      	tstb %a3@(0)
    2292:	6a02           	bpls 2296 <LAB_284H>
    2294:	4480           	negl %d0

00002296 <LAB_284H>:
    2296:	221f           	movel %sp@+,%d1

00002298 <LAB_284J>:
    2298:	2740 0000      	movel %d0,%a3@(0)
    229c:	4e75           	rts

0000229e <LAB_INT>:
    229e:	203c 0000 00a0 	movel #160,%d0
    22a4:	902b 0000      	subb %a3@(0),%d0
    22a8:	6310           	blss 22ba <LAB_IRTS>
    22aa:	0c00 0020      	cmpib #32,%d0
    22ae:	6400 025e      	bccw 250e <LAB_POZE>
    22b2:	72ff           	moveq #-1,%d1
    22b4:	e1a1           	asll %d0,%d1
    22b6:	c3ab 0000      	andl %d1,%a3@(0)

000022ba <LAB_IRTS>:
    22ba:	4e75           	rts

000022bc <LAB_2953>:
    22bc:	41fa 1814      	lea %pc@(3ad2 <LAB_LMSG>),%a0
    22c0:	6100 ed02      	bsrw fc4 <LAB_18C3>
    22c4:	202b 0000      	movel %a3@(0),%d0

000022c8 <LAB_295E>:
    22c8:	43fa 0dec      	lea %pc@(30b6 <Bin2dec>),%a1
    22cc:	7200           	moveq #0,%d1
    22ce:	41eb 0000      	lea %a3@(0),%a0
    22d2:	2401           	movel %d1,%d2

000022d4 <LAB_2967>:
    22d4:	2631 1000      	movel %a1@(0000000000000000,%d1:w),%d3
    22d8:	6714           	beqs 22ee <LAB_2969>
    22da:	782f           	moveq #47,%d4

000022dc <LAB_2968>:
    22dc:	5244           	addqw #1,%d4
    22de:	9083           	subl %d3,%d0
    22e0:	6afa           	bpls 22dc <LAB_2968>
    22e2:	d083           	addl %d3,%d0
    22e4:	1184 2000      	moveb %d4,%a0@(0000000000000000,%d2:w)
    22e8:	5841           	addqw #4,%d1
    22ea:	5242           	addqw #1,%d2
    22ec:	60e6           	bras 22d4 <LAB_2967>

000022ee <LAB_2969>:
    22ee:	0600 0030      	addib #48,%d0
    22f2:	1180 2000      	moveb %d0,%a0@(0000000000000000,%d2:w)
    22f6:	5348           	subqw #1,%a0

000022f8 <LAB_296A>:
    22f8:	5248           	addqw #1,%a0
    22fa:	43eb 0000      	lea %a3@(0),%a1
    22fe:	b1c9           	cmpal %a1,%a0
    2300:	6700 ecc2      	beqw fc4 <LAB_18C3>
    2304:	0c10 0030      	cmpib #48,%a0@
    2308:	67ee           	beqs 22f8 <LAB_296A>
    230a:	6000 ecb8      	braw fc4 <LAB_18C3>

0000230e <LAB_2970>:
    230e:	43eb 0000      	lea %a3@(0),%a1
    2312:	7420           	moveq #32,%d2
    2314:	08ab 0007 0000 	bclr #7,%a3@(0)
    231a:	6702           	beqs 231e <LAB_2978>
    231c:	742d           	moveq #45,%d2

0000231e <LAB_2978>:
    231e:	1282           	moveb %d2,%a1@
    2320:	142b 0000      	moveb %a3@(0),%d2
    2324:	6608           	bnes 232e <LAB_2989>
    2326:	7030           	moveq #48,%d0
    2328:	7201           	moveq #1,%d1
    232a:	6000 01a4      	braw 24d0 <LAB_2A89>

0000232e <LAB_2989>:
    232e:	177c 0000 0000 	moveb #0,%a3@(0)
    2334:	0c02 0081      	cmpib #-127,%d2
    2338:	6448           	bccs 2382 <LAB_299C>
    233a:	277c 9896 8000 	movel #-1734967296,%a3@(0)
    2340:	0000 
    2342:	377c 9800 0000 	movew #-26624,%a3@(0)
    2348:	176b 0000 0000 	moveb %a3@(0),%a3@(0)
    234e:	6100 fcdc      	bsrw 202c <LAB_MULTIPLY>
    2352:	177c 00f9 0000 	moveb #-7,%a3@(0)
    2358:	6028           	bras 2382 <LAB_299C>

0000235a <LAB_29B9>:
    235a:	376b 0000 0000 	movew %a3@(0),%a3@(0)
    2360:	276b 0000 0000 	movel %a3@(0),%a3@(0)
    2366:	176b 0000 0000 	moveb %a3@(0),%a3@(0)
    236c:	277c cccc cccd 	movel #-858993459,%a3@(0)
    2372:	0000 
    2374:	377c 7d00 0000 	movew #32000,%a3@(0)
    237a:	6100 fcb0      	bsrw 202c <LAB_MULTIPLY>
    237e:	522b 0000      	addqb #1,%a3@(0)

00002382 <LAB_299C>:
    2382:	277c 9896 7f70 	movel #-1734967440,%a3@(0)
    2388:	0000 
    238a:	377c 9800 0000 	movew #-26624,%a3@(0)
    2390:	6100 014c      	bsrw 24de <LAB_27F0>
    2394:	62c4           	bhis 235a <LAB_29B9>
    2396:	6750           	beqs 23e8 <LAB_29C3>
    2398:	277c f423 f800 	movel #-198969344,%a3@(0)
    239e:	0000 
    23a0:	377c 9400 0000 	movew #-27648,%a3@(0)
    23a6:	41eb 0000      	lea %a3@(0),%a0

000023aa <LAB_29A7>:
    23aa:	6100 0132      	bsrw 24de <LAB_27F0>
    23ae:	6220           	bhis 23d0 <LAB_29C0>
    23b0:	2010           	movel %a0@,%d0
    23b2:	1228 0004      	moveb %a0@(4),%d1
    23b6:	2400           	movel %d0,%d2
    23b8:	e488           	lsrl #2,%d0
    23ba:	d082           	addl %d2,%d0
    23bc:	6404           	bccs 23c2 <LAB_29B7>
    23be:	e290           	roxrl #1,%d0
    23c0:	5201           	addqb #1,%d1

000023c2 <LAB_29B7>:
    23c2:	5601           	addqb #3,%d1
    23c4:	2080           	movel %d0,%a0@
    23c6:	1141 0004      	moveb %d1,%a0@(4)
    23ca:	532b 0000      	subqb #1,%a3@(0)
    23ce:	60da           	bras 23aa <LAB_29A7>

000023d0 <LAB_29C0>:
    23d0:	277c 8000 0000 	movel #-2147483648,%a3@(0)
    23d6:	0000 
    23d8:	377c 8000 0000 	movew #-32768,%a3@(0)
    23de:	176b 0000 0000 	moveb %a3@(0),%a3@(0)
    23e4:	6100 faa2      	bsrw 1e88 <LAB_ADD>

000023e8 <LAB_29C3>:
    23e8:	6100 fe74      	bsrw 225e <LAB_2831>
    23ec:	7401           	moveq #1,%d2
    23ee:	102b 0000      	moveb %a3@(0),%d0
    23f2:	5000           	addqb #8,%d0
    23f4:	6b0c           	bmis 2402 <LAB_29D9>
    23f6:	0c00 0009      	cmpib #9,%d0
    23fa:	6406           	bccs 2402 <LAB_29D9>
    23fc:	5300           	subqb #1,%d0
    23fe:	1400           	moveb %d0,%d2
    2400:	7002           	moveq #2,%d0

00002402 <LAB_29D9>:
    2402:	7200           	moveq #0,%d1
    2404:	5500           	subqb #2,%d0
    2406:	1740 0000      	moveb %d0,%a3@(0)
    240a:	1742 0000      	moveb %d2,%a3@(0)
    240e:	1002           	moveb %d2,%d0
    2410:	6702           	beqs 2414 <LAB_29E4>
    2412:	6a14           	bpls 2428 <LAB_29F7>

00002414 <LAB_29E4>:
    2414:	5281           	addql #1,%d1
    2416:	13bc 002e 1000 	moveb #46,%a1@(0000000000000000,%d1:w)
    241c:	4a02           	tstb %d2
    241e:	6708           	beqs 2428 <LAB_29F7>
    2420:	5281           	addql #1,%d1
    2422:	13bc 0030 1000 	moveb #48,%a1@(0000000000000000,%d1:w)

00002428 <LAB_29F7>:
    2428:	7400           	moveq #0,%d2
    242a:	7080           	moveq #-128,%d0

0000242c <LAB_29FB>:
    242c:	41fa 1122      	lea %pc@(3550 <LAB_2A9A>),%a0
    2430:	2630 2000      	movel %a0@(0000000000000000,%d2:w),%d3

00002434 <LAB_29FD>:
    2434:	5200           	addqb #1,%d0
    2436:	d7ab 0000      	addl %d3,%a3@(0)
    243a:	0800 0007      	btst #7,%d0
    243e:	6504           	bcss 2444 <LAB_2A18>
    2440:	67f2           	beqs 2434 <LAB_29FD>
    2442:	6002           	bras 2446 <LAB_2A1A>

00002444 <LAB_2A18>:
    2444:	66ee           	bnes 2434 <LAB_29FD>

00002446 <LAB_2A1A>:
    2446:	6406           	bccs 244e <LAB_2A21>
    2448:	4400           	negb %d0
    244a:	0600 000b      	addib #11,%d0

0000244e <LAB_2A21>:
    244e:	0600 002f      	addib #47,%d0
    2452:	5842           	addqw #4,%d2
    2454:	5241           	addqw #1,%d1
    2456:	1600           	moveb %d0,%d3
    2458:	0203 007f      	andib #127,%d3
    245c:	1383 1000      	moveb %d3,%a1@(0000000000000000,%d1:w)
    2460:	532b 0000      	subqb #1,%a3@(0)
    2464:	6608           	bnes 246e <LAB_2A3B>
    2466:	5281           	addql #1,%d1
    2468:	13bc 002e 1000 	moveb #46,%a1@(0000000000000000,%d1:w)

0000246e <LAB_2A3B>:
    246e:	0200 0080      	andib #-128,%d0
    2472:	0a00 0080      	eorib #-128,%d0
    2476:	0c02 001c      	cmpib #28,%d2
    247a:	66b0           	bnes 242c <LAB_29FB>

0000247c <LAB_2A4B>:
    247c:	1031 1000      	moveb %a1@(0000000000000000,%d1:w),%d0
    2480:	5381           	subql #1,%d1
    2482:	0c00 0030      	cmpib #48,%d0
    2486:	67f4           	beqs 247c <LAB_2A4B>
    2488:	0c00 002e      	cmpib #46,%d0
    248c:	6702           	beqs 2490 <LAB_2A58>
    248e:	5281           	addql #1,%d1

00002490 <LAB_2A58>:
    2490:	13bc 002b 1002 	moveb #43,%a1@(0000000000000002,%d1:w)
    2496:	4a2b 0000      	tstb %a3@(0)
    249a:	6738           	beqs 24d4 <LAB_2A8C>
    249c:	6a0a           	bpls 24a8 <LAB_2A68>
    249e:	13bc 002d 1002 	moveb #45,%a1@(0000000000000002,%d1:w)
    24a4:	442b 0000      	negb %a3@(0)

000024a8 <LAB_2A68>:
    24a8:	13bc 0045 1001 	moveb #69,%a1@(0000000000000001,%d1:w)
    24ae:	142b 0000      	moveb %a3@(0),%d2
    24b2:	702f           	moveq #47,%d0

000024b4 <LAB_2A74>:
    24b4:	5200           	addqb #1,%d0
    24b6:	0402 000a      	subib #10,%d2
    24ba:	64f8           	bccs 24b4 <LAB_2A74>
    24bc:	0602 003a      	addib #58,%d2
    24c0:	1380 1003      	moveb %d0,%a1@(0000000000000003,%d1:w)
    24c4:	1382 1004      	moveb %d2,%a1@(0000000000000004,%d1:w)
    24c8:	13bc 0000 1005 	moveb #0,%a1@(0000000000000005,%d1:w)
    24ce:	600a           	bras 24da <LAB_2A91>

000024d0 <LAB_2A89>:
    24d0:	1380 1000      	moveb %d0,%a1@(0000000000000000,%d1:w)

000024d4 <LAB_2A8C>:
    24d4:	13bc 0000 1001 	moveb #0,%a1@(0000000000000001,%d1:w)

000024da <LAB_2A91>:
    24da:	2049           	moveal %a1,%a0
    24dc:	4e75           	rts

000024de <LAB_27F0>:
    24de:	7000           	moveq #0,%d0
    24e0:	122b 0000      	moveb %a3@(0),%d1
    24e4:	b22b 0000      	cmpb %a3@(0),%d1
    24e8:	660a           	bnes 24f4 <LAB_27F1>
    24ea:	222b 0000      	movel %a3@(0),%d1
    24ee:	b2ab 0000      	cmpl %a3@(0),%d1
    24f2:	6708           	beqs 24fc <LAB_27F3>

000024f4 <LAB_27F1>:
    24f4:	6504           	bcss 24fa <LAB_27F2>
    24f6:	5380           	subql #1,%d0
    24f8:	4e75           	rts

000024fa <LAB_27F2>:
    24fa:	5280           	addql #1,%d0

000024fc <LAB_27F3>:
    24fc:	4e75           	rts

000024fe <LAB_POON>:
    24fe:	277c 8000 0000 	movel #-2147483648,%a3@(0)
    2504:	0000 
    2506:	377c 8100 0000 	movew #-32512,%a3@(0)
    250c:	4e75           	rts

0000250e <LAB_POZE>:
    250e:	7000           	moveq #0,%d0
    2510:	2740 0000      	movel %d0,%a3@(0)
    2514:	3740 0000      	movew %d0,%a3@(0)
    2518:	4e75           	rts

0000251a <LAB_POWER>:
    251a:	4a2b 0000      	tstb %a3@(0)
    251e:	67de           	beqs 24fe <LAB_POON>
    2520:	4a2b 0000      	tstb %a3@(0)
    2524:	67e8           	beqs 250e <LAB_POZE>
    2526:	1f2b 0000      	moveb %a3@(0),%sp@-
    252a:	6a20           	bpls 254c <LAB_POWP>
    252c:	7200           	moveq #0,%d1
    252e:	1741 0000      	moveb %d1,%a3@(0)
    2532:	122b 0000      	moveb %a3@(0),%d1
    2536:	0441 0080      	subiw #128,%d1
    253a:	6300 e202      	blsw 73e <LAB_FCER>
    253e:	202b 0000      	movel %a3@(0),%d0
    2542:	e3a0           	asll %d1,%d0
    2544:	6600 e1f8      	bnew 73e <LAB_FCER>
    2548:	6502           	bcss 254c <LAB_POWP>
    254a:	1e80           	moveb %d0,%sp@

0000254c <LAB_POWP>:
    254c:	2f2b 0000      	movel %a3@(0),%sp@-
    2550:	3f2b 0000      	movew %a3@(0),%sp@-
    2554:	6100 fc70      	bsrw 21c6 <LAB_279B>
    2558:	6100 f9e0      	bsrw 1f3a <LAB_LOG>
    255c:	301f           	movew %sp@+,%d0
    255e:	275f 0000      	movel %sp@+,%a3@(0)
    2562:	3740 0000      	movew %d0,%a3@(0)
    2566:	1740 0000      	moveb %d0,%a3@(0)
    256a:	102b 0000      	moveb %a3@(0),%d0
    256e:	b12b 0000      	eorb %d0,%a3@(0)
    2572:	6100 fab8      	bsrw 202c <LAB_MULTIPLY>
    2576:	6158           	bsrs 25d0 <LAB_EXP>
    2578:	175f 0000      	moveb %sp@+,%a3@(0)
    257c:	4e75           	rts

0000257e <LAB_GTHAN>:
    257e:	4a2b 0000      	tstb %a3@(0)
    2582:	6706           	beqs 258a <RTS_020>
    2584:	0a2b 0080 0000 	eorib #-128,%a3@(0)

0000258a <RTS_020>:
    258a:	4e75           	rts

0000258c <LAB_EX1>:
    258c:	277c 8000 0000 	movel #-2147483648,%a3@(0)
    2592:	0000 
    2594:	377c 8100 0000 	movew #-32512,%a3@(0)
    259a:	4e75           	rts

0000259c <LAB_EXOU>:
    259c:	4a2b 0000      	tstb %a3@(0)
    25a0:	6a00 e198      	bplw 73a <LAB_OFER>
    25a4:	7000           	moveq #0,%d0
    25a6:	2740 0000      	movel %d0,%a3@(0)
    25aa:	3740 0000      	movew %d0,%a3@(0)
    25ae:	4e75           	rts

000025b0 <LAB_EXOF>:
    25b0:	277c 8000 0000 	movel #-2147483648,%a3@(0)
    25b6:	0000 
    25b8:	177c 0000 0000 	moveb #0,%a3@(0)
    25be:	4a2b 0000      	tstb %a3@(0)
    25c2:	6a02           	bpls 25c6 <LAB_EXOL>
    25c4:	4481           	negl %d1

000025c6 <LAB_EXOL>:
    25c6:	0601 0081      	addib #-127,%d1
    25ca:	1741 0000      	moveb %d1,%a3@(0)
    25ce:	4e75           	rts

000025d0 <LAB_EXP>:
    25d0:	102b 0000      	moveb %a3@(0),%d0
    25d4:	67b6           	beqs 258c <LAB_EX1>
    25d6:	0c00 0064      	cmpib #100,%d0
    25da:	65b0           	bcss 258c <LAB_EX1>
    25dc:	177c 0000 0000 	moveb #0,%a3@(0)
    25e2:	222b 0000      	movel %a3@(0),%d1
    25e6:	0c00 0087      	cmpib #-121,%d0
    25ea:	62b0           	bhis 259c <LAB_EXOU>
    25ec:	6608           	bnes 25f6 <LAB_EXCM>
    25ee:	0c81 b00f 33c7 	cmpil #-1341180985,%d1
    25f4:	64a6           	bccs 259c <LAB_EXOU>

000025f6 <LAB_EXCM>:
    25f6:	4a2b 0000      	tstb %a3@(0)
    25fa:	6a0c           	bpls 2608 <LAB_EXPS>
    25fc:	177c 00ff 0000 	moveb #-1,%a3@(0)
    2602:	177c 0000 0000 	moveb #0,%a3@(0)

00002608 <LAB_EXPS>:
    2608:	277c b8aa 3b29 	movel #-1196803287,%a3@(0)
    260e:	0000 
    2610:	377c 8100 0000 	movew #-32512,%a3@(0)
    2616:	177c 0000 0000 	moveb #0,%a3@(0)
    261c:	6100 fa0e      	bsrw 202c <LAB_MULTIPLY>
    2620:	177c 0000 0000 	moveb #0,%a3@(0)
    2626:	1a2b 0000      	moveb %a3@(0),%d5
    262a:	0405 0080      	subib #-128,%d5
    262e:	6324           	blss 2654 <LAB_ESML>
    2630:	202b 0000      	movel %a3@(0),%d0
    2634:	2200           	movel %d0,%d1
    2636:	2c05           	movel %d5,%d6
    2638:	4446           	negw %d6
    263a:	0646 0020      	addiw #32,%d6
    263e:	eca9           	lsrl %d6,%d1
    2640:	1741 0000      	moveb %d1,%a3@(0)
    2644:	eba8           	lsll %d5,%d0
    2646:	6700 ff68      	beqw 25b0 <LAB_EXOF>
    264a:	2740 0000      	movel %d0,%a3@(0)
    264e:	377c 8000 0000 	movew #-32768,%a3@(0)

00002654 <LAB_ESML>:
    2654:	277c b172 17f8 	movel #-1317922824,%a3@(0)
    265a:	0000 
    265c:	377c 8000 0000 	movew #-32768,%a3@(0)
    2662:	177c 0000 0000 	moveb #0,%a3@(0)
    2668:	6100 f9c2      	bsrw 202c <LAB_MULTIPLY>
    266c:	202b 0000      	movel %a3@(0),%d0
    2670:	1a2b 0000      	moveb %a3@(0),%d5
    2674:	0445 0082      	subiw #130,%d5
    2678:	4445           	negw %d5
    267a:	eaa8           	lsrl %d5,%d0
    267c:	7200           	moveq #0,%d1
    267e:	2c3c 26a3 d110 	movel #648270096,%d6
    2684:	41fa 0d2e      	lea %pc@(33b4 <TAB_HTHET>),%a0
    2688:	7800           	moveq #0,%d4
    268a:	7a03           	moveq #3,%d5
    268c:	6136           	bsrs 26c4 <LAB_EXCC>
    268e:	5948           	subqw #4,%a0
    2690:	5384           	subql #1,%d4
    2692:	7a09           	moveq #9,%d5
    2694:	612e           	bsrs 26c4 <LAB_EXCC>
    2696:	5948           	subqw #4,%a0
    2698:	5384           	subql #1,%d4
    269a:	7a12           	moveq #18,%d5
    269c:	6126           	bsrs 26c4 <LAB_EXCC>
    269e:	4a2b 0000      	tstb %a3@(0)
    26a2:	6a06           	bpls 26aa <LAB_EXPL>
    26a4:	4481           	negl %d1
    26a6:	442b 0000      	negb %a3@(0)

000026aa <LAB_EXPL>:
    26aa:	7083           	moveq #-125,%d0
    26ac:	dc81           	addl %d1,%d6
    26ae:	6b06           	bmis 26b6 <LAB_EXRN>

000026b0 <LAB_EXNN>:
    26b0:	5380           	subql #1,%d0
    26b2:	dc86           	addl %d6,%d6
    26b4:	6afa           	bpls 26b0 <LAB_EXNN>

000026b6 <LAB_EXRN>:
    26b6:	2746 0000      	movel %d6,%a3@(0)
    26ba:	d02b 0000      	addb %a3@(0),%d0
    26be:	1740 0000      	moveb %d0,%a3@(0)
    26c2:	4e75           	rts

000026c4 <LAB_EXCC>:
    26c4:	5284           	addql #1,%d4
    26c6:	2406           	movel %d6,%d2
    26c8:	e8a2           	asrl %d4,%d2
    26ca:	2601           	movel %d1,%d3
    26cc:	e8a3           	asrl %d4,%d3
    26ce:	4a80           	tstl %d0
    26d0:	6b0c           	bmis 26de <LAB_EXAD>
    26d2:	d282           	addl %d2,%d1
    26d4:	dc83           	addl %d3,%d6
    26d6:	9098           	subl %a0@+,%d0
    26d8:	51cd ffea      	dbf %d5,26c4 <LAB_EXCC>
    26dc:	4e75           	rts

000026de <LAB_EXAD>:
    26de:	9282           	subl %d2,%d1
    26e0:	9c83           	subl %d3,%d6
    26e2:	d098           	addl %a0@+,%d0
    26e4:	51cd ffde      	dbf %d5,26c4 <LAB_EXCC>
    26e8:	4e75           	rts

000026ea <LAB_RND>:
    26ea:	4a2b 0000      	tstb %a3@(0)
    26ee:	6708           	beqs 26f8 <NextPRN>
    26f0:	41eb 0000      	lea %a3@(0),%a0
    26f4:	6100 faaa      	bsrw 21a0 <LAB_2778>

000026f8 <NextPRN>:
    26f8:	72af           	moveq #-81,%d1
    26fa:	7412           	moveq #18,%d2
    26fc:	202b 0000      	movel %a3@(0),%d0

00002700 <Ninc0>:
    2700:	d080           	addl %d0,%d0
    2702:	6402           	bccs 2706 <Ninc1>
    2704:	b300           	eorb %d1,%d0

00002706 <Ninc1>:
    2706:	51ca fff8      	dbf %d2,2700 <Ninc0>
    270a:	2740 0000      	movel %d0,%a3@(0)
    270e:	2740 0000      	movel %d0,%a3@(0)
    2712:	377c 8000 0000 	movew #-32768,%a3@(0)
    2718:	6000 f7ea      	braw 1f04 <LAB_24D5>

0000271c <LAB_TAN>:
    271c:	6138           	bsrs 2756 <LAB_SIN>
    271e:	376b 0000 0000 	movew %a3@(0),%a3@(0)
    2724:	276b 0000 0000 	movel %a3@(0),%a3@(0)
    272a:	2741 0000      	movel %d1,%a3@(0)
    272e:	1743 0000      	moveb %d3,%a3@(0)
    2732:	6700 e006      	beqw 73a <LAB_OFER>
    2736:	6100 f7cc      	bsrw 1f04 <LAB_24D5>
    273a:	6000 f97c      	braw 20b8 <LAB_DIVIDE>

0000273e <LAB_COS>:
    273e:	277c c90f daa3 	movel #-921707869,%a3@(0)
    2744:	0000 
    2746:	377c 8100 0000 	movew #-32512,%a3@(0)
    274c:	176b 0000 0000 	moveb %a3@(0),%a3@(0)
    2752:	6100 f734      	bsrw 1e88 <LAB_ADD>

00002756 <LAB_SIN>:
    2756:	177c 0000 0000 	moveb #0,%a3@(0)
    275c:	277c a2f9 836f 	movel #-1560706193,%a3@(0)
    2762:	0000 
    2764:	377c 7f00 0000 	movew #32512,%a3@(0)
    276a:	176b 0000 0000 	moveb %a3@(0),%a3@(0)
    2770:	6100 f8ba      	bsrw 202c <LAB_MULTIPLY>
    2774:	102b 0000      	moveb %a3@(0),%d0
    2778:	671c           	beqs 2796 <LAB_SCZE>
    277a:	41fa 0b38      	lea %pc@(32b4 <TAB_SNCO>),%a0
    277e:	2c2b 0000      	movel %a3@(0),%d6
    2782:	5300           	subqb #1,%d0
    2784:	6710           	beqs 2796 <LAB_SCZE>
    2786:	0400 0080      	subib #-128,%d0
    278a:	6b18           	bmis 27a4 <LAB_SCL0>
    278c:	0c00 0020      	cmpib #32,%d0
    2790:	6404           	bccs 2796 <LAB_SCZE>
    2792:	e1ae           	lsll %d0,%d6
    2794:	6618           	bnes 27ae <LAB_CORD>

00002796 <LAB_SCZE>:
    2796:	7481           	moveq #-127,%d2
    2798:	7600           	moveq #0,%d3
    279a:	203c 8000 0000 	movel #-2147483648,%d0
    27a0:	2203           	movel %d3,%d1
    27a2:	6062           	bras 2806 <outloop>

000027a4 <LAB_SCL0>:
    27a4:	4400           	negb %d0
    27a6:	0c00 001e      	cmpib #30,%d0
    27aa:	64ea           	bccs 2796 <LAB_SCZE>
    27ac:	e0ae           	lsrl %d0,%d6

000027ae <LAB_CORD>:
    27ae:	176b 0000 0000 	moveb %a3@(0),%a3@(0)
    27b4:	dc86           	addl %d6,%d6
    27b6:	6406           	bccs 27be <LAB_LTPF>
    27b8:	0a2b 00ff 0000 	eorib #-1,%a3@(0)

000027be <LAB_LTPF>:
    27be:	dc86           	addl %d6,%d6
    27c0:	640c           	bccs 27ce <LAB_LTPT>
    27c2:	0a2b 00ff 0000 	eorib #-1,%a3@(0)
    27c8:	0a2b 00ff 0000 	eorib #-1,%a3@(0)

000027ce <LAB_LTPT>:
    27ce:	e48e           	lsrl #2,%d6
    27d0:	67c4           	beqs 2796 <LAB_SCZE>
    27d2:	7a01           	moveq #1,%d5
    27d4:	2028 fffc      	movel %a0@(-4),%d0
    27d8:	2200           	movel %d0,%d1
    27da:	9c98           	subl %a0@+,%d6
    27dc:	6008           	bras 27e6 <mainloop>

000027de <subloop>:
    27de:	9c98           	subl %a0@+,%d6
    27e0:	9083           	subl %d3,%d0
    27e2:	d282           	addl %d2,%d1
    27e4:	6012           	bras 27f8 <nexta>

000027e6 <mainloop>:
    27e6:	2400           	movel %d0,%d2
    27e8:	eaa2           	asrl %d5,%d2
    27ea:	2601           	movel %d1,%d3
    27ec:	eaa3           	asrl %d5,%d3
    27ee:	4a86           	tstl %d6
    27f0:	6aec           	bpls 27de <subloop>
    27f2:	dc98           	addl %a0@+,%d6
    27f4:	d083           	addl %d3,%d0
    27f6:	9282           	subl %d2,%d1

000027f8 <nexta>:
    27f8:	5285           	addql #1,%d5
    27fa:	0c85 0000 001e 	cmpil #30,%d5
    2800:	66e4           	bnes 27e6 <mainloop>
    2802:	7481           	moveq #-127,%d2
    2804:	2602           	movel %d2,%d3

00002806 <outloop>:
    2806:	4a2b 0000      	tstb %a3@(0)
    280a:	6b04           	bmis 2810 <subexit>
    280c:	c141           	exg %d0,%d1
    280e:	c543           	exg %d2,%d3

00002810 <subexit>:
    2810:	2740 0000      	movel %d0,%a3@(0)
    2814:	1742 0000      	moveb %d2,%a3@(0)
    2818:	6000 f6ea      	braw 1f04 <LAB_24D5>

0000281c <LAB_ATN>:
    281c:	102b 0000      	moveb %a3@(0),%d0
    2820:	6700 00ae      	beqw 28d0 <RTS_021>
    2824:	177c 0000 0000 	moveb #0,%a3@(0)
    282a:	0c00 0081      	cmpib #-127,%d0
    282e:	6528           	bcss 2858 <LAB_ATLE>
    2830:	6608           	bnes 283a <LAB_ATGO>
    2832:	202b 0000      	movel %a3@(0),%d0
    2836:	d080           	addl %d0,%d0
    2838:	671e           	beqs 2858 <LAB_ATLE>

0000283a <LAB_ATGO>:
    283a:	277c 8000 0000 	movel #-2147483648,%a3@(0)
    2840:	0000 
    2842:	377c 8100 0000 	movew #-32512,%a3@(0)
    2848:	176b 0000 0000 	moveb %a3@(0),%a3@(0)
    284e:	6100 f868      	bsrw 20b8 <LAB_DIVIDE>
    2852:	177c 00ff 0000 	moveb #-1,%a3@(0)

00002858 <LAB_ATLE>:
    2858:	202b 0000      	movel %a3@(0),%d0
    285c:	223c 0000 0082 	movel #130,%d1
    2862:	922b 0000      	subb %a3@(0),%d1
    2866:	e2a8           	lsrl %d1,%d0
    2868:	41fa 0aca      	lea %pc@(3334 <TAB_ATNC>),%a0
    286c:	7c00           	moveq #0,%d6
    286e:	223c 4000 0000 	movel #1073741824,%d1
    2874:	7a1d           	moveq #29,%d5
    2876:	7801           	moveq #1,%d4
    2878:	6006           	bras 2880 <LAB_ATCD>

0000287a <LAB_ATNP>:
    287a:	e8a2           	asrl %d4,%d2
    287c:	d282           	addl %d2,%d1
    287e:	dc90           	addl %a0@,%d6

00002880 <LAB_ATCD>:
    2880:	2400           	movel %d0,%d2
    2882:	2601           	movel %d1,%d3
    2884:	e8a3           	asrl %d4,%d3

00002886 <LAB_CATN>:
    2886:	9083           	subl %d3,%d0
    2888:	6af0           	bpls 287a <LAB_ATNP>
    288a:	2002           	movel %d2,%d0
    288c:	5848           	addqw #4,%a0
    288e:	5284           	addql #1,%d4
    2890:	e283           	asrl #1,%d3
    2892:	51cd fff2      	dbf %d5,2886 <LAB_CATN>
    2896:	177c 0082 0000 	moveb #-126,%a3@(0)
    289c:	2746 0000      	movel %d6,%a3@(0)
    28a0:	6100 f662      	bsrw 1f04 <LAB_24D5>
    28a4:	4a2b 0000      	tstb %a3@(0)
    28a8:	6a26           	bpls 28d0 <RTS_021>
    28aa:	1e2b 0000      	moveb %a3@(0),%d7
    28ae:	177c 0000 0000 	moveb #0,%a3@(0)
    28b4:	277c c90f daa2 	movel #-921707870,%a3@(0)
    28ba:	0000 
    28bc:	377c 8180 0000 	movew #-32384,%a3@(0)
    28c2:	177c 00ff 0000 	moveb #-1,%a3@(0)
    28c8:	6100 f5be      	bsrw 1e88 <LAB_ADD>
    28cc:	1747 0000      	moveb %d7,%a3@(0)

000028d0 <RTS_021>:
    28d0:	4e75           	rts

000028d2 <LAB_BITSET>:
    28d2:	6100 f494      	bsrw 1d68 <LAB_GADB>
    28d6:	0c00 0008      	cmpib #8,%d0
    28da:	6400 de62      	bccw 73e <LAB_FCER>
    28de:	01d0           	bset %d0,%a0@
    28e0:	4e75           	rts

000028e2 <LAB_BITCLR>:
    28e2:	6100 f484      	bsrw 1d68 <LAB_GADB>
    28e6:	0c00 0008      	cmpib #8,%d0
    28ea:	6400 de52      	bccw 73e <LAB_FCER>
    28ee:	0190           	bclr %d0,%a0@
    28f0:	4e75           	rts

000028f2 <LAB_BTST>:
    28f2:	101d           	moveb %a5@+,%d0
    28f4:	6100 f472      	bsrw 1d68 <LAB_GADB>
    28f8:	0c00 0008      	cmpib #8,%d0
    28fc:	6400 de40      	bccw 73e <LAB_FCER>
    2900:	2200           	movel %d0,%d1
    2902:	6100 ea90      	bsrw 1394 <LAB_GBYT>
    2906:	0c00 0029      	cmpib #41,%d0
    290a:	6600 de3e      	bnew 74a <LAB_SNER>
    290e:	6100 ea82      	bsrw 1392 <LAB_IGBY>
    2912:	7000           	moveq #0,%d0
    2914:	0310           	btst %d1,%a0@
    2916:	6700 f902      	beqw 221a <LAB_27DB>
    291a:	70ff           	moveq #-1,%d0
    291c:	6000 f8fc      	braw 221a <LAB_27DB>

00002920 <LAB_USINGS>:
    2920:	4a2b 0000      	tstb %a3@(0)
    2924:	6a00 ddd0      	bplw 6f6 <LAB_FOER>
    2928:	246b 0000      	moveal %a3@(0),%a2
    292c:	3e2a 0004      	movew %a2@(4),%d7
    2930:	6700 ddc4      	beqw 6f6 <LAB_FOER>
    2934:	7000           	moveq #0,%d0
    2936:	3f00           	movew %d0,%sp@-
    2938:	3f00           	movew %d0,%sp@-
    293a:	3f00           	movew %d0,%sp@-
    293c:	3f00           	movew %d0,%sp@-
    293e:	2f0a           	movel %a2,%sp@-
    2940:	7200           	moveq #0,%d1
    2942:	2041           	moveal %d1,%a0
    2944:	6100 f0ba      	bsrw 1a00 <LAB_RTST>
    2948:	101d           	moveb %a5@+,%d0

0000294a <LAB_U002>:
    294a:	0c00 002c      	cmpib #44,%d0
    294e:	6600 ddfa      	bnew 74a <LAB_SNER>
    2952:	6100 028e      	bsrw 2be2 <LAB_ProcFo>
    2956:	4a02           	tstb %d2
    2958:	6700 dd9c      	beqw 6f6 <LAB_FOER>
    295c:	6100 e8d0      	bsrw 122e <LAB_EVEX>
    2960:	4a2b 0000      	tstb %a3@(0)
    2964:	6b00 ddb8      	bmiw 71e <LAB_TMER>
    2968:	4a2b 0000      	tstb %a3@(0)
    296c:	6732           	beqs 29a0 <LAB_U004>
    296e:	322f 000a      	movew %sp@(10),%d1
    2972:	0c41 0008      	cmpiw #8,%d1
    2976:	6428           	bccs 29a0 <LAB_U004>
    2978:	3001           	movew %d1,%d0
    297a:	d241           	addw %d1,%d1
    297c:	d240           	addw %d0,%d1
    297e:	d241           	addw %d1,%d1
    2980:	41fa 0844      	lea %pc@(31c6 <LAB_P_10>),%a0
    2984:	2770 1002 0000 	movel %a0@(0000000000000002,%d1:w),%a3@(0)
    298a:	3030 1000      	movew %a0@(0000000000000000,%d1:w),%d0
    298e:	0440 0100      	subiw #256,%d0
    2992:	3740 0000      	movew %d0,%a3@(0)
    2996:	177c 0000 0000 	moveb #0,%a3@(0)
    299c:	6100 f4ea      	bsrw 1e88 <LAB_ADD>

000029a0 <LAB_U004>:
    29a0:	6100 f96c      	bsrw 230e <LAB_2970>
    29a4:	6100 01fe      	bsrw 2ba4 <LAB_DupFmt>
    29a8:	45eb 0000      	lea %a3@(0),%a2
    29ac:	7c00           	moveq #0,%d6
    29ae:	782e           	moveq #46,%d4

000029b0 <LAB_U005>:
    29b0:	3406           	movew %d6,%d2

000029b2 <LAB_U006>:
    29b2:	5246           	addqw #1,%d6
    29b4:	1032 6000      	moveb %a2@(0000000000000000,%d6:w),%d0
    29b8:	677a           	beqs 2a34 <LAB_U010>
    29ba:	0c00 0045      	cmpib #69,%d0
    29be:	6706           	beqs 29c6 <LAB_U008>
    29c0:	b004           	cmpb %d4,%d0
    29c2:	66ee           	bnes 29b2 <LAB_U006>
    29c4:	60ea           	bras 29b0 <LAB_U005>

000029c6 <LAB_U008>:
    29c6:	3606           	movew %d6,%d3
    29c8:	5343           	subqw #1,%d3
    29ca:	5246           	addqw #1,%d6
    29cc:	1032 6000      	moveb %a2@(0000000000000000,%d6:w),%d0
    29d0:	0c00 002d      	cmpib #45,%d0
    29d4:	6600 dd68      	bnew 73e <LAB_FCER>
    29d8:	5246           	addqw #1,%d6
    29da:	1032 6000      	moveb %a2@(0000000000000000,%d6:w),%d0
    29de:	0c00 0030      	cmpib #48,%d0
    29e2:	6704           	beqs 29e8 <LAB_U009>
    29e4:	700a           	moveq #10,%d0
    29e6:	6008           	bras 29f0 <LAB_U00A>

000029e8 <LAB_U009>:
    29e8:	5246           	addqw #1,%d6
    29ea:	700f           	moveq #15,%d0
    29ec:	c032 6000      	andb %a2@(0000000000000000,%d6:w),%d0

000029f0 <LAB_U00A>:
    29f0:	3403           	movew %d3,%d2
    29f2:	0c42 0001      	cmpiw #1,%d2
    29f6:	6602           	bnes 29fa <LAB_U00B>
    29f8:	5242           	addqw #1,%d2

000029fa <LAB_U00B>:
    29fa:	d440           	addw %d0,%d2
    29fc:	700a           	moveq #10,%d0
    29fe:	9042           	subw %d2,%d0
    2a00:	6e0c           	bgts 2a0e <LAB_U00C>
    2a02:	d440           	addw %d0,%d2
    2a04:	d640           	addw %d0,%d3
    2a06:	0c43 0001      	cmpiw #1,%d3
    2a0a:	6e02           	bgts 2a0e <LAB_U00C>
    2a0c:	7600           	moveq #0,%d3

00002a0e <LAB_U00C>:
    2a0e:	3c02           	movew %d2,%d6
    2a10:	7000           	moveq #0,%d0

00002a12 <LAB_U00D>:
    2a12:	1580 2000      	moveb %d0,%a2@(0000000000000000,%d2:w)
    2a16:	5342           	subqw #1,%d2
    2a18:	0c42 0001      	cmpiw #1,%d2
    2a1c:	6712           	beqs 2a30 <LAB_U00F>
    2a1e:	7030           	moveq #48,%d0
    2a20:	4a43           	tstw %d3
    2a22:	67ee           	beqs 2a12 <LAB_U00D>

00002a24 <LAB_U00E>:
    2a24:	1032 3000      	moveb %a2@(0000000000000000,%d3:w),%d0
    2a28:	5343           	subqw #1,%d3
    2a2a:	b004           	cmpb %d4,%d0
    2a2c:	66e4           	bnes 2a12 <LAB_U00D>
    2a2e:	60f4           	bras 2a24 <LAB_U00E>

00002a30 <LAB_U00F>:
    2a30:	1584 2000      	moveb %d4,%a2@(0000000000000000,%d2:w)

00002a34 <LAB_U010>:
    2a34:	4a42           	tstw %d2
    2a36:	6602           	bnes 2a3a <LAB_U014>
    2a38:	3406           	movew %d6,%d2

00002a3a <LAB_U014>:
    2a3a:	3602           	movew %d2,%d3
    2a3c:	5243           	addqw #1,%d3
    2a3e:	382f 0008      	movew %sp@(8),%d4

00002a42 <LAB_U018>:
    2a42:	5244           	addqw #1,%d4
    2a44:	b244           	cmpw %d4,%d1
    2a46:	6322           	blss 2a6a <LAB_U022>
    2a48:	1030 4000      	moveb %a0@(0000000000000000,%d4:w),%d0
    2a4c:	0c00 0025      	cmpib #37,%d0
    2a50:	6706           	beqs 2a58 <LAB_U01C>
    2a52:	0c00 0023      	cmpib #35,%d0
    2a56:	66ea           	bnes 2a42 <LAB_U018>

00002a58 <LAB_U01C>:
    2a58:	7030           	moveq #48,%d0
    2a5a:	bc43           	cmpw %d3,%d6
    2a5c:	6306           	blss 2a64 <LAB_U020>
    2a5e:	1032 3000      	moveb %a2@(0000000000000000,%d3:w),%d0
    2a62:	5243           	addqw #1,%d3

00002a64 <LAB_U020>:
    2a64:	1180 4000      	moveb %d0,%a0@(0000000000000000,%d4:w)
    2a68:	60d8           	bras 2a42 <LAB_U018>

00002a6a <LAB_U022>:
    2a6a:	7c00           	moveq #0,%d6
    2a6c:	7a00           	moveq #0,%d5
    2a6e:	5342           	subqw #1,%d2
    2a70:	6608           	bnes 2a7a <LAB_U026>
    2a72:	7401           	moveq #1,%d2
    2a74:	15bc 0030 2000 	moveb #48,%a2@(0000000000000000,%d2:w)

00002a7a <LAB_U026>:
    2a7a:	382f 0008      	movew %sp@(8),%d4
    2a7e:	b244           	cmpw %d4,%d1
    2a80:	6402           	bccs 2a84 <LAB_U02A>
    2a82:	3801           	movew %d1,%d4

00002a84 <LAB_U02A>:
    2a84:	5344           	subqw #1,%d4
    2a86:	6b62           	bmis 2aea <LAB_U03E>
    2a88:	1030 4000      	moveb %a0@(0000000000000000,%d4:w),%d0
    2a8c:	7e30           	moveq #48,%d7
    2a8e:	0c00 0025      	cmpib #37,%d0
    2a92:	6708           	beqs 2a9c <LAB_U02B>
    2a94:	7e20           	moveq #32,%d7
    2a96:	0c00 0023      	cmpib #35,%d0
    2a9a:	6606           	bnes 2aa2 <LAB_U02C>

00002a9c <LAB_U02B>:
    2a9c:	4a42           	tstw %d2
    2a9e:	6634           	bnes 2ad4 <LAB_U036>
    2aa0:	6042           	bras 2ae4 <LAB_U03C>

00002aa2 <LAB_U02C>:
    2aa2:	0c00 002c      	cmpib #44,%d0
    2aa6:	6610           	bnes 2ab8 <LAB_U030>
    2aa8:	4a42           	tstw %d2
    2aaa:	6608           	bnes 2ab4 <LAB_U02E>
    2aac:	0c30 0025 40ff 	cmpib #37,%a0@(ffffffffffffffff,%d4:w)
    2ab2:	6630           	bnes 2ae4 <LAB_U03C>

00002ab4 <LAB_U02E>:
    2ab4:	1e00           	moveb %d0,%d7
    2ab6:	602c           	bras 2ae4 <LAB_U03C>

00002ab8 <LAB_U030>:
    2ab8:	0c00 002d      	cmpib #45,%d0
    2abc:	6710           	beqs 2ace <LAB_U034>
    2abe:	0c00 002b      	cmpib #43,%d0
    2ac2:	66c0           	bnes 2a84 <LAB_U02A>
    2ac4:	0c12 002d      	cmpib #45,%a2@
    2ac8:	6704           	beqs 2ace <LAB_U034>
    2aca:	14bc 002b      	moveb #43,%a2@

00002ace <LAB_U034>:
    2ace:	1a00           	moveb %d0,%d5
    2ad0:	4a42           	tstw %d2
    2ad2:	6708           	beqs 2adc <LAB_U038>

00002ad4 <LAB_U036>:
    2ad4:	1e32 2000      	moveb %a2@(0000000000000000,%d2:w),%d7
    2ad8:	5342           	subqw #1,%d2
    2ada:	6008           	bras 2ae4 <LAB_U03C>

00002adc <LAB_U038>:
    2adc:	4a06           	tstb %d6
    2ade:	6604           	bnes 2ae4 <LAB_U03C>
    2ae0:	1e12           	moveb %a2@,%d7
    2ae2:	1c07           	moveb %d7,%d6

00002ae4 <LAB_U03C>:
    2ae4:	1187 4000      	moveb %d7,%a0@(0000000000000000,%d4:w)
    2ae8:	609a           	bras 2a84 <LAB_U02A>

00002aea <LAB_U03E>:
    2aea:	4a42           	tstw %d2
    2aec:	6614           	bnes 2b02 <LAB_U040>
    2aee:	4a05           	tstb %d5
    2af0:	6754           	beqs 2b46 <LAB_U04A>
    2af2:	4a06           	tstb %d6
    2af4:	6650           	bnes 2b46 <LAB_U04A>
    2af6:	0c05 002b      	cmpib #43,%d5
    2afa:	6706           	beqs 2b02 <LAB_U040>
    2afc:	0c12 002d      	cmpib #45,%a2@
    2b00:	6644           	bnes 2b46 <LAB_U04A>

00002b02 <LAB_U040>:
    2b02:	7a23           	moveq #35,%d5
    2b04:	3e01           	movew %d1,%d7
    2b06:	5347           	subqw #1,%d7
    2b08:	3c2f 0004      	movew %sp@(4),%d6
    2b0c:	5346           	subqw #1,%d6
    2b0e:	6e02           	bgts 2b12 <LAB_U044>
    2b10:	3c07           	movew %d7,%d6

00002b12 <LAB_U044>:
    2b12:	1031 6000      	moveb %a1@(0000000000000000,%d6:w),%d0
    2b16:	0c00 0023      	cmpib #35,%d0
    2b1a:	671e           	beqs 2b3a <LAB_U046>
    2b1c:	0c00 0025      	cmpib #37,%d0
    2b20:	6718           	beqs 2b3a <LAB_U046>
    2b22:	0c00 002c      	cmpib #44,%d0
    2b26:	6712           	beqs 2b3a <LAB_U046>
    2b28:	0c00 002b      	cmpib #43,%d0
    2b2c:	670c           	beqs 2b3a <LAB_U046>
    2b2e:	0c00 002d      	cmpib #45,%d0
    2b32:	6706           	beqs 2b3a <LAB_U046>
    2b34:	0c00 002e      	cmpib #46,%d0
    2b38:	6602           	bnes 2b3c <LAB_U048>

00002b3a <LAB_U046>:
    2b3a:	1005           	moveb %d5,%d0

00002b3c <LAB_U048>:
    2b3c:	1180 7000      	moveb %d0,%a0@(0000000000000000,%d7:w)
    2b40:	5346           	subqw #1,%d6
    2b42:	51cf ffce      	dbf %d7,2b12 <LAB_U044>

00002b46 <LAB_U04A>:
    2b46:	41ec 0006      	lea %a4@(6),%a0
    2b4a:	274c 0000      	movel %a4,%a3@(0)
    2b4e:	6100 f000      	bsrw 1b50 <LAB_224E>
    2b52:	302f 0004      	movew %sp@(4),%d0
    2b56:	6720           	beqs 2b78 <LAB_U04C>
    2b58:	3f40 0006      	movew %d0,%sp@(6)
    2b5c:	6100 0084      	bsrw 2be2 <LAB_ProcFo>
    2b60:	4a02           	tstb %d2
    2b62:	6614           	bnes 2b78 <LAB_U04C>
    2b64:	613e           	bsrs 2ba4 <LAB_DupFmt>
    2b66:	3f6f 0004 0006 	movew %sp@(4),%sp@(6)
    2b6c:	41ec 0006      	lea %a4@(6),%a0
    2b70:	274c 0000      	movel %a4,%a3@(0)
    2b74:	6100 efda      	bsrw 1b50 <LAB_224E>

00002b78 <LAB_U04C>:
    2b78:	101d           	moveb %a5@+,%d0
    2b7a:	0c00 0029      	cmpib #41,%d0
    2b7e:	6600 fdca      	bnew 294a <LAB_U002>
    2b82:	204c           	moveal %a4,%a0
    2b84:	222b 0000      	movel %a3@(0),%d1
    2b88:	6100 f028      	bsrw 1bb2 <LAB_22BA>
    2b8c:	2741 0000      	movel %d1,%a3@(0)
    2b90:	2248           	moveal %a0,%a1
    2b92:	3200           	movew %d0,%d1
    2b94:	205f           	moveal %sp@+,%a0
    2b96:	6100 f01a      	bsrw 1bb2 <LAB_22BA>
    2b9a:	4fef 0008      	lea %sp@(8),%sp
    2b9e:	2049           	moveal %a1,%a0
    2ba0:	6000 ee5e      	braw 1a00 <LAB_RTST>

00002ba4 <LAB_DupFmt>:
    2ba4:	226f 0004      	moveal %sp@(4),%a1
    2ba8:	3e29 0004      	movew %a1@(4),%d7
    2bac:	342f 000a      	movew %sp@(10),%d2
    2bb0:	3c2f 0008      	movew %sp@(8),%d6
    2bb4:	3206           	movew %d6,%d1
    2bb6:	9242           	subw %d2,%d1
    2bb8:	6202           	bhis 2bbc <LAB_D002>
    2bba:	d247           	addw %d7,%d1

00002bbc <LAB_D002>:
    2bbc:	6100 ee5c      	bsrw 1a1a <LAB_2115>
    2bc0:	6100 ee3e      	bsrw 1a00 <LAB_RTST>
    2bc4:	226f 0004      	moveal %sp@(4),%a1
    2bc8:	2251           	moveal %a1@,%a1
    2bca:	7800           	moveq #0,%d4

00002bcc <LAB_D00A>:
    2bcc:	11b1 2000 4000 	moveb %a1@(0000000000000000,%d2:w),%a0@(0000000000000000,%d4:w)
    2bd2:	5244           	addqw #1,%d4
    2bd4:	5242           	addqw #1,%d2
    2bd6:	be42           	cmpw %d2,%d7
    2bd8:	6602           	bnes 2bdc <LAB_D00E>
    2bda:	7400           	moveq #0,%d2

00002bdc <LAB_D00E>:
    2bdc:	bc42           	cmpw %d2,%d6
    2bde:	66ec           	bnes 2bcc <LAB_D00A>
    2be0:	4e75           	rts

00002be2 <LAB_ProcFo>:
    2be2:	226f 0004      	moveal %sp@(4),%a1
    2be6:	3e29 0004      	movew %a1@(4),%d7
    2bea:	2251           	moveal %a1@,%a1
    2bec:	3c2f 000a      	movew %sp@(10),%d6
    2bf0:	3f47 000c      	movew %d7,%sp@(12)
    2bf4:	7a00           	moveq #0,%d5
    2bf6:	7600           	moveq #0,%d3
    2bf8:	7400           	moveq #0,%d2

00002bfa <LAB_P004>:
    2bfa:	1031 6000      	moveb %a1@(0000000000000000,%d6:w),%d0
    2bfe:	0c00 002c      	cmpib #44,%d0
    2c02:	6742           	beqs 2c46 <LAB_P01A>
    2c04:	0c00 0023      	cmpib #35,%d0
    2c08:	6706           	beqs 2c10 <LAB_P008>
    2c0a:	0c00 0025      	cmpib #37,%d0
    2c0e:	6608           	bnes 2c18 <LAB_P00C>

00002c10 <LAB_P008>:
    2c10:	4a85           	tstl %d5
    2c12:	6a10           	bpls 2c24 <LAB_P00E>
    2c14:	5243           	addqw #1,%d3
    2c16:	602e           	bras 2c46 <LAB_P01A>

00002c18 <LAB_P00C>:
    2c18:	0c00 002b      	cmpib #43,%d0
    2c1c:	6706           	beqs 2c24 <LAB_P00E>
    2c1e:	0c00 002d      	cmpib #45,%d0
    2c22:	6604           	bnes 2c28 <LAB_P010>

00002c24 <LAB_P00E>:
    2c24:	8400           	orb %d0,%d2
    2c26:	601e           	bras 2c46 <LAB_P01A>

00002c28 <LAB_P010>:
    2c28:	0c00 002e      	cmpib #46,%d0
    2c2c:	6614           	bnes 2c42 <LAB_P018>
    2c2e:	4a85           	tstl %d5
    2c30:	6b14           	bmis 2c46 <LAB_P01A>
    2c32:	3006           	movew %d6,%d0
    2c34:	906f 000a      	subw %sp@(10),%d0
    2c38:	3f40 000c      	movew %d0,%sp@(12)
    2c3c:	7aff           	moveq #-1,%d5
    2c3e:	8400           	orb %d0,%d2
    2c40:	6004           	bras 2c46 <LAB_P01A>

00002c42 <LAB_P018>:
    2c42:	4a02           	tstb %d2
    2c44:	6608           	bnes 2c4e <LAB_P01E>

00002c46 <LAB_P01A>:
    2c46:	5246           	addqw #1,%d6
    2c48:	be46           	cmpw %d6,%d7
    2c4a:	62ae           	bhis 2bfa <LAB_P004>
    2c4c:	7c00           	moveq #0,%d6

00002c4e <LAB_P01E>:
    2c4e:	3f46 0008      	movew %d6,%sp@(8)
    2c52:	3f43 000e      	movew %d3,%sp@(14)
    2c56:	4e75           	rts

00002c58 <LAB_BINS>:
    2c58:	0c01 0021      	cmpib #33,%d1
    2c5c:	6400 dae0      	bccw 73e <LAB_FCER>
    2c60:	741f           	moveq #31,%d2
    2c62:	41eb 0000      	lea %a3@(0),%a0
    2c66:	7830           	moveq #48,%d4

00002c68 <NextB1>:
    2c68:	7600           	moveq #0,%d3
    2c6a:	e288           	lsrl #1,%d0
    2c6c:	d704           	addxb %d4,%d3
    2c6e:	1183 2000      	moveb %d3,%a0@(0000000000000000,%d2:w)
    2c72:	51ca fff4      	dbf %d2,2c68 <NextB1>

00002c76 <EndBHS>:
    2c76:	177c 0000 0000 	moveb #0,%a3@(0)
    2c7c:	4a01           	tstb %d1
    2c7e:	670e           	beqs 2c8e <NextB2>
    2c80:	4481           	negl %d1
    2c82:	0681 0000 0000 	addil #0,%d1
    2c88:	41f3 1000      	lea %a3@(0000000000000000,%d1:w),%a0
    2c8c:	600e           	bras 2c9c <BinPr>

00002c8e <NextB2>:
    2c8e:	1010           	moveb %a0@,%d0
    2c90:	670a           	beqs 2c9c <BinPr>
    2c92:	0c00 0030      	cmpib #48,%d0
    2c96:	660e           	bnes 2ca6 <GoPr>
    2c98:	5248           	addqw #1,%a0
    2c9a:	60f2           	bras 2c8e <NextB2>

00002c9c <BinPr>:
    2c9c:	43eb 0000      	lea %a3@(0),%a1
    2ca0:	b1c9           	cmpal %a1,%a0
    2ca2:	6602           	bnes 2ca6 <GoPr>
    2ca4:	5348           	subqw #1,%a0

00002ca6 <GoPr>:
    2ca6:	6000 ed12      	braw 19ba <LAB_20AE>

00002caa <LAB_HEXS>:
    2caa:	0c01 0009      	cmpib #9,%d1
    2cae:	6400 da8e      	bccw 73e <LAB_FCER>
    2cb2:	7407           	moveq #7,%d2
    2cb4:	41eb 0000      	lea %a3@(0),%a0
    2cb8:	7830           	moveq #48,%d4

00002cba <NextH1>:
    2cba:	1600           	moveb %d0,%d3
    2cbc:	e898           	rorl #4,%d0
    2cbe:	0203 000f      	andib #15,%d3
    2cc2:	1a03           	moveb %d3,%d5
    2cc4:	0605 00f6      	addib #-10,%d5
    2cc8:	c704           	abcd %d4,%d3
    2cca:	1183 2000      	moveb %d3,%a0@(0000000000000000,%d2:w)
    2cce:	51ca ffea      	dbf %d2,2cba <NextH1>
    2cd2:	60a2           	bras 2c76 <EndBHS>

00002cd4 <VEC_CC>:
    2cd4:	4a2b 0000      	tstb %a3@(0)
    2cd8:	661e           	bnes 2cf8 <RTS_022>
    2cda:	4eab 0000      	jsr %a3@(0)
    2cde:	640e           	bccs 2cee <LAB_FBA0>
    2ce0:	1740 0000      	moveb %d0,%a3@(0)
    2ce4:	177c 0020 0000 	moveb #32,%a3@(0)
    2cea:	6000 dec0      	braw bac <LAB_1636>

00002cee <LAB_FBA0>:
    2cee:	4a2b 0000      	tstb %a3@(0)
    2cf2:	6704           	beqs 2cf8 <RTS_022>
    2cf4:	532b 0000      	subqb #1,%a3@(0)

00002cf8 <RTS_022>:
    2cf8:	4e75           	rts

00002cfa <INGET>:
    2cfa:	4eab 0000      	jsr %a3@(0)
    2cfe:	650a           	bcss 2d0a <LAB_FB95>
    2d00:	102b 0000      	moveb %a3@(0),%d0
    2d04:	67f2           	beqs 2cf8 <RTS_022>
    2d06:	102b 0000      	moveb %a3@(0),%d0

00002d0a <LAB_FB95>:
    2d0a:	177c 0000 0000 	moveb #0,%a3@(0)
    2d10:	003c 0001      	orib #1,%ccr
    2d14:	4e75           	rts

00002d16 <LAB_MAX>:
    2d16:	6100 e518      	bsrw 1230 <LAB_EVEZ>
    2d1a:	4a2b 0000      	tstb %a3@(0)
    2d1e:	6b00 d9fe      	bmiw 71e <LAB_TMER>

00002d22 <LAB_MAXN>:
    2d22:	612e           	bsrs 2d52 <LAB_PHFA>
    2d24:	64fc           	bccs 2d22 <LAB_MAXN>
    2d26:	6100 f49e      	bsrw 21c6 <LAB_279B>
    2d2a:	60f6           	bras 2d22 <LAB_MAXN>

00002d2c <LAB_MIN>:
    2d2c:	6100 e502      	bsrw 1230 <LAB_EVEZ>
    2d30:	4a2b 0000      	tstb %a3@(0)
    2d34:	6b00 d9e8      	bmiw 71e <LAB_TMER>

00002d38 <LAB_MINN>:
    2d38:	6118           	bsrs 2d52 <LAB_PHFA>
    2d3a:	63fc           	blss 2d38 <LAB_MINN>
    2d3c:	6100 f488      	bsrw 21c6 <LAB_279B>
    2d40:	60f6           	bras 2d38 <LAB_MINN>

00002d42 <LAB_MMEC>:
    2d42:	0c00 0029      	cmpib #41,%d0
    2d46:	6600 da02      	bnew 74a <LAB_SNER>
    2d4a:	4fef 0004      	lea %sp@(4),%sp
    2d4e:	6000 e642      	braw 1392 <LAB_IGBY>

00002d52 <LAB_PHFA>:
    2d52:	6100 e640      	bsrw 1394 <LAB_GBYT>
    2d56:	0c00 002c      	cmpib #44,%d0
    2d5a:	66e6           	bnes 2d42 <LAB_MMEC>
    2d5c:	3f2b 0000      	movew %a3@(0),%sp@-
    2d60:	2f2b 0000      	movel %a3@(0),%sp@-
    2d64:	6100 e4ca      	bsrw 1230 <LAB_EVEZ>
    2d68:	4a2b 0000      	tstb %a3@(0)
    2d6c:	6b00 d9b0      	bmiw 71e <LAB_TMER>
    2d70:	275f 0000      	movel %sp@+,%a3@(0)
    2d74:	301f           	movew %sp@+,%d0
    2d76:	3740 0000      	movew %d0,%a3@(0)
    2d7a:	176b 0000 0000 	moveb %a3@(0),%a3@(0)
    2d80:	b12b 0000      	eorb %d0,%a3@(0)
    2d84:	6000 f4ac      	braw 2232 <LAB_27FA>

00002d88 <LAB_WDTH>:
    2d88:	0c00 002c      	cmpib #44,%d0
    2d8c:	672c           	beqs 2dba <LAB_TBSZ>
    2d8e:	6100 ef7e      	bsrw 1d0e <LAB_GTBY>
    2d92:	4a00           	tstb %d0
    2d94:	6712           	beqs 2da8 <LAB_NSTT>
    2d96:	0c00 0010      	cmpib #16,%d0
    2d9a:	6500 d9a2      	bcsw 73e <LAB_FCER>
    2d9e:	b02b 0000      	cmpb %a3@(0),%d0
    2da2:	6404           	bccs 2da8 <LAB_NSTT>
    2da4:	1740 0000      	moveb %d0,%a3@(0)

00002da8 <LAB_NSTT>:
    2da8:	1740 0000      	moveb %d0,%a3@(0)
    2dac:	6100 e5e6      	bsrw 1394 <LAB_GBYT>
    2db0:	672c           	beqs 2dde <WExit>
    2db2:	0c00 002c      	cmpib #44,%d0
    2db6:	6600 d992      	bnew 74a <LAB_SNER>

00002dba <LAB_TBSZ>:
    2dba:	6100 ef4e      	bsrw 1d0a <LAB_SGBY>
    2dbe:	4a00           	tstb %d0
    2dc0:	6b00 d97c      	bmiw 73e <LAB_FCER>
    2dc4:	0c00 0001      	cmpib #1,%d0
    2dc8:	6500 d974      	bcsw 73e <LAB_FCER>
    2dcc:	122b 0000      	moveb %a3@(0),%d1
    2dd0:	6708           	beqs 2dda <LAB_SVTB>
    2dd2:	b02b 0000      	cmpb %a3@(0),%d0
    2dd6:	6e00 d966      	bgtw 73e <LAB_FCER>

00002dda <LAB_SVTB>:
    2dda:	1740 0000      	moveb %d0,%a3@(0)

00002dde <WExit>:
    2dde:	102b 0000      	moveb %a3@(0),%d0
    2de2:	670a           	beqs 2dee <LAB_WDLP>
    2de4:	b02b 0000      	cmpb %a3@(0),%d0
    2de8:	6404           	bccs 2dee <LAB_WDLP>
    2dea:	1740 0000      	moveb %d0,%a3@(0)

00002dee <LAB_WDLP>:
    2dee:	902b 0000      	subb %a3@(0),%d0
    2df2:	64fa           	bccs 2dee <LAB_WDLP>
    2df4:	d02b 0000      	addb %a3@(0),%d0
    2df8:	d02b 0000      	addb %a3@(0),%d0
    2dfc:	4400           	negb %d0
    2dfe:	d02b 0000      	addb %a3@(0),%d0
    2e02:	1740 0000      	moveb %d0,%a3@(0)

00002e06 <RTS_023>:
    2e06:	4e75           	rts

00002e08 <LAB_SQR>:
    2e08:	4a2b 0000      	tstb %a3@(0)
    2e0c:	6b00 d930      	bmiw 73e <LAB_FCER>
    2e10:	4a2b 0000      	tstb %a3@(0)
    2e14:	67f0           	beqs 2e06 <RTS_023>
    2e16:	48e7 7800      	moveml %d1-%d4,%sp@-
    2e1a:	202b 0000      	movel %a3@(0),%d0
    2e1e:	7400           	moveq #0,%d2
    2e20:	2202           	movel %d2,%d1
    2e22:	761f           	moveq #31,%d3
    2e24:	082b 0000 0000 	btst #0,%a3@(0)
    2e2a:	6606           	bnes 2e32 <LAB_SQE2>

00002e2c <LAB_SQE1>:
    2e2c:	d080           	addl %d0,%d0
    2e2e:	d582           	addxl %d2,%d2
    2e30:	d281           	addl %d1,%d1

00002e32 <LAB_SQE2>:
    2e32:	d080           	addl %d0,%d0
    2e34:	d582           	addxl %d2,%d2
    2e36:	2801           	movel %d1,%d4
    2e38:	d884           	addl %d4,%d4
    2e3a:	5284           	addql #1,%d4
    2e3c:	b484           	cmpl %d4,%d2
    2e3e:	6504           	bcss 2e44 <LAB_SQNS>
    2e40:	9484           	subl %d4,%d2
    2e42:	5281           	addql #1,%d1

00002e44 <LAB_SQNS>:
    2e44:	51cb ffe6      	dbf %d3,2e2c <LAB_SQE1>
    2e48:	2741 0000      	movel %d1,%a3@(0)
    2e4c:	102b 0000      	moveb %a3@(0),%d0
    2e50:	0440 0080      	subiw #128,%d0
    2e54:	e248           	lsrw #1,%d0
    2e56:	6402           	bccs 2e5a <LAB_SQNA>
    2e58:	5240           	addqw #1,%d0

00002e5a <LAB_SQNA>:
    2e5a:	0640 0080      	addiw #128,%d0
    2e5e:	1740 0000      	moveb %d0,%a3@(0)
    2e62:	4cdf 001e      	moveml %sp@+,%d1-%d4
    2e66:	6000 f09c      	braw 1f04 <LAB_24D5>

00002e6a <LAB_VARPTR>:
    2e6a:	101d           	moveb %a5@+,%d0

00002e6c <LAB_VARCALL>:
    2e6c:	6100 e73c      	bsrw 15aa <LAB_GVAR>
    2e70:	6100 e50e      	bsrw 1380 <LAB_1BFB>
    2e74:	2008           	movel %a0,%d0
    2e76:	6000 ea24      	braw 189c <LAB_AYFC>

00002e7a <LAB_RAM>:
    2e7a:	41eb 0000      	lea %a3@(0),%a0
    2e7e:	2008           	movel %a0,%d0
    2e80:	6000 ea1a      	braw 189c <LAB_AYFC>

00002e84 <LAB_PI>:
    2e84:	277c c90f daa2 	movel #-921707870,%a3@(0)
    2e8a:	0000 
    2e8c:	377c 8200 0000 	movew #-32256,%a3@(0)
    2e92:	4e75           	rts

00002e94 <LAB_TWOPI>:
    2e94:	277c c90f daa2 	movel #-921707870,%a3@(0)
    2e9a:	0000 
    2e9c:	377c 8300 0000 	movew #-32000,%a3@(0)
    2ea2:	4e75           	rts

00002ea4 <LAB_2887>:
    2ea4:	48e7 7c00      	moveml %d1-%d5,%sp@-
    2ea8:	7200           	moveq #0,%d1
    2eaa:	2601           	movel %d1,%d3
    2eac:	2801           	movel %d1,%d4
    2eae:	1741 0000      	moveb %d1,%a3@(0)
    2eb2:	1741 0000      	moveb %d1,%a3@(0)
    2eb6:	1741 0000      	moveb %d1,%a3@(0)
    2eba:	6100 e4d8      	bsrw 1394 <LAB_GBYT>
    2ebe:	653c           	bcss 2efc <LAB_28FE>
    2ec0:	0c00 002d      	cmpib #45,%d0
    2ec4:	6608           	bnes 2ece <LAB_289A>
    2ec6:	177c 00ff 0000 	moveb #-1,%a3@(0)
    2ecc:	6006           	bras 2ed4 <LAB_289C>

00002ece <LAB_289A>:
    2ece:	0c00 002b      	cmpib #43,%d0
    2ed2:	6606           	bnes 2eda <LAB_289D>

00002ed4 <LAB_289C>:
    2ed4:	6100 e4bc      	bsrw 1392 <LAB_IGBY>
    2ed8:	6522           	bcss 2efc <LAB_28FE>

00002eda <LAB_289D>:
    2eda:	0c00 002e      	cmpib #46,%d0
    2ede:	6700 0092      	beqw 2f72 <LAB_2904>
    2ee2:	0c00 0024      	cmpib #36,%d0
    2ee6:	6700 010a      	beqw 2ff2 <LAB_CHEX>
    2eea:	0c00 0025      	cmpib #37,%d0
    2eee:	6700 0164      	beqw 3054 <LAB_CBIN>
    2ef2:	6000 008c      	braw 2f80 <LAB_2Y01>

00002ef6 <LAB_28FD>:
    2ef6:	6100 e49a      	bsrw 1392 <LAB_IGBY>
    2efa:	646c           	bccs 2f68 <LAB_2902>

00002efc <LAB_28FE>:
    2efc:	6100 01a8      	bsrw 30a6 <d1x10>
    2f00:	64f4           	bccs 2ef6 <LAB_28FD>

00002f02 <LAB_28FF>:
    2f02:	5283           	addql #1,%d3
    2f04:	6100 e48c      	bsrw 1392 <LAB_IGBY>
    2f08:	65f8           	bcss 2f02 <LAB_28FF>
    2f0a:	0c00 002e      	cmpib #46,%d0
    2f0e:	6606           	bnes 2f16 <LAB_2901>

00002f10 <LAB_2900>:
    2f10:	6100 e480      	bsrw 1392 <LAB_IGBY>
    2f14:	65fa           	bcss 2f10 <LAB_2900>

00002f16 <LAB_2901>:
    2f16:	0c00 0045      	cmpib #69,%d0
    2f1a:	6664           	bnes 2f80 <LAB_2Y01>
    2f1c:	6100 e474      	bsrw 1392 <LAB_IGBY>
    2f20:	6528           	bcss 2f4a <LAB_2X04>
    2f22:	0c00 002d      	cmpib #45,%d0
    2f26:	6706           	beqs 2f2e <LAB_2X01>
    2f28:	0c00 00b3      	cmpib #-77,%d0
    2f2c:	6608           	bnes 2f36 <LAB_2X02>

00002f2e <LAB_2X01>:
    2f2e:	177c 00ff 0000 	moveb #-1,%a3@(0)
    2f34:	600e           	bras 2f44 <LAB_2X03>

00002f36 <LAB_2X02>:
    2f36:	0c00 002b      	cmpib #43,%d0
    2f3a:	6708           	beqs 2f44 <LAB_2X03>
    2f3c:	0c00 00b2      	cmpib #-78,%d0
    2f40:	6600 d808      	bnew 74a <LAB_SNER>

00002f44 <LAB_2X03>:
    2f44:	6100 e44c      	bsrw 1392 <LAB_IGBY>
    2f48:	6436           	bccs 2f80 <LAB_2Y01>

00002f4a <LAB_2X04>:
    2f4a:	c8fc 000a      	muluw #10,%d4
    2f4e:	0280 0000 00ff 	andil #255,%d0
    2f54:	0400 0030      	subib #48,%d0
    2f58:	d880           	addl %d0,%d4
    2f5a:	0c04 0030      	cmpib #48,%d4
    2f5e:	6fe4           	bles 2f44 <LAB_2X03>

00002f60 <LAB_2X05>:
    2f60:	6100 e430      	bsrw 1392 <LAB_IGBY>
    2f64:	65fa           	bcss 2f60 <LAB_2X05>
    2f66:	6018           	bras 2f80 <LAB_2Y01>

00002f68 <LAB_2902>:
    2f68:	0c00 002e      	cmpib #46,%d0
    2f6c:	6704           	beqs 2f72 <LAB_2904>
    2f6e:	60a6           	bras 2f16 <LAB_2901>

00002f70 <LAB_2903>:
    2f70:	5383           	subql #1,%d3

00002f72 <LAB_2904>:
    2f72:	6100 e41e      	bsrw 1392 <LAB_IGBY>
    2f76:	649e           	bccs 2f16 <LAB_2901>
    2f78:	6100 012c      	bsrw 30a6 <d1x10>
    2f7c:	64f2           	bccs 2f70 <LAB_2903>
    2f7e:	6090           	bras 2f10 <LAB_2900>

00002f80 <LAB_2Y01>:
    2f80:	4a2b 0000      	tstb %a3@(0)
    2f84:	6a02           	bpls 2f88 <LAB_2Y02>
    2f86:	4484           	negl %d4

00002f88 <LAB_2Y02>:
    2f88:	d883           	addl %d3,%d4
    2f8a:	7620           	moveq #32,%d3
    2f8c:	4a81           	tstl %d1
    2f8e:	6752           	beqs 2fe2 <LAB_rtn0>
    2f90:	6b08           	bmis 2f9a <LAB_2Y04>
    2f92:	5383           	subql #1,%d3

00002f94 <LAB_2Y03>:
    2f94:	d281           	addl %d1,%d1
    2f96:	5bcb fffc      	dbmi %d3,2f94 <LAB_2Y03>

00002f9a <LAB_2Y04>:
    2f9a:	0c84 0000 0026 	cmpil #38,%d4
    2fa0:	6e00 d798      	bgtw 73a <LAB_OFER>
    2fa4:	0c84 ffff ffda 	cmpil #-38,%d4
    2faa:	6d34           	blts 2fe0 <LAB_ret0>
    2fac:	4484           	negl %d4
    2fae:	c9fc 0006      	mulsw #6,%d4
    2fb2:	2f08           	movel %a0,%sp@-
    2fb4:	41fa 0210      	lea %pc@(31c6 <LAB_P_10>),%a0
    2fb8:	1770 4000 0000 	moveb %a0@(0000000000000000,%d4:w),%a3@(0)
    2fbe:	2770 4002 0000 	movel %a0@(0000000000000002,%d4:w),%a3@(0)
    2fc4:	205f           	moveal %sp@+,%a0
    2fc6:	0a03 0080      	eorib #-128,%d3
    2fca:	2741 0000      	movel %d1,%a3@(0)
    2fce:	1743 0000      	moveb %d3,%a3@(0)
    2fd2:	176b 0000 0000 	moveb %a3@(0),%a3@(0)
    2fd8:	4cdf 003e      	moveml %sp@+,%d1-%d5
    2fdc:	6000 f04e      	braw 202c <LAB_MULTIPLY>

00002fe0 <LAB_ret0>:
    2fe0:	7200           	moveq #0,%d1

00002fe2 <LAB_rtn0>:
    2fe2:	2601           	movel %d1,%d3
    2fe4:	1743 0000      	moveb %d3,%a3@(0)
    2fe8:	2741 0000      	movel %d1,%a3@(0)
    2fec:	4cdf 003e      	moveml %sp@+,%d1-%d5
    2ff0:	4e75           	rts

00002ff2 <LAB_CHEX>:
    2ff2:	177c 0040 0000 	moveb #64,%a3@(0)
    2ff8:	7620           	moveq #32,%d3

00002ffa <LAB_CHXX>:
    2ffa:	6100 e396      	bsrw 1392 <LAB_IGBY>
    2ffe:	6514           	bcss 3014 <LAB_ISHN>
    3000:	0000 0020      	orib #32,%d0
    3004:	0400 0061      	subib #97,%d0
    3008:	652a           	bcss 3034 <LAB_CHX3>
    300a:	0c00 0006      	cmpib #6,%d0
    300e:	6424           	bccs 3034 <LAB_CHX3>
    3010:	0600 003a      	addib #58,%d0

00003014 <LAB_ISHN>:
    3014:	616c           	bsrs 3082 <d1x16>
    3016:	64e2           	bccs 2ffa <LAB_CHXX>

00003018 <LAB_CHX1>:
    3018:	5883           	addql #4,%d3
    301a:	6900 d71e      	bvsw 73a <LAB_OFER>
    301e:	6100 e372      	bsrw 1392 <LAB_IGBY>
    3022:	65f4           	bcss 3018 <LAB_CHX1>
    3024:	0000 0020      	orib #32,%d0
    3028:	0400 0061      	subib #97,%d0
    302c:	6506           	bcss 3034 <LAB_CHX3>
    302e:	0c00 0006      	cmpib #6,%d0
    3032:	65e4           	bcss 3018 <LAB_CHX1>

00003034 <LAB_CHX3>:
    3034:	4a81           	tstl %d1
    3036:	67aa           	beqs 2fe2 <LAB_rtn0>
    3038:	6b08           	bmis 3042 <LAB_exxf>
    303a:	5383           	subql #1,%d3

0000303c <LAB_CHX2>:
    303c:	d281           	addl %d1,%d1
    303e:	5bcb fffc      	dbmi %d3,303c <LAB_CHX2>

00003042 <LAB_exxf>:
    3042:	0a03 0080      	eorib #-128,%d3
    3046:	1743 0000      	moveb %d3,%a3@(0)
    304a:	2741 0000      	movel %d1,%a3@(0)
    304e:	4cdf 003e      	moveml %sp@+,%d1-%d5

00003052 <RTS_024>:
    3052:	4e75           	rts

00003054 <LAB_CBIN>:
    3054:	177c 0040 0000 	moveb #64,%a3@(0)
    305a:	7620           	moveq #32,%d3

0000305c <LAB_CBXN>:
    305c:	6100 e334      	bsrw 1392 <LAB_IGBY>
    3060:	64d2           	bccs 3034 <LAB_CHX3>
    3062:	0c00 0032      	cmpib #50,%d0
    3066:	64cc           	bccs 3034 <LAB_CHX3>
    3068:	2401           	movel %d1,%d2
    306a:	6124           	bsrs 3090 <d1x02>
    306c:	64ee           	bccs 305c <LAB_CBXN>

0000306e <LAB_CBX1>:
    306e:	5283           	addql #1,%d3
    3070:	6900 d6c8      	bvsw 73a <LAB_OFER>
    3074:	6100 e31c      	bsrw 1392 <LAB_IGBY>
    3078:	64ba           	bccs 3034 <LAB_CHX3>
    307a:	0c00 0032      	cmpib #50,%d0
    307e:	65ee           	bcss 306e <LAB_CBX1>
    3080:	60b2           	bras 3034 <LAB_CHX3>

00003082 <d1x16>:
    3082:	2401           	movel %d1,%d2
    3084:	d482           	addl %d2,%d2
    3086:	65ca           	bcss 3052 <RTS_024>
    3088:	d482           	addl %d2,%d2
    308a:	65c6           	bcss 3052 <RTS_024>
    308c:	d482           	addl %d2,%d2
    308e:	65c2           	bcss 3052 <RTS_024>

00003090 <d1x02>:
    3090:	d482           	addl %d2,%d2
    3092:	65be           	bcss 3052 <RTS_024>
    3094:	0280 0000 00ff 	andil #255,%d0
    309a:	0400 0030      	subib #48,%d0
    309e:	d480           	addl %d0,%d2
    30a0:	65b0           	bcss 3052 <RTS_024>
    30a2:	2202           	movel %d2,%d1
    30a4:	4e75           	rts

000030a6 <d1x10>:
    30a6:	2401           	movel %d1,%d2
    30a8:	d482           	addl %d2,%d2
    30aa:	6508           	bcss 30b4 <RTS_025>
    30ac:	d482           	addl %d2,%d2
    30ae:	6504           	bcss 30b4 <RTS_025>
    30b0:	d481           	addl %d1,%d2
    30b2:	64dc           	bccs 3090 <d1x02>

000030b4 <RTS_025>:
    30b4:	4e75           	rts

000030b6 <Bin2dec>:
    30b6:	3b9a ca00      	movew %a2@+,%a5@(0000000000000000,%a4:l:2)
    30ba:	05f5 e100      	bset %d2,%a5@(0000000000000000,%fp:w)
    30be:	0098 9680 000f 	oril #-1769996273,%a0@+
    30c4:	4240           	clrw %d0
    30c6:	0001 86a0      	orib #-96,%d1
    30ca:	0000 2710      	orib #16,%d0
    30ce:	0000 03e8      	orib #-24,%d0
    30d2:	0000 0064      	orib #100,%d0
    30d6:	0000 000a      	orib #10,%d0
    30da:	0000 0000      	orib #0,%d0

000030de <LAB_RSED>:
    30de:	332e 3232      	movew %fp@(12850),%a1@-
    30e2:	ff00           	.short 0xff00
    30e4:	9676 9951      	subw %fp@(0000000000000000)@(0000000000000000),%d3
    30e8:	fb00           	.short 0xfb00
    30ea:	f0bd           	.short 0xf0bd
    30ec:	c21b           	andb %a3@+,%d1
    30ee:	f800           	.short 0xf800
    30f0:	c097           	andl %sp@,%d0
    30f2:	ce7c f500      	andw #-2816,%d7
    30f6:	9a13           	subb %a3@,%d5
    30f8:	0b96           	bclr %d5,%fp@
    30fa:	f100           	.short 0xf100
    30fc:	f684           	.short 0xf684
    30fe:	df57           	addw %d7,%sp@
    3100:	ee00           	asrb #7,%d0
    3102:	c537 1912 eb00 	andb %d2,%sp@(0000000000000000,%d1:l)@(ffffffffffffeb00)
    3108:	9dc5           	subal %d5,%fp
    310a:	ada8           	.short 0xada8
    310c:	e700           	aslb #3,%d0
    310e:	fc6f           	.short 0xfc6f
    3110:	7c40           	moveq #64,%d6
    3112:	e400           	asrb #2,%d0
    3114:	c9f2 c9cd      	mulsw @(0000000000000000)@(0000000000000000),%d4
    3118:	e100           	aslb #8,%d0
    311a:	a18f           	.short 0xa18f
    311c:	07d7           	bset %d3,%sp@
    311e:	de00           	addb %d0,%d7
    3120:	813f           	.short 0x813f
    3122:	3979 da00 cecb 	movew da00cecb <KFCTSEED+0xb35cfdbb>,%a4@(-28888)
    3128:	8f28 
    312a:	d700           	addxb %d0,%d3
    312c:	a56f           	.short 0xa56f
    312e:	a5ba           	.short 0xa5ba
    3130:	d400           	addb %d0,%d2
    3132:	8459           	orw %a1@+,%d2
    3134:	5161           	subqw #8,%a1@-
    3136:	d000           	addb %d0,%d0
    3138:	d3c2           	addal %d2,%a1
    313a:	1bcf           	.short 0x1bcf
    313c:	cd00           	abcd %d0,%d6
    313e:	a968           	.short 0xa968
    3140:	163f           	.short 0x163f
    3142:	ca00           	andb %d0,%d5
    3144:	8786           	.short 0x8786
    3146:	7832           	moveq #50,%d4
    3148:	c600           	andb %d0,%d3
    314a:	d8d7           	addaw %sp@,%a4
    314c:	26b7 c300      	movel %sp@(0000000000000000,%a4:w:2),%a3@
    3150:	ad78           	.short 0xad78
    3152:	ebc6           	.short 0xebc6
    3154:	c000           	andb %d0,%d0
    3156:	8ac7           	divuw %d7,%d5
    3158:	2305           	movel %d5,%a1@-
    315a:	bc00           	cmpb %d0,%d6
    315c:	de0b           	.short 0xde0b
    315e:	6b3a           	bmis 319a <LAB_RSED+0xbc>
    3160:	b900           	eorb %d4,%d0
    3162:	b1a2           	eorl %d0,%a2@-
    3164:	bc2f b600      	cmpb %sp@(-18944),%d6
    3168:	8e1b           	orb %a3@+,%d7
    316a:	c9bf           	.short 0xc9bf
    316c:	b200           	cmpb %d0,%d1
    316e:	e35f           	rolw #1,%d7
    3170:	a932           	.short 0xa932
    3172:	af00           	.short 0xaf00
    3174:	b5e6           	cmpal %fp@-,%a2
    3176:	20f5 ac00      	movel %a5@(0000000000000000,%a2:l:4),%a0@+
    317a:	9184           	subxl %d4,%d0
    317c:	e72a           	lslb %d3,%d2
    317e:	a800           	.short 0xa800
    3180:	e8d4           	.short 0xe8d4
    3182:	a510           	.short 0xa510
    3184:	a500           	.short 0xa500
    3186:	ba43           	cmpw %d3,%d5
    3188:	b740           	eorw %d3,%d0
    318a:	a200           	.short 0xa200
    318c:	9502           	subxb %d2,%d2
    318e:	f900           	.short 0xf900
    3190:	9e00           	subb %d0,%d7
    3192:	ee6b           	lsrw %d7,%d3
    3194:	2800           	movel %d0,%d4
    3196:	9b00           	subxb %d0,%d5
    3198:	bebc 2000 9800 	cmpl #536909824,%d7
    319e:	9896           	subl %fp@,%d4
    31a0:	8000           	orb %d0,%d0
    31a2:	9400           	subb %d0,%d2
    31a4:	f424           	.short 0xf424
    31a6:	0000 9100      	orib #0,%d0
    31aa:	c350           	andw %d1,%a0@
    31ac:	0000 8e00      	orib #0,%d0
    31b0:	9c40           	subw %d0,%d6
    31b2:	0000 8a00      	orib #0,%d0
    31b6:	fa00           	.short 0xfa00
    31b8:	0000 8700      	orib #0,%d0
    31bc:	c800           	andb %d0,%d4
    31be:	0000 8400      	orib #0,%d0
    31c2:	a000           	.short 0xa000
	...

000031c6 <LAB_P_10>:
    31c6:	8100           	sbcd %d0,%d0
    31c8:	8000           	orb %d0,%d0
    31ca:	0000 7d00      	orib #0,%d0
    31ce:	cccc           	.short 0xcccc
    31d0:	cccd           	.short 0xcccd
    31d2:	7a00           	moveq #0,%d5
    31d4:	a3d7           	.short 0xa3d7
    31d6:	0a3d           	.short 0x0a3d
    31d8:	7700           	.short 0x7700
    31da:	8312           	orb %d1,%a2@
    31dc:	6e98           	bgts 3176 <LAB_RSED+0x98>
    31de:	7300           	.short 0x7300
    31e0:	d1b7 1759      	addl %d0,%sp@(0000000000000000)@(0000000000000000)
    31e4:	7000           	moveq #0,%d0
    31e6:	a7c5           	.short 0xa7c5
    31e8:	ac47           	.short 0xac47
    31ea:	6d00 8637      	bltw ffffb823 <KFCTSEED+0xd95be713>
    31ee:	bd06           	eorb %d6,%d6
    31f0:	6900 d6bf      	bvsw 8b1 <LAB_1378+0x7>
    31f4:	94d6           	subaw %fp@,%a2
    31f6:	6600 abcc      	bnew ffffddc4 <KFCTSEED+0xd95c0cb4>
    31fa:	7712           	.short 0x7712
    31fc:	6300 8970      	blsw ffffbb6e <KFCTSEED+0xd95bea5e>
    3200:	5f41           	subqw #7,%d1
    3202:	5f00           	subqb #7,%d0
    3204:	dbe6           	addal %fp@-,%a5
    3206:	fecf           	.short 0xfecf
    3208:	5c00           	addqb #6,%d0
    320a:	afeb           	.short 0xafeb
    320c:	ff0c           	.short 0xff0c
    320e:	5900           	subqb #4,%d0
    3210:	8cbc cc09 5500 	orl #-871803648,%d6
    3216:	e12e           	lslb %d0,%d6
    3218:	1342 5200      	moveb %d2,%a1@(20992)
    321c:	b424           	cmpb %a4@-,%d2
    321e:	dc35 4f00      	addb %a5@(0000000000000000,%d4:l:8),%d6
    3222:	901d           	subb %a5@+,%d0
    3224:	7cf7           	moveq #-9,%d6
    3226:	4b00           	chkl %d0,%d5
    3228:	e695           	roxrl #3,%d5
    322a:	94bf           	.short 0x94bf
    322c:	4800           	nbcd %d0
    322e:	b877 aa32      	cmpw %sp@(0000000000000032,%a2:l:2),%d4
    3232:	4500           	chkl %d0,%d2
    3234:	9392           	subl %d1,%a2@
    3236:	ee8f           	lsrl #7,%d7
    3238:	4100           	chkl %d0,%d0
    323a:	ec1e           	rorb #6,%d6
    323c:	4a7e           	.short 0x4a7e
    323e:	3e00           	movew %d0,%d7
    3240:	bce5           	cmpaw %a5@-,%fp
    3242:	0865 3b00      	bchg #0,%a5@-
    3246:	971d           	subb %d3,%a5@+
    3248:	a050           	.short 0xa050
    324a:	3700           	movew %d0,%a3@-
    324c:	f1c9           	.short 0xf1c9
    324e:	0081 3400 c16d 	oril #872464749,%d1
    3254:	9a01           	subb %d1,%d5
    3256:	3100           	movew %d0,%a0@-
    3258:	9abe           	.short 0x9abe
    325a:	14cd           	.short 0x14cd
    325c:	2d00           	movel %d0,%fp@-
    325e:	f796           	.short 0xf796
    3260:	87ae 2a00      	orl %d3,%fp@(10752)
    3264:	c612           	andb %a2@,%d3
    3266:	0625 2700      	addib #0,%a5@-
    326a:	9e74 d1b8 2300 	subw @(000000002300fd87,%a5:w),%d7
    3270:	fd87 
    3272:	b5f3 2000      	cmpal %a3@(0000000000000000,%d2:w),%a2
    3276:	cad2           	muluw %a2@,%d5
    3278:	f7f5           	.short 0xf7f5
    327a:	1d00           	moveb %d0,%fp@-
    327c:	a242           	.short 0xa242
    327e:	5ff7 1a00      	sle %sp@(0000000000000000,%d1:l:2)
    3282:	81ce           	.short 0x81ce
    3284:	b32c 1600      	eorb %d1,%a4@(5632)
    3288:	cfb1 1ead      	andl %d7,%a1@(ffffffffffffffad,%d1:l:8)
    328c:	1300           	moveb %d0,%a1@-
    328e:	a627           	.short 0xa627
    3290:	4bbe           	.short 0x4bbe
    3292:	1000           	moveb %d0,%d0
    3294:	84ec 3c98      	divuw %a4@(15512),%d2
    3298:	0c00 d4ad      	cmpib #-83,%d0
    329c:	2dc0           	.short 0x2dc0
    329e:	0900           	btst %d4,%d0
    32a0:	aa24           	.short 0xaa24
    32a2:	2499           	movel %a1@+,%a2@
    32a4:	0600 881c      	addib #28,%d0
    32a8:	ea14           	roxrb #5,%d4
    32aa:	0200 d9c7      	andib #-57,%d0
    32ae:	dced 4dba      	addaw %a5@(19898),%fp
    32b2:	76d4           	moveq #-44,%d3

000032b4 <TAB_SNCO>:
    32b4:	2000           	movel %d0,%d0
    32b6:	0000 12e4      	orib #-28,%d0
    32ba:	051e           	btst %d2,%fp@+
    32bc:	09fb           	.short 0x09fb
    32be:	385c           	moveaw %a4@+,%a4
    32c0:	0511           	btst %d2,%a1@
    32c2:	11d5 028b      	moveb %a5@,28b <VECTABLE+0x9f>
    32c6:	0d44           	bchg %d6,%d4
    32c8:	0145           	bchg %d0,%d5
    32ca:	d7e2           	addal %a2@-,%a3
    32cc:	00a2 f61f 0051 	oril #-165740463,%a2@-
    32d2:	7c56           	moveq #86,%d6
    32d4:	0028 be54 0014 	orib #84,%a0@(20)
    32da:	5f2f 000a      	subqb #7,%sp@(10)
    32de:	2f99 0005      	movel %a1@+,%sp@(0000000000000005,%d0:w)
    32e2:	17cd           	.short 0x17cd
    32e4:	0002 8be7      	orib #-25,%d2
    32e8:	0001 45f4      	orib #-12,%d1
    32ec:	0000 a2fa      	orib #-6,%d0
    32f0:	0000 517d      	orib #125,%d0
    32f4:	0000 28bf      	orib #-65,%d0
    32f8:	0000 1460      	orib #96,%d0
    32fc:	0000 0a30      	orib #48,%d0
    3300:	0000 0518      	orib #24,%d0
    3304:	0000 028c      	orib #-116,%d0
    3308:	0000 0146      	orib #70,%d0
    330c:	0000 00a3      	orib #-93,%d0
    3310:	0000 0052      	orib #82,%d0
    3314:	0000 0029      	orib #41,%d0
    3318:	0000 0015      	orib #21,%d0
    331c:	0000 000b      	orib #11,%d0
    3320:	0000 0006      	orib #6,%d0
    3324:	0000 0003      	orib #3,%d0
    3328:	0000 0002      	orib #2,%d0
    332c:	0000 0001      	orib #1,%d0
    3330:	0000 0001      	orib #1,%d0

00003334 <TAB_ATNC>:
    3334:	1dac 6705 0fad 	moveb %a4@(26373),@(ffffffffffffbafd)@(0000000000000000,%d0:l:8)
    333a:	bafd 
    333c:	07f5 6ea7      	bset %d3,%a5@(ffffffffffffffa7,%d6:l:8)
    3340:	03fe           	.short 0x03fe
    3342:	ab77           	.short 0xab77
    3344:	01ff           	.short 0x01ff
    3346:	d55c           	addw %d2,%a4@+
    3348:	00ff           	.short 0x00ff
    334a:	faab           	.short 0xfaab
    334c:	007f           	.short 0x007f
    334e:	ff55           	.short 0xff55
    3350:	003f           	.short 0x003f
    3352:	ffeb           	.short 0xffeb
    3354:	001f fffd      	orib #-3,%sp@+
    3358:	0010 0000      	orib #0,%a0@
    335c:	0008           	.short 0x0008
    335e:	0000 0004      	orib #4,%d0
    3362:	0000 0002      	orib #2,%d0
    3366:	0000 0001      	orib #1,%d0
    336a:	0000 0000      	orib #0,%d0
    336e:	8000           	orb %d0,%d0
    3370:	0000 4000      	orib #0,%d0
    3374:	0000 2000      	orib #0,%d0
    3378:	0000 1000      	orib #0,%d0
    337c:	0000 0800      	orib #0,%d0
    3380:	0000 0400      	orib #0,%d0
    3384:	0000 0200      	orib #0,%d0
    3388:	0000 0100      	orib #0,%d0
    338c:	0000 0080      	orib #-128,%d0
    3390:	0000 0040      	orib #64,%d0
    3394:	0000 0020      	orib #32,%d0
    3398:	0000 0010      	orib #16,%d0
    339c:	0000 0008      	orib #8,%d0
    33a0:	0000 0004      	orib #4,%d0
    33a4:	0000 0002      	orib #2,%d0
    33a8:	0000 0001      	orib #1,%d0

000033ac <LAB_1D96>:
	...

000033b4 <TAB_HTHET>:
    33b4:	2327           	movel %sp@-,%a1@-
    33b6:	d4f4 1058      	addaw %a4@(0000000000000058,%d1:w),%a2
    33ba:	aefa           	.short 0xaefa
    33bc:	080a           	.short 0x080a
    33be:	c48e           	.short 0xc48e
    33c0:	0401 5622      	subib #34,%d1
    33c4:	0200 2ab0      	andib #-80,%d0
    33c8:	0100           	btst %d0,%d0
    33ca:	0554           	bchg %d2,%a4@
    33cc:	0080 00aa 0040 	oril #11141184,%d0
    33d2:	0014 0020      	orib #32,%a4@
    33d6:	0002 0010      	orib #16,%d2
    33da:	0000 0008      	orib #8,%d0
    33de:	0000 0004      	orib #4,%d0
    33e2:	0000 0002      	orib #2,%d0
    33e6:	0000 0001      	orib #1,%d0
    33ea:	0000 0000      	orib #0,%d0
    33ee:	8000           	orb %d0,%d0
    33f0:	0000 4000      	orib #0,%d0
    33f4:	0000 2000      	orib #0,%d0
    33f8:	0000 1000      	orib #0,%d0
    33fc:	0000 0800      	orib #0,%d0
    3400:	0000 0400      	orib #0,%d0
    3404:	0000 0200      	orib #0,%d0
    3408:	0000 0100      	orib #0,%d0
    340c:	0000 0080      	orib #-128,%d0
    3410:	0000 0040      	orib #64,%d0
    3414:	0000 0020      	orib #32,%d0
    3418:	0000 0010      	orib #16,%d0
    341c:	0000 0008      	orib #8,%d0
    3420:	0000 0004      	orib #4,%d0
    3424:	0000 0002      	orib #2,%d0
    3428:	0000 0001      	orib #1,%d0
	...

00003434 <LAB_CTBL>:
    3434:	d780           	addxl %d0,%d3
    3436:	d6b0 dd2c d8d4 	addl %a0@(ffffffffffffd8d4)@(0000000000000000,%a5:l:4),%d3
    343c:	dc20           	addb %a0@-,%d6
    343e:	e108           	lslb #8,%d0
    3440:	dc46           	addw %d6,%d6
    3442:	da4e           	addw %fp,%d5
    3444:	d9ec d83c      	addal %a4@(-10180),%a4
    3448:	d804           	addb %d4,%d4
    344a:	d8fc d7ae      	addaw #-10322,%a4
    344e:	d82a d8c0      	addb %a2@(-10048),%d4
    3452:	d972 d788      	addw %d4,@(0000000000000000,%a5:w:8)
    3456:	d97a           	.short 0xd97a
    3458:	d7dc           	addal %a4@+,%a3
    345a:	d9f2 ea1c      	addal %a2@(000000000000001c,%fp:l:2),%a4
    345e:	ea0a           	lsrb #5,%d2
    3460:	ea0e           	lsrb #5,%d6
    3462:	e49a           	rorl #2,%d2
    3464:	e98a           	lsll #4,%d2
    3466:	e9ba           	roll %d4,%d2
    3468:	e9c0           	.short 0xe9c0
    346a:	ea12           	roxrb #5,%d2
    346c:	d818           	addb %a0@+,%d4
    346e:	d86a dae6      	addw %a2@(-9498),%d4
    3472:	d7e6           	addal %fp@-,%a3
    3474:	d5fc d5f8 d5b0 	addal #-705112656,%a2
    347a:	f954           	.short 0xf954
    347c:	daac e9d4      	addl %a4@(-5676),%d5
    3480:	f49e           	.short 0xf49e
    3482:	f4ae           	.short 0xf4ae

00003484 <LAB_FTPP>:
    3484:	dfb6 dfb6 dfb6 	addl %d7,@(ffffffffdfb6ddac)@(ffffffffffffdef8,%a5:l:8)
    348a:	ddac def8 
    348e:	def8 dfb6      	addaw ffffdfb6 <KFCTSEED+0xd95c0ea6>,%sp
    3492:	dfb6 dfb6 dfb6 	addl %d7,@(ffffffffdfb6dfb6)@(ffffffffffffdfb6,%a5:l:8)
    3498:	dfb6 dfb6 
    349c:	dfb6 dfb6 dfb6 	addl %d7,@(ffffffffdfb6dfb6)@(ffffffffffffdfb6,%a5:l:8)
    34a2:	dfb6 dfb6 
    34a6:	dfa8 dfb6      	addl %d7,%a0@(-8266)
    34aa:	dfa8 dfa8      	addl %d7,%a0@(-8280)
    34ae:	dfa8 dfa8      	addl %d7,%a0@(-8280)
    34b2:	dfb6 dff0 dff0 	addl %d7,@(ffffffffdff00000)
    34b8:	0000 
    34ba:	0000 0000      	orib #0,%d0
    34be:	dfc4           	addal %d4,%sp
    34c0:	dfc4           	addal %d4,%sp
    34c2:	dfc4           	addal %d4,%sp
    34c4:	0000 0000      	orib #0,%d0
    34c8:	dfce           	addal %fp,%sp
    34ca:	dfce           	addal %fp,%sp
    34cc:	dfce           	addal %fp,%sp
    34ce:	ddac       	addl %d6,%a4@(-4792)

000034d0 <LAB_FTBL>:
    34d0:	ed48           	lslw #6,%d0
    34d2:	edce           	.short 0xedce
    34d4:	ed5a           	rolw #6,%d2
    34d6:	e966           	aslw %d4,%d6
    34d8:	e3b6           	roxll %d1,%d6
    34da:	e3e8 f938      	lslw %a0@(-1736)
    34de:	f21a           	.short 0xf21a
    34e0:	ea6a           	lsrw %d5,%d2
    34e2:	f100           	.short 0xf100
    34e4:	f26e           	.short 0xf26e
    34e6:	f286 f24c      	fbogl 2734 <LAB_TAN+0x18>
    34ea:	f34c           	.short 0xf34c
    34ec:	e8e2           	.short 0xe8e2
    34ee:	e8f4           	.short 0xe8f4
    34f0:	e90a           	lslb #4,%d2
    34f2:	e822           	asrb %d4,%d2
    34f4:	e4e6           	roxrw %fp@-
    34f6:	e86a           	lsrw %d4,%d2
    34f8:	e82a           	lsrb %d4,%d2
    34fa:	e7d8           	rolw %a0@+
    34fc:	e7a8           	lsll %d3,%d0
    34fe:	e710           	roxlb #3,%d0
    3500:	f7da           	.short 0xf7da
    3502:	f788           	.short 0xf788
    3504:	f422           	.short 0xf422
    3506:	f846           	.short 0xf846
    3508:	f85c           	.short 0xf85c
    350a:	f9aa           	.short 0xf9aa
    350c:	f9b4           	.short 0xf9b4
    350e:	f9c4           	.short 0xf9c4
    3510:	f99a           	.short 0xf99a
    3512:	e80a           	lsrb #4,%d2
    3514:	e720           	aslb %d3,%d0
    3516:	e734           	roxlb %d3,%d4
    3518:	e764           	aslw %d3,%d4
    351a:	f450           	.short 0xf450

0000351c <LAB_OPPT>:
    351c:	0079 e96c 0079 	oriw #-5780,79e958 <ram_size+0x78e958>
    3522:	e958 
    3524:	007b           	.short 0x007b
    3526:	eb10           	roxlb #5,%d0
    3528:	007b           	.short 0x007b
    352a:	eb9c           	roll #5,%d4
    352c:	007f           	.short 0x007f
    352e:	effe           	.short 0xeffe
    3530:	0050 df98      	oriw #-8296,%a0@
    3534:	0046 df88      	oriw #-8312,%d6
    3538:	0046 df90      	oriw #-8304,%d6
    353c:	0056 e03c      	oriw #-8132,%fp@
    3540:	0056 e02c      	oriw #-8148,%fp@
    3544:	007d           	.short 0x007d
    3546:	f062           	.short 0xf062
    3548:	005a dfae      	oriw #-8274,%a2@+
    354c:	0064 dfb8      	oriw #-8264,%a4@-

00003550 <LAB_2A9A>:
    3550:	fff0           	.short 0xfff0
    3552:	bdc0           	cmpal %d0,%fp
    3554:	0001 86a0      	orib #-96,%d1
    3558:	ffff           	.short 0xffff
    355a:	d8f0 0000      	addaw %a0@(0000000000000000,%d0:w),%a4
    355e:	03e8 ffff      	bset %d1,%a0@(-1)
    3562:	ff9c           	.short 0xff9c
    3564:	0000 000a      	orib #10,%d0
    3568:	ffff           	.short 0xffff
    356a:	ffff           	.short 0xffff

0000356c <LAB_2A9B>:
    356c:	0000 0002      	orib #2,%d0
    3570:	ffff           	.short 0xffff
    3572:	0004 ffff      	orib #-1,%d4
    3576:	0006 ffff      	orib #-1,%d6
    357a:	ffff           	.short 0xffff
    357c:	ffff           	.short 0xffff
    357e:	ffff           	.short 0xffff
    3580:	ffff           	.short 0xffff
    3582:	ffff           	.short 0xffff
    3584:	ffff           	.short 0xffff
    3586:	ffff           	.short 0xffff
    3588:	ffff           	.short 0xffff
    358a:	ffff           	.short 0xffff
    358c:	ffff           	.short 0xffff
    358e:	ffff           	.short 0xffff
    3590:	0008           	.short 0x0008
    3592:	000c           	.short 0x000c
    3594:	000e           	.short 0x000e
    3596:	0012 ffff      	orib #-1,%a2@
    359a:	0014 0024      	orib #36,%a4@
    359e:	003d           	.short 0x003d
    35a0:	0054 006d      	oriw #109,%a4@
    35a4:	007c 0086      	oriw #134,%sr
    35a8:	0093 0099 ffff 	oril #10092543,%a3@
    35ae:	ffff           	.short 0xffff
    35b0:	00a8 00d6 00e4 	oril #14024932,%a0@(243)
    35b6:	00f3 
    35b8:	00f8           	.short 0x00f8
    35ba:	ffff           	.short 0xffff
    35bc:	010d 0137      	movepw %a5@(311),%d0
    35c0:	0162           	bchg %d0,%a2@-
    35c2:	0176 018e 019a 	bchg %d0,@(0000000000000000)@(000000000000019a,%d0:w)
    35c8:	ffff           	.short 0xffff
    35ca:	ffff           	.short 0xffff
    35cc:	ffff           	.short 0xffff
    35ce:	ffff           	.short 0xffff
    35d0:	ffff           	.short 0xffff
    35d2:	ffff           	.short 0xffff
    35d4:	01a9       	bclr %d0,%a1@(17665)

000035d6 <LAB_KEYT>:
    35d6:	4501           	chkl %d1,%d2
    35d8:	0071 4601 007c 	oriw #17921,%a1@(000000000000007c,%d0:w)
    35de:	4e02           	.short 0x4e02
    35e0:	00e7           	.short 0x00e7
    35e2:	4402           	negb %d2
    35e4:	0054 4903      	oriw #18691,%a4@
    35e8:	009e 4401 0063 	oril #1140916323,%fp@+
    35ee:	5202           	addqb #1,%d2
    35f0:	0114           	btst %d0,%a4@
    35f2:	4c01           	.short 0x4c01
    35f4:	00be           	.short 0x00be
    35f6:	4401           	negb %d1
    35f8:	0058 4702      	oriw #18178,%a0@+
    35fc:	0089           	.short 0x0089
    35fe:	5201           	addqb #1,%d1
    3600:	0133 4900      	btst %d0,%a3@(0000000000000000,%d4:l)
    3604:	0099 5205 011b 	oril #1376059675,%a1@+
    360a:	4703           	chkl %d3,%d3
    360c:	008d           	.short 0x008d
    360e:	5204           	addqb #1,%d4
    3610:	0122           	btst %d0,%a2@-
    3612:	5201           	addqb #1,%d1
    3614:	0118           	btst %d0,%a0@+
    3616:	5302           	subqb #1,%d2
    3618:	0154           	bchg %d0,%a4@
    361a:	4f00           	chkl %d0,%d7
    361c:	00f3           	.short 0x00f3
    361e:	4e02           	.short 0x4e02
    3620:	00ee           	.short 0x00ee
    3622:	4901           	chkl %d1,%d4
    3624:	009b 5702 019a 	oril #1459749274,%a3@+
    362a:	4c02           	.short 0x4c02
    362c:	00c5           	.short 0x00c5
    362e:	5302           	subqb #1,%d2
    3630:	013c 4401      	btst %d0,#1
    3634:	0060 5002      	oriw #20482,%a0@-
    3638:	00ff           	.short 0x00ff
    363a:	4402           	negb %d2
    363c:	0066 4c02      	oriw #19458,%fp@-
    3640:	00cd           	.short 0x00cd
    3642:	4302           	chkl %d2,%d1
    3644:	003d           	.short 0x003d
    3646:	4400           	negb %d0
    3648:	006a 4c02 00d1 	oriw #19458,%a2@(209)
    364e:	5003           	addqb #8,%d3
    3650:	0107           	btst %d0,%d7
    3652:	4302           	chkl %d2,%d1
    3654:	004b           	.short 0x004b
    3656:	4c02           	.short 0x4c02
    3658:	00c1           	.short 0x00c1
    365a:	4303           	chkl %d3,%d1
    365c:	0046 4e01      	oriw #19969,%d6
    3660:	00e4           	.short 0x00e4
    3662:	5703           	subqb #3,%d3
    3664:	01a3           	bclr %d0,%a3@-
    3666:	4701           	chkl %d1,%d3
    3668:	0086 5302 015d 	oril #1392640349,%d6
    366e:	4204           	clrb %d4
    3670:	002f 4204 0029 	orib #4,%sp@(41)
    3676:	5402           	addqb #2,%d2
    3678:	0162           	bchg %d0,%a2@-
    367a:	4502           	chkl %d2,%d2
    367c:	006d 5400 016e 	oriw #21504,%a5@(366)
    3682:	4600           	notb %d0
    3684:	007f           	.short 0x007f
    3686:	5302           	subqb #1,%d2
    3688:	0148 5402      	movepl %a0@(21506),%d0
    368c:	016a 4e01      	bchg %d0,%a2@(19969)
    3690:	00eb           	.short 0x00eb
    3692:	5302           	subqb #1,%d2
    3694:	0150           	bchg %d0,%a0@
    3696:	5503           	subqb #2,%d3
    3698:	017d           	.short 0x017d
    369a:	5703           	subqb #3,%d3
    369c:	019e           	bclr %d0,%fp@+
    369e:	2bff           	.short 0x2bff
    36a0:	0002 2dff      	orib #-1,%d2
    36a4:	0004 2aff      	orib #-1,%d4
    36a8:	0000 2fff      	orib #-1,%d0
    36ac:	0006 5eff      	orib #-1,%d6
    36b0:	01a9 4101      	bclr %d0,%a1@(16641)
    36b4:	0018 4501      	orib #1,%a0@+
    36b8:	0074 4f00 00f5 	oriw #20224,%a4@(fffffffffffffff5,%d0:w)
    36be:	3e00           	movew %d0,%d7
    36c0:	000e           	.short 0x000e
    36c2:	3c00           	movew %d0,%d6
    36c4:	0008           	.short 0x0008
    36c6:	3eff           	.short 0x3eff
    36c8:	0010 3dff      	orib #-1,%a0@
    36cc:	000c           	.short 0x000c
    36ce:	3cff           	.short 0x3cff
    36d0:	000a           	.short 0x000a
    36d2:	5302           	subqb #1,%d2
    36d4:	0140           	bchg %d0,%d0
    36d6:	4902           	chkl %d2,%d4
    36d8:	00a3 4102 0014 	oril #1090650132,%a3@-
    36de:	5502           	subqb #2,%d2
    36e0:	0189 4602      	movepw %d0,%a1@(17922)
    36e4:	0081 5002 0103 	oril #1342308611,%d1
    36ea:	5302           	subqb #1,%d2
    36ec:	014c 5202      	movepl %a4@(20994),%d0
    36f0:	012f 4c02      	btst %d0,%sp@(19458)
    36f4:	00c9           	.short 0x00c9
    36f6:	4502           	chkl %d2,%d2
    36f8:	0077 4302 004f 	oriw #17154,%sp@(000000000000004f,%d0:w)
    36fe:	5302           	subqb #1,%d2
    3700:	0144           	bchg %d0,%d4
    3702:	5402           	addqb #2,%d2
    3704:	0166           	bchg %d0,%fp@-
    3706:	4102           	chkl %d2,%d0
    3708:	001f 5003      	orib #3,%sp@+
    370c:	00f8           	.short 0x00f8
    370e:	4403           	negb %d3
    3710:	005b 4c03      	oriw #19459,%a3@+
    3714:	00af 4c02 00ba 	oril #1275199674,%sp@(21251)
    371a:	5303 
    371c:	0158           	bchg %d0,%a0@+
    371e:	5602           	addqb #3,%d2
    3720:	018e 4102      	movepw %d0,%fp@(16642)
    3724:	001b 5505      	orib #5,%a3@+
    3728:	0176 4c05      	bchg %d0,%fp@(0000000000000005,%d4:l:4)
    372c:	00a8 4303 0041 	oril #1124270145,%a0@(18435)
    3732:	4803 
    3734:	0093 4203 0024 	oril #1107492900,%a3@
    373a:	4205           	clrb %d5
    373c:	0035 4d02 00d6 	orib #2,%a5@(ffffffffffffffd6,%d0:w)
    3742:	4d02           	chkl %d2,%d6
    3744:	00df           	.short 0x00df
    3746:	5205           	addqb #1,%d5
    3748:	010d 5000      	movepw %a5@(20480),%d0
    374c:	00fd           	.short 0x00fd
    374e:	5403           	addqb #2,%d3
    3750:	0170 5605      	bchg %d0,%a0@(0000000000000005,%d5:w:8)
    3754:	0192           	bclr %d0,%a2@
    3756:	5303           	subqb #1,%d3
    3758:	0137 4c04      	btst %d0,%sp@(0000000000000004,%d4:l:4)
    375c:	00b4 5205 0128 	oril #1376059688,%a4@(0000000000000000,%d4:l:4)@(0000000000da5505)
    3762:	4d03 00da 5505 
    3768:	0182           	bclr %d0,%d2

0000376a <LAB_BAER>:
    376a:	0030 0041 0048 	orib #65,%a0@(0000000000000048,%d0:w)
    3770:	005d 0069      	oriw #105,%a5@+
    3774:	0077 0080 008e 	oriw #128,%sp@(ffffffffffffff8e,%d0:w)
    377a:	00a2 00af 00c0 	oril #11468992,%a2@-
    3780:	00cf           	.short 0x00cf
    3782:	00de           	.short 0x00de
    3784:	00ec           	.short 0x00ec
    3786:	00fc           	.short 0x00fc
    3788:	010f 011e      	movepw %sp@(286),%d0
    378c:	0131 0141      	btst %d0,%a1@(0000000000000000)@(0000000000000000)
    3790:	0154           	bchg %d0,%a4@
    3792:	0168 0179      	bchg %d0,%a0@(377)
    3796:	0181           	bclr %d0,%d1
    3798:	0188       	movepw %d0,%a0@(20037)

0000379a <LAB_NF>:
    379a:	4e45           	trap #5
    379c:	5854           	addqw #4,%a4@
    379e:	2077 6974 686f 	moveal %sp@(00000000686f7574)@(0000000000000000),%a0
    37a4:	7574 
    37a6:	2046           	moveal %d6,%a0
    37a8:	4f52           	.short 0x4f52
	...

000037ab <LAB_SN>:
    37ab:	5379 6e74 6178 	subqw #1,6e746178 <KFCTSEED+0x47d09068>
	...

000037b2 <LAB_RG>:
    37b2:	5245           	addqw #1,%d5
    37b4:	5455           	addqw #2,%a5@
    37b6:	524e           	addqw #1,%fp
    37b8:	2077 6974 686f 	moveal %sp@(00000000686f7574)@(0000000000000000),%a0
    37be:	7574 
    37c0:	2047           	moveal %d7,%a0
    37c2:	4f53           	.short 0x4f53
    37c4:	5542           	subqw #2,%d2
	...

000037c7 <LAB_OD>:
    37c7:	4f75           	.short 0x4f75
    37c9:	7420           	moveq #32,%d2
    37cb:	6f66           	bles 3833 <LAB_D0+0x9>
    37cd:	2044           	moveal %d4,%a0
    37cf:	4154           	.short 0x4154
    37d1:	4100           	chkl %d0,%d0

000037d3 <LAB_FC>:
    37d3:	4675 6e63      	notw %a5@(0000000000000063,%d6:l:8)
    37d7:	7469           	moveq #105,%d2
    37d9:	6f6e           	bles 3849 <LAB_TM+0x1>
    37db:	2063           	moveal %a3@-,%a0
    37dd:	616c           	bsrs 384b <LAB_TM+0x3>
    37df:	6c00       	bgew 8757 <ram_addr+0x2757>

000037e1 <LAB_OV>:
    37e1:	4f76           	.short 0x4f76
    37e3:	6572           	bcss 3857 <LAB_LS+0x1>
    37e5:	666c           	bnes 3853 <LAB_TM+0xb>
    37e7:	6f77           	bles 3860 <LAB_LS+0xa>
	...

000037ea <LAB_OM>:
    37ea:	4f75           	.short 0x4f75
    37ec:	7420           	moveq #32,%d2
    37ee:	6f66           	bles 3856 <LAB_LS>
    37f0:	206d 656d      	moveal %a5@(25965),%a0
    37f4:	6f72           	bles 3868 <LAB_ST+0x2>
    37f6:	7900           	.short 0x7900

000037f8 <LAB_US>:
    37f8:	556e 6465      	subqw #2,%fp@(25701)
    37fc:	6669           	bnes 3867 <LAB_ST+0x1>
    37fe:	6e65           	bgts 3865 <LAB_LS+0xf>
    3800:	6420           	bccs 3822 <LAB_DD+0x9>
    3802:	7374           	.short 0x7374
    3804:	6174           	bsrs 387a <LAB_CN+0x1>
    3806:	656d           	bcss 3875 <LAB_ST+0xf>
    3808:	656e           	bcss 3878 <LAB_ST+0x12>
    380a:	7400           	moveq #0,%d2

0000380c <LAB_BS>:
    380c:	4172           	.short 0x4172
    380e:	7261           	moveq #97,%d1
    3810:	7920           	.short 0x7920
    3812:	626f           	bhis 3883 <LAB_CN+0xa>
    3814:	756e           	.short 0x756e
    3816:	6473           	bccs 388b <LAB_UF+0x3>
	...

00003819 <LAB_DD>:
    3819:	446f 7562      	negw %sp@(30050)
    381d:	6c65           	bges 3884 <LAB_CN+0xb>
    381f:	2064           	moveal %a4@-,%a0
    3821:	696d           	bvss 3890 <LAB_UF+0x8>
    3823:	656e           	bcss 3893 <LAB_UF+0xb>
    3825:	7369           	.short 0x7369
    3827:	6f6e           	bles 3897 <LAB_UF+0xf>
	...

0000382a <LAB_D0>:
    382a:	4469 7669      	negw %a1@(30313)
    382e:	6465           	bccs 3895 <LAB_UF+0xd>
    3830:	2062           	moveal %a2@-,%a0
    3832:	7920           	.short 0x7920
    3834:	7a65           	moveq #101,%d5
    3836:	726f           	moveq #111,%d1
	...

00003839 <LAB_ID>:
    3839:	496c           	.short 0x496c
    383b:	6c65           	bges 38a2 <LAB_LD+0x7>
    383d:	6761           	beqs 38a0 <LAB_LD+0x5>
    383f:	6c20           	bges 3861 <LAB_LS+0xb>
    3841:	6469           	bccs 38ac <LAB_UV+0x1>
    3843:	7265           	moveq #101,%d1
    3845:	6374           	blss 38bb <LAB_UV+0x10>
	...

00003848 <LAB_TM>:
    3848:	5479 7065 206d 	addqw #2,7065206d <KFCTSEED+0x49c14f5d>
    384e:	6973           	bvss 38c3 <LAB_UA+0x5>
    3850:	6d61           	blts 38b3 <LAB_UV+0x8>
    3852:	7463           	moveq #99,%d2
    3854:	6800       	bvcw 8bca <ram_addr+0x2bca>

00003856 <LAB_LS>:
    3856:	5374 7269      	subqw #1,%a4@(0000000000000069,%d7:w:2)
    385a:	6e67           	bgts 38c3 <LAB_UA+0x5>
    385c:	2074 6f6f 206c 	moveal %a4@(000000000000206c)@(000000006f6e6700),%a0
    3862:	6f6e 6700 

00003866 <LAB_ST>:
    3866:	5374 7269      	subqw #1,%a4@(0000000000000069,%d7:w:2)
    386a:	6e67           	bgts 38d3 <LAB_WD+0x1>
    386c:	2074 6f6f 2063 	moveal %a4@(0000000000002063)@(000000006f6d706c),%a0
    3872:	6f6d 706c 
    3876:	6578           	bcss 38f0 <LAB_FO+0x5>
	...

00003879 <LAB_CN>:
    3879:	4361           	.short 0x4361
    387b:	6e27           	bgts 38a4 <LAB_LD+0x9>
    387d:	7420           	moveq #32,%d2
    387f:	636f           	blss 38f0 <LAB_FO+0x5>
    3881:	6e74           	bgts 38f7 <LAB_NI+0x5>
    3883:	696e           	bvss 38f3 <LAB_NI+0x1>
    3885:	7565           	.short 0x7565
	...

00003888 <LAB_UF>:
    3888:	556e 6465      	subqw #2,%fp@(25701)
    388c:	6669           	bnes 38f7 <LAB_NI+0x5>
    388e:	6e65           	bgts 38f5 <LAB_NI+0x3>
    3890:	6420           	bccs 38b2 <LAB_UV+0x7>
    3892:	6675           	bnes 3909 <HWSTR+0x7>
    3894:	6e63           	bgts 38f9 <LAB_NI+0x7>
    3896:	7469           	moveq #105,%d2
    3898:	6f6e           	bles 3908 <HWSTR+0x6>
	...

0000389b <LAB_LD>:
    389b:	4c4f           	.short 0x4c4f
    389d:	4f50           	.short 0x4f50
    389f:	2077 6974 686f 	moveal %sp@(00000000686f7574)@(0000000000000000),%a0
    38a5:	7574 
    38a7:	2044           	moveal %d4,%a0
    38a9:	4f00           	chkl %d0,%d7

000038ab <LAB_UV>:
    38ab:	556e 6465      	subqw #2,%fp@(25701)
    38af:	6669           	bnes 391a <KEY_PLUS>
    38b1:	6e65           	bgts 3918 <KEY_MULT>
    38b3:	6420           	bccs 38d5 <LAB_WD+0x3>
    38b5:	7661           	moveq #97,%d3
    38b7:	7269           	moveq #105,%d1
    38b9:	6162           	bsrs 391d <KEY_MINUS+0x1>
    38bb:	6c65           	bges 3922 <KEY_LT>
	...

000038be <LAB_UA>:
    38be:	556e 6469      	subqw #2,%fp@(25705)
    38c2:	6d65           	blts 3929 <KEY_GT+0x1>
    38c4:	6e73           	bgts 3939 <KEY_ATN+0x2>
    38c6:	696f           	bvss 3937 <KEY_ATN>
    38c8:	6e65           	bgts 392f <KEY_ABS+0x3>
    38ca:	6420           	bccs 38ec <LAB_FO+0x1>
    38cc:	6172           	bsrs 3940 <KEY_BINS+0x4>
    38ce:	7261           	moveq #97,%d1
    38d0:	7900           	.short 0x7900

000038d2 <LAB_WD>:
    38d2:	5772 6f6e 6720 	subqw #3,%a2@(0000000000006720)@(0000000000006469)
    38d8:	6469 
    38da:	6d65           	blts 3941 <KEY_BITCLR>
    38dc:	6e73           	bgts 3951 <KEY_BITTST+0x4>
    38de:	696f           	bvss 394f <KEY_BITTST+0x2>
    38e0:	6e73           	bgts 3955 <KEY_CALL>
	...

000038e3 <LAB_AD>:
    38e3:	4164           	.short 0x4164
    38e5:	6472           	bccs 3959 <KEY_CHRS>
    38e7:	6573           	bcss 395c <KEY_CHRS+0x3>
    38e9:	7300           	.short 0x7300

000038eb <LAB_FO>:
    38eb:	466f 726d      	notw %sp@(29293)
    38ef:	6174           	bsrs 3965 <KEY_CONT+0x2>
	...

000038f2 <LAB_NI>:
    38f2:	4e6f           	movel %usp,%sp
    38f4:	7420           	moveq #32,%d2
    38f6:	696d           	bvss 3965 <KEY_CONT+0x2>
    38f8:	706c           	moveq #108,%d0
    38fa:	656d           	bcss 3969 <KEY_COS+0x2>
    38fc:	656e           	bcss 396c <KEY_DATA>
    38fe:	7465           	moveq #101,%d2
    3900:	6400       	bccw 8167 <ram_addr+0x2167>

00003902 <HWSTR>:
    3902:	4865           	.short 0x4865
    3904:	6c6c           	bges 3972 <KEY_DEC+0x2>
    3906:	6f20           	bles 3928 <KEY_GT>
    3908:	776f           	.short 0x776f
    390a:	726c           	moveq #108,%d1
    390c:	6420           	bccs 392e <KEY_ABS+0x2>
    390e:	6672           	bnes 3982 <KEY_DO>
    3910:	6f6d           	bles 397f <KEY_DOKE+0x1>
    3912:	2061           	moveal %a1@-,%a0
    3914:	736d           	.short 0x736d
    3916:	2100           	movel %d0,%a0@-

00003918 <KEY_MULT>:
    3918:	b400           	cmpb %d0,%d2

0000391a <KEY_PLUS>:
    391a:	b200           	cmpb %d0,%d1

0000391c <KEY_MINUS>:
    391c:	b300           	eorb %d1,%d0

0000391e <KEY_DIV>:
    391e:	b500           	eorb %d2,%d0

00003920 <KEY_LSHIFT>:
    3920:	3cbb       	movew %pc@(3922 <KEY_LT>,%a3:l:8),%fp@

00003922 <KEY_LT>:
    3922:	be00           	cmpb %d0,%d7

00003924 <KEY_EQUAL>:
    3924:	bd00           	eorb %d6,%d0

00003926 <KEY_RSHIFT>:
    3926:	3eba       	movew %pc@(fffff528 <KFCTSEED+0xd95c2418>),%sp@

00003928 <KEY_GT>:
    3928:	bc00           	cmpb %d0,%d6

0000392a <TAB_QEST>:
    392a:	9e00           	subb %d0,%d7

0000392c <KEY_ABS>:
    392c:	4253           	clrw %a3@
    392e:	28c1           	movel %d1,%a4@+

00003930 <KEY_AND>:
    3930:	4e44           	trap #4
    3932:	           	eorw %d3,%a3@

00003933 <KEY_ASC>:
    3933:	5343           	subqw #1,%d3
    3935:	28d3           	movel %a3@,%a4@+

00003937 <KEY_ATN>:
    3937:	544e           	addqw #2,%fp
    3939:	28cc           	movel %a4,%a4@+
	...

0000393c <KEY_BINS>:
    393c:	494e           	.short 0x494e
    393e:	2428       	movel %a0@(-10167),%d2

00003941 <KEY_BITCLR>:
    3941:	4954           	.short 0x4954
    3943:	434c           	.short 0x434c
    3945:	52a7           	addql #1,%sp@-

00003947 <KEY_BITSET>:
    3947:	4954           	.short 0x4954
    3949:	5345           	subqw #1,%d5
    394b:	54a6           	addql #2,%fp@-

0000394d <KEY_BITTST>:
    394d:	4954           	.short 0x4954
    394f:	5453           	addqw #2,%a3@
    3951:	5428 d900      	addqb #2,%a0@(-9984)

00003955 <KEY_CALL>:
    3955:	414c           	.short 0x414c
    3957:	4c9b       	movemw %a3@+,%d1/%d4/%d6/%a3/%fp

00003959 <KEY_CHRS>:
    3959:	4852           	pea %a2@
    395b:	2428       	movel %a0@(-10676),%d2

0000395e <KEY_CLEAR>:
    395e:	4c45           	.short 0x4c45
    3960:	4152           	.short 0x4152
    3962:	           	.short 0xa14f

00003963 <KEY_CONT>:
    3963:	4f4e           	.short 0x4f4e
    3965:	549f           	addql #2,%sp@+

00003967 <KEY_COS>:
    3967:	4f53           	.short 0x4f53
    3969:	28c9           	movel %a1,%a4@+
	...

0000396c <KEY_DATA>:
    396c:	4154           	.short 0x4154
    396e:	4183           	chkw %d3,%d0

00003970 <KEY_DEC>:
    3970:	4543           	.short 0x4543
    3972:	           	orw %d5,%d4

00003973 <KEY_DEEK>:
    3973:	4545           	.short 0x4545
    3975:	4b28       	chkl %a0@(-12731),%d5

00003978 <KEY_DEF>:
    3978:	4546           	.short 0x4546
    397a:	           	subxw %a1@-,%a3@-

0000397b <KEY_DIM>:
    397b:	494d           	.short 0x494d
    397d:	           	.short 0x854f

0000397e <KEY_DOKE>:
    397e:	4f4b           	.short 0x4f4b
    3980:	4599           	chkw %a1@+,%d2

00003982 <KEY_DO>:
    3982:	4f9c           	chkw %a4@+,%d7
	...

00003985 <KEY_ELSE>:
    3985:	4c53           	.short 0x4c53
    3987:	45a9       	chkw %a1@(20036),%d2

00003989 <KEY_END>:
    3989:	4e44           	trap #4
    398b:	           	.short 0x804f

0000398c <KEY_EOR>:
    398c:	4f52           	.short 0x4f52
    398e:	           	cmpw %a0@+,%d4

0000398f <KEY_EXP>:
    398f:	5850           	addqw #4,%a0@
    3991:	28c8           	movel %a0,%a4@+
	...

00003994 <KEY_FOR>:
    3994:	4f52           	.short 0x4f52
    3996:	           	.short 0x814e

00003997 <KEY_FN>:
    3997:	4eab       	jsr %a3@(21061)

00003999 <KEY_FRE>:
    3999:	5245           	addqw #1,%d5
    399b:	28c3           	movel %d3,%a4@+
	...

0000399e <KEY_GET>:
    399e:	4554           	.short 0x4554
    39a0:	           	.short 0xa44f

000039a1 <KEY_GOTO>:
    39a1:	4f54           	.short 0x4f54
    39a3:	4f89           	.short 0x4f89

000039a5 <KEY_GOSUB>:
    39a5:	4f53           	.short 0x4f53
    39a7:	5542           	subqw #2,%d2
    39a9:	8d00           	sbcd %d0,%d6

000039ab <KEY_HEXS>:
    39ab:	4558           	.short 0x4558
    39ad:	2428 d700      	movel %a0@(-10496),%d2

000039b1 <KEY_IF>:
    39b1:	468b           	.short 0x468b

000039b3 <KEY_INC>:
    39b3:	4e43           	trap #3
    39b5:	           	subxw %fp@-,%a1@-

000039b6 <KEY_INPUT>:
    39b6:	4e50 5554      	linkw %a0,#21844
    39ba:	           	.short 0x844e

000039bb <KEY_INT>:
    39bb:	4e54 28c0      	linkw %a4,#10432
	...

000039c0 <KEY_LCASES>:
    39c0:	4341           	.short 0x4341
    39c2:	5345           	subqw #1,%d5
    39c4:	2428       	movel %a0@(-10939),%d2

000039c7 <KEY_LEEK>:
    39c7:	4545           	.short 0x4545
    39c9:	4b28       	chkl %a0@(-12475),%d5

000039cc <KEY_LEFTS>:
    39cc:	4546           	.short 0x4546
    39ce:	5424           	addqb #2,%a4@-
    39d0:	28e1           	movel %a1@-,%a4@+

000039d2 <KEY_LEN>:
    39d2:	454e           	.short 0x454e
    39d4:	28d0           	movel %a0@,%a4@+

000039d6 <KEY_LET>:
    39d6:	4554           	.short 0x4554
    39d8:	           	.short 0x8749

000039d9 <KEY_LIST>:
    39d9:	4953           	.short 0x4953
    39db:	54a0           	addql #2,%a0@-

000039dd <KEY_LOAD>:
    39dd:	4f41           	.short 0x4f41
    39df:	4495           	negl %a5@

000039e1 <KEY_LOG>:
    39e1:	4f47           	.short 0x4f47
    39e3:	28c7           	movel %d7,%a4@+

000039e5 <KEY_LOKE>:
    39e5:	4f4b           	.short 0x4f4b
    39e7:	459a           	chkw %a2@+,%d2

000039e9 <KEY_LOOP>:
    39e9:	4f4f           	.short 0x4f4f
    39eb:	509d           	addql #8,%a5@+
	...

000039ee <KEY_MAX>:
    39ee:	4158           	.short 0x4158
    39f0:	28da           	movel %a2@+,%a4@+

000039f2 <KEY_MIDS>:
    39f2:	4944           	.short 0x4944
    39f4:	2428       	movel %a0@(-7351),%d2

000039f7 <KEY_MIN>:
    39f7:	494e           	.short 0x494e
    39f9:	28db           	movel %a3@+,%a4@+
	...

000039fc <KEY_NEW>:
    39fc:	4557           	.short 0x4557
    39fe:	           	.short 0xa245

000039ff <KEY_NEXT>:
    39ff:	4558           	.short 0x4558
    3a01:	5482           	addql #2,%d2

00003a03 <KEY_NOT>:
    3a03:	4f54           	.short 0x4f54
    3a05:	           	.short 0xae55

00003a06 <KEY_NULL>:
    3a06:	554c           	subqw #2,%a4
    3a08:	4c92       	movemw %a2@,%d1-%d3/%d6

00003a0b <KEY_ON>:
    3a0b:	4e91           	jsr %a1@

00003a0d <KEY_OR>:
    3a0d:	52b9   	addql #1,45454b <ram_size+0x44454b>

00003a10 <KEY_PEEK>:
    3a10:	4545           	.short 0x4545
    3a12:	4b28       	chkl %a0@(-12983),%d5

00003a15 <KEY_PI>:
    3a15:	49dd           	.short 0x49dd

00003a17 <KEY_POKE>:
    3a17:	4f4b           	.short 0x4f4b
    3a19:	4598           	chkw %a0@+,%d2

00003a1b <KEY_POS>:
    3a1b:	4f53           	.short 0x4f53
    3a1d:	28c4           	movel %d4,%a4@+

00003a1f <KEY_PRINT>:
    3a1f:	5249           	addqw #1,%a1
    3a21:	4e54 9e00      	linkw %a4,#-25088

00003a25 <KEY_RAM>:
    3a25:	414d           	.short 0x414d
    3a27:	4241           	clrw %d1
    3a29:	5345           	subqw #1,%d5
    3a2b:	           	addw %d5,%d6

00003a2c <KEY_READ>:
    3a2c:	4541           	.short 0x4541
    3a2e:	4486           	negl %d6

00003a30 <KEY_REM>:
    3a30:	454d           	.short 0x454d
    3a32:	           	.short 0x8f45

00003a33 <KEY_RESTORE>:
    3a33:	4553           	.short 0x4553
    3a35:	544f           	addqw #2,%sp
    3a37:	5245           	addqw #1,%d5
    3a39:	           	orw %d5,%d6

00003a3a <KEY_RETURN>:
    3a3a:	4554           	.short 0x4554
    3a3c:	5552           	subqw #2,%a2@
    3a3e:	4e8e           	.short 0x4e8e

00003a40 <KEY_RIGHTS>:
    3a40:	4947           	.short 0x4947
    3a42:	4854           	pea %a4@
    3a44:	2428       	movel %a0@(-7602),%d2

00003a47 <KEY_RND>:
    3a47:	4e44           	trap #4
    3a49:	28c6           	movel %d6,%a4@+

00003a4b <KEY_RUN>:
    3a4b:	554e           	subqw #2,%fp
    3a4d:	8a00           	orb %d0,%d5

00003a4f <KEY_SADD>:
    3a4f:	4144           	.short 0x4144
    3a51:	4428       	negb %a0@(-8127)

00003a54 <KEY_SAVE>:
    3a54:	4156           	.short 0x4156
    3a56:	4596           	chkw %fp@,%d2

00003a58 <KEY_SGN>:
    3a58:	474e           	.short 0x474e
    3a5a:	28bf           	.short 0x28bf

00003a5c <KEY_SIN>:
    3a5c:	494e           	.short 0x494e
    3a5e:	28ca           	movel %a2,%a4@+

00003a60 <KEY_SPC>:
    3a60:	5043           	addqw #8,%d3
    3a62:	28ac       	movel %a4@(20818),%a4@

00003a64 <KEY_SQR>:
    3a64:	5152           	subqw #8,%a2@
    3a66:	28c5           	movel %d5,%a4@+

00003a68 <KEY_STEP>:
    3a68:	5445           	addqw #2,%d5
    3a6a:	50af       	addql #8,%sp@(21583)

00003a6c <KEY_STOP>:
    3a6c:	544f           	addqw #2,%sp
    3a6e:	5090           	addql #8,%a0@

00003a70 <KEY_STRS>:
    3a70:	5452           	addqw #2,%a2@
    3a72:	2428       	movel %a0@(-11945),%d2

00003a75 <KEY_SWAP>:
    3a75:	5741           	subqw #3,%d1
    3a77:	50a5           	addql #8,%a5@-
	...

00003a7a <KEY_TAB>:
    3a7a:	4142           	.short 0x4142
    3a7c:	28a8       	movel %a0@(16718),%a4@

00003a7e <KEY_TAN>:
    3a7e:	414e           	.short 0x414e
    3a80:	28cb           	movel %a3,%a4@+

00003a82 <KEY_THEN>:
    3a82:	4845           	swap %d5
    3a84:	4ead       	jsr %a5@(20394)

00003a86 <KEY_TO>:
    3a86:	4faa       	chkw %a2@(22351),%d7

00003a88 <KEY_TWOPI>:
    3a88:	574f           	subqw #3,%sp
    3a8a:	5049           	addqw #8,%a1
    3a8c:	de00           	addb %d0,%d7

00003a8e <KEY_UCASES>:
    3a8e:	4341           	.short 0x4341
    3a90:	5345           	subqw #1,%d5
    3a92:	2428       	movel %a0@(-11186),%d2

00003a95 <KEY_UNTIL>:
    3a95:	4e54 494c      	linkw %a4,#18764
    3a99:	           	cmpw %a3@,%d0

00003a9a <KEY_USINGS>:
    3a9a:	5349           	subqw #1,%a1
    3a9c:	4e47           	trap #7
    3a9e:	2428       	movel %a0@(-7085),%d2

00003aa1 <KEY_USR>:
    3aa1:	5352           	subqw #1,%a2@
    3aa3:	28c2           	movel %d2,%a4@+
	...

00003aa6 <KEY_VAL>:
    3aa6:	414c           	.short 0x414c
    3aa8:	28d2           	movel %a2@,%a4@+

00003aaa <KEY_VPTR>:
    3aaa:	4152           	.short 0x4152
    3aac:	5054           	addqw #8,%a4@
    3aae:	5228 df00      	addqb #1,%a0@(-8448)

00003ab2 <KEY_WAIT>:
    3ab2:	4149           	.short 0x4149
    3ab4:	5494           	addql #2,%a4@

00003ab6 <KEY_WHILE>:
    3ab6:	4849           	.short 0x4849
    3ab8:	4c45           	.short 0x4c45
    3aba:	           	cmpmw %a1@+,%a0@+

00003abb <KEY_WIDTH>:
    3abb:	4944           	.short 0x4944
    3abd:	5448           	addqw #2,%a0
    3abf:	a300           	.short 0xa300

00003ac1 <KEY_POWER>:
    3ac1:	b600           	cmpb %d0,%d3

00003ac3 <LAB_BMSG>:
    3ac3:	0d0a 4272      	movepw %a2@(17010),%d6
    3ac7:	6561           	bcss 3b2a <LAB_SMSG+0x22>
    3ac9:	6b00       	bmiw 5b10 <LAB_SMSG+0x2008>

00003acb <LAB_EMSG>:
    3acb:	2045           	moveal %d5,%a0
    3acd:	7272           	moveq #114,%d1
    3acf:	6f72           	bles 3b43 <LAB_SMSG+0x3b>
	...

00003ad2 <LAB_LMSG>:
    3ad2:	2069 6e20      	moveal %a1@(28192),%a0
    3ad6:	6c69           	bges 3b41 <LAB_SMSG+0x39>
    3ad8:	6e65           	bgts 3b3f <LAB_SMSG+0x37>
    3ada:	2000           	movel %d0,%d0

00003adc <LAB_IMSG>:
    3adc:	4578           	.short 0x4578
    3ade:	7472           	moveq #114,%d2
    3ae0:	6120           	bsrs 3b02 <LAB_RMSG+0x4>
    3ae2:	6967           	bvss 3b4b <LAB_SMSG+0x43>
    3ae4:	6e6f           	bgts 3b55 <LAB_SMSG+0x4d>
    3ae6:	7265           	moveq #101,%d1
    3ae8:	640d           	bccs 3af7 <LAB_REDO+0xb>
    3aea:	0a00       	eorib #101,%d0

00003aec <LAB_REDO>:
    3aec:	5265           	addqw #1,%a5@-
    3aee:	646f           	bccs 3b5f <LAB_SMSG+0x57>
    3af0:	2066           	moveal %fp@-,%a0
    3af2:	726f           	moveq #111,%d1
    3af4:	6d20           	blts 3b16 <LAB_SMSG+0xe>
    3af6:	7374           	.short 0x7374
    3af8:	6172           	bsrs 3b6c <LAB_SMSG+0x64>
    3afa:	740d           	moveq #13,%d2
    3afc:	0a00       	eorib #10,%d0

00003afe <LAB_RMSG>:
    3afe:	0d0a 5265      	movepw %a2@(21093),%d6
    3b02:	6164           	bsrs 3b68 <LAB_SMSG+0x60>
    3b04:	790d           	.short 0x790d
    3b06:	0a00       	eorib #66,%d0

00003b08 <LAB_SMSG>:
    3b08:	2042           	moveal %d2,%a0
    3b0a:	7974           	.short 0x7974
    3b0c:	6573           	bcss 3b81 <LAB_SMSG+0x79>
    3b0e:	2066           	moveal %fp@-,%a0
    3b10:	7265           	moveq #101,%d1
    3b12:	650d           	bcss 3b21 <LAB_SMSG+0x19>
    3b14:	0a0a           	.short 0x0a0a
    3b16:	4743           	.short 0x4743
    3b18:	4320           	chkl %a0@-,%d1
    3b1a:	456e           	.short 0x456e
    3b1c:	6861           	bvcs 3b7f <LAB_SMSG+0x77>
    3b1e:	6e63           	bgts 3b83 <LAB_SMSG+0x7b>
    3b20:	6564           	bcss 3b86 <LAB_SMSG+0x7e>
    3b22:	2036 386b      	movel %fp@(000000000000006b,%d3:l),%d0
    3b26:	2042           	moveal %d2,%a0
    3b28:	4153           	.short 0x4153
    3b2a:	4943           	.short 0x4943
    3b2c:	2056           	moveal %fp@,%a0
    3b2e:	6572           	bcss 3ba2 <LAB_SMSG+0x9a>
    3b30:	7369           	.short 0x7369
    3b32:	6f6e           	bles 3ba2 <LAB_SMSG+0x9a>
    3b34:	2033 2e35      	movel %a3@(0000000000000035,%d2:l:8),%d0
    3b38:	350d           	movew %a5,%a2@-
    3b3a:	Address 0x0000000000003b3c is out-of-bounds.

